Xc:_glClearStencil
G4e:_Array_InternalArray__ICollection_Add_TisMark_t2724874473_m1613484179_gshared
mUc:__ZN5physx2Gu19gjkLocalPenetrationINS0_8CapsuleVENS0_17ShrunkConvexHullVEEEjRKT_RKT0_RKNS_6shdfnd3aos6FloatVERNSB_5Vec3VESG_SG_RSC_PhSI_Rhb
Qri:__ZL80Graphic_t2426225576_CustomAttributesCacheGenerator_Graphic_OnFillVBO_m1723985607P21CustomAttributesCache
ruh:_RuntimeTypeHandle_GetObjectData_m3567098501
T1b:__ZN12ShaderErrors21AddShaderCompileErrorERKNSt3__212basic_stringIcNS0_11char_traitsIcEENS0_9allocatorIcEEEEib
qkb:__ZN18StreamedBinaryReadILb1EE21TransferSTLStyleArrayIN4core12basic_stringIcNS2_20StringStorageDefaultIcEEEEEEvRT_17TransferMetaFlags
S0k:__ZN6il2cpp2vm5Array13GetByteLengthEP11Il2CppArray
bfj:_Raycast3DCallback_BeginInvoke_m3028685017
gWh:_EqualityComparer_1__cctor_m968537130_gshared
Dik:_TextGenerator_get_lineCount_m4287181941
Bzk:__ZN14dense_hash_mapI10KeyWrapperINSt3__212basic_stringIcNS1_11char_traitsIcEENS1_9allocatorIcEEEEEP11Il2CppClassN6il2cpp5utils11StringUtils12StringHasherIS7_EENS1_8equal_toIS8_EENS5_INS1_4pairIKS8_SA_EEEEE15set_deleted_keyERSJ_
ubg:_Comparison_1_Invoke_m353639462_gshared
duj:_UInt64_System_IConvertible_ToDecimal_m4205696037
Pel:_mbrlen
SIj:_GameObject_Internal_AddComponentWithType_m214735204
DG:__ZN10StateRange8TransferI14SafeBinaryReadEEvRT_
nFa:__Z21SourceMipLevelForBlitiiii
xnb:__ZN31CanvasBatchIntermediateRenderer15AddAsRenderNodeER15RenderNodeQueueRK20DeprecatedSourceData
fDh:_GenericTypeParameterBuilder_GetEvent_m4210567427
ndg:__ZN16VirtFuncInvoker0IP17Camera_t189460977E6InvokeEjPv
Jqf:_Enumerator_get_Key_m2908810861
Q9i:__Z55RuntimeInvoker_ILTokenInfo_t149559338_Int32_t2071877448PK10MethodInfoPvPS2_
JEe:__ZN11UnityEngine7Connect14AppUpdateEventD0Ev
_Kd:__ZNK5physx2Sc5Scene24getContactModifyCallbackEv
Fol:__ZdlPv
gqi:__ZL77StandaloneInputModule_t70867863_CustomAttributesCacheGenerator_m_VerticalAxisP21CustomAttributesCache
MJ:__ZN11UnityEngine9Animation28GenericAnimationBindingCacheD2Ev
eOd:__ZN5physx2Sq10AABBPruner10addObjectsEPjPKNS_9PxBounds3EPKNS0_13PrunerPayloadEj
J6h:__ZL68RemotingSurrogateSelector_t2821375126_CustomAttributesCacheGeneratorP21CustomAttributesCache
B8i:__Z76RuntimeInvoker_Void_t1841601450_Int32_t2071877448_KeyValuePair_2_t3716250094PK10MethodInfoPvPS2_
DJf:_List_1_System_Collections_IList_IndexOf_m39706221_gshared
mtf:_Decimal_op_Implicit_m2971610317
Zb:invoke_viiiifiiiiif
K5a:__Z18RestoreRenderStateR20CameraRenderOldStateR17ShaderPassContext
qmf:_SynchronizedArrayListWrapper_get_Item_m3309425850
AWb:__Z18Transfer_BlittableI18StreamedBinaryReadILb1EELb1E5RectTIfEEvRK29SerializationCommandArgumentsR31RuntimeSerializationCommandInfo
zQb:__Z18Transfer_BlittableI24GenerateTypeTreeTransferLb0E11ColorRGBA32EvRK29SerializationCommandArgumentsR31RuntimeSerializationCommandInfo
xt:__ZNSt3__26vectorIN13AnimationClip10FloatCurveE13stl_allocatorIS2_L18MemLabelIdentifier25ELi16EEE6resizeEj
qqc:__Z21Object_CUSTOM_DestroyP12Il2CppObjectf
r1c:__ZN5physx6shdfnd8PoolBaseINS_2Sc10NPhaseCore16ClothListElementENS0_19ReflectionAllocatorIS4_EEE17releaseEmptySlabsEv
zpg:_GraphicRaycaster_get_ignoreReversedGraphics_m2757724367
Xxl:_emscripten_glDeleteBuffers__wrapper
V7g:_TlsServerCertificateRequest_ProcessAsSsl3_m3017921864
oBj:_Collision_t2876846408_marshal_pinvoke_back
b5d:__ZN5physx2Sc14ConstraintCore10breakApartEv
SDh:_GenericTypeParameterBuilder_GetHashCode_m867619899
O8i:__Z79RuntimeInvoker_Void_t1841601450_Int32_t2071877448_ParameterModifier_t1820634920PK10MethodInfoPvPS2_
l3k:__ZNSt3__26__treeINS_12basic_stringIcNS_11char_traitsIcEENS_9allocatorIcEEEENS_4lessIS6_EENS4_IS6_EEE16__construct_nodeIJRKS6_EEENS_10unique_ptrINS_11__tree_nodeIS6_PvEENS_22__tree_node_destructorINS4_ISH_EEEEEEDpOT_
iEg:_BinaryReader_ReadDecimal_m3164824427
tVh:_EqualityComparer_1__cctor_m3397254040_gshared
njl:__ZNKSt3__220__time_get_c_storageIcE3__XEv
CZi:__Z37RuntimeInvoker_ContentType_t859870085PK10MethodInfoPvPS2_
Rbe:__ZN5physx7Cooking20loadTriangleMeshDescERKNS_18PxTriangleMeshDescERNS_19TriangleMeshBuilderE
OYg:__ZThn4_N6il2cpp2vm13ComObjectBaseI34__Il2CppComDelegate_t3311706788CCW18Il2CppIInspectableNS0_7details6ComNilES5_S5_S5_S5_S5_S5_E14QueryInterfaceERK10Il2CppGuidPPv
xik:_TextGenerator_get_verts_m3124035267
pMg:_MonoType_CheckMethodSecurity_m4116906190
u4c:__ZN5physx9NpFactory21releaseConnectorArrayEPNS_16NpConnectorArrayE
Pkk:_Vector2_get_one_m3174311904
sW:__ZNSt3__26__treeINS_12__value_typeIN19CloudServiceHandler11ServiceTypeEPS2_EENS_19__map_value_compareIS3_S5_NS_4lessIS3_EELb1EEE13stl_allocatorIS5_L18MemLabelIdentifier85ELi16EEE7destroyEPNS_11__tree_nodeIS5_PvEE
fRd:__ZNK5physx2Gu29EPASupportMapPairRelativeImplINS0_9TriangleVENS0_4BoxVEE6getDirEv
T9e:_Array_Sort_TisVector2_t2243707579_m1307634946_gshared
mea:__ZN13RuntimeStaticI18BackgroundJobQueueE13StaticDestroyEPv
j5i:__Z37RuntimeInvoker_Enumerator_t1593300101PK10MethodInfoPvPS2_
rva:__ZN17PersistentManager22CheckInstanceIDsLoadedEPii
wDa:__ZN7ApiGLES17CopyBufferSubDataEjjlll
sGe:__ZN11UnityEngine15PlatformWrapper17GetCloudProjectIdEv
qz:__ZN7mecanim5human19MaskHasLeftFootGoalERKNS_6bitsetILj66EEE
lyk:__ZNSt3__26vectorIPK10Il2CppTypeNS_9allocatorIS3_EEE7reserveEj
gek:_U3CCreateWhereIteratorU3Ec__Iterator1D_1_Reset_m1773515612_gshared
XWh:_EqualityComparer_1_get_Default_m2134906921_gshared
$sg:_InputField_get_caretPosition_m1005871812
Afl:_wmemmove
wPh:_Dictionary_2__ctor_m3111963761_gshared
YU:__ZN11AudioModule26SetDefaultMicrophoneDriverEPv
Ltd:__ZNK5physx15NpActorTemplateINS_15PxParticleFluidEE22getClientBehaviorFlagsEv
Ndk:_AesManaged_CreateEncryptor_m1729287824
uxb:__ZNK14Texture2DArray26CanReuploadDataToGfxDeviceEv
y3a:__ZN17PrePassRenderLoop14RenderBasePassEP13RenderTextureRK14LightingLayersR13dynamic_arrayI16RenderObjectDataLj4EERbR10MinMaxAABB
fjb:__ZN17GlobalGameManager23VirtualRedirectTransferER17RemapPPtrTransfer
wqe:_sfnt_stream_close
Dog:_GraphicRegistry_RegisterGraphicForCanvas_m2284226562
mjf:_Char_System_IConvertible_ToInt16_m2741348777_AdjustorThunk
hil:__ZNKSt3__27num_getIwNS_19istreambuf_iteratorIwNS_11char_traitsIwEEEEE6do_getES4_S4_RNS_8ios_baseERjRPv
kjl:__ZNKSt3__220__time_get_c_storageIcE3__cEv
_ng:_FontData_get_verticalOverflow_m83665814
h4f:_ReadOnlyCollection_1_System_Collections_Generic_IListU3CTU3E_set_Item_m1547026160_gshared
_$h:__ZL61MarshalAsAttribute_t2900773360_CustomAttributesCacheGeneratorP21CustomAttributesCache
Oga:__ZN7Texture13SetFilterModeEi
LOb:__Z33BuildSerializationCommandQueueForI19StreamedBinaryWriteILb0EEEvRK34BuildSerializationCommandQueueArgsR32SerializationCommandQueueBuilderRP20AllowNameConversionsbPK18TransferField_Info
rhc:__Z46Register_UnityEngine_Application_get_isPlayingv
o2k:__ZN6il2cpp8metadata13GenericMethod9GetMethodEPK19Il2CppGenericMethod
jkb:__ZNSt3__26vectorIN4core12basic_stringIcNS1_20StringStorageDefaultIcEEEENS_9allocatorIS5_EEE7reserveEj
Gvf:_Convert_ToUInt16_m2130758075
whh:_X509BasicConstraintsExtension_Encode_m3505127076
ZVj:__ZN21InterfaceFuncInvoker1Ii20TimeSpan_t3430258949E6InvokeEjP11Il2CppClassPvS0_
Xwb:__ZN24GenerateTypeTreeTransfer8TransferI13dynamic_arrayI12SpriteVertexLj4EEEEvRT_PKc17TransferMetaFlags
mya:__ZN13GfxDeviceGLES11SetViewportERK5RectTIiE
erg:_Image_get_pixelsPerUnit_m4104195799
Clj:_Toggle_InternalToggle_m2323729210
Azf:_Decimal_System_IConvertible_ToInt64_m2504363272
qpc:__Z24Time_Get_Custom_PropTimev
Pb:invoke_vifiiii
tef:_Array_GetValue_m3182152438
oe:_emscripten_glDepthRange
rwh:_DESTransform_CipherFunct_m3559419566
R5i:__Z91RuntimeInvoker_Boolean_t3825574718_TouchScreenKeyboardTypeU26_t2194866306_Int32_t2071877448PK10MethodInfoPvPS2_
kPc:__ZN5physx2Gu24contactConvexHeightfieldERKNS0_13GeometryUnionES3_RKNS_11PxTransformES6_RKfRNS0_5CacheERNS0_13ContactBufferE
X5c:__ZN5physx6shdfnd5ArrayIPvNS0_19ReflectionAllocatorINS_2Cm5BlockIS2_Lj8EEEEEE15growAndPushBackERKS2_
Ygg:_StandaloneInputModule_get_repeatDelay_m3025279
VJj:_GUILayoutGroup_CalcWidth_m4107152934
Uth:_RuntimeFieldHandle_get_Value_m3963757144
JZb:__Z14resize_trimmedINSt3__26vectorIN9ShaderLab20SerializedSubProgram12UAVParameterENS0_9allocatorIS4_EEEEEvRT_j
Uoh:_SerializationInfo_AddValue_m1781549036
Ivk:__ZL25UnresolvedVirtualCall_214P12Il2CppObject18Color32_t874517518PK10MethodInfo
X4g:_TlsServerKeyExchange_verifySignature_m3641534563
l0f:_Collection_1_Clear_m445145071_gshared
Pjj:_Slider_FindSelectableOnLeft_m3136767885
UPi:__Z75RuntimeInvoker_Void_t1841601450_Il2CppObject_RuntimeFieldHandle_t2331729674PK10MethodInfoPvPS2_
NEa:__ZN4crndL20crnd_default_reallocEPvjPjbS0_
F1e:_Array_BinarySearch_TisInt32_t2071877448_m51233948_gshared
Ycc:__ZN7Texture11SetWrapModeEi
col:__ZNSt3__26locale5__imp7installINS_9money_putIwNS_19ostreambuf_iteratorIwNS_11char_traitsIwEEEEEEEEvPT_
hWd:__ZN5physx24PxsComputeAABBLocalSpaceERKNS_18PxcAABBDataDynamicERNS_9PxBounds3E
mdc:__ZN16PackedQuatVector9PackQuatsEP11Quaternionfi
F1i:__Z115RuntimeInvoker_Void_t1841601450_Rect_t3681755626_Il2CppObject_Int32_t2071877448_Int32_t2071877448_Int32_t2071877448PK10MethodInfoPvPS2_
bpc:__Z33Texture_CUSTOM_Internal_GetHeightP12Il2CppObject
svg:_LayoutGroup_get_preferredHeight_m3901163825
eoe:_UNITY_FT_Init_Class_ft_bitmap_glyph_class
gv:__ZN7mecanim9animation18ClipMuscleConstant8TransferI24GenerateTypeTreeTransferEEvRT_
Dlb:__ZN4PPtrI13RenderTextureE8TransferI18StreamedBinaryReadILb0EEEEvRT_
UIk:__ZN15dense_hashtableINSt3__24pairIK10KeyWrapperINS1_IPK9FieldInfoP11Il2CppClassEEEjEES9_17ReflectionMapHashIS8_EN14dense_hash_mapIS9_jSD_19ReflectionMapEqualsIS8_ENS0_9allocatorISB_EEE9SelectKeyESG_SI_E15insert_noresizeERKSB_
Ysf:_DateTime_AbsoluteDays_m3061694073
u6i:__Z56RuntimeInvoker_Boolean_t3825574718_LabelData_t3712112744PK10MethodInfoPvPS2_
txe:_UNITY_FT_Stream_GetChar
UWb:__Z18Transfer_BlittableI18StreamedBinaryReadILb1EELb1EdEvRK29SerializationCommandArgumentsR31RuntimeSerializationCommandInfo
ALh:_Enumerator_MoveNext_m435964161_AdjustorThunk
JLh:_Enumerator_System_Collections_IEnumerator_get_Current_m229223308_gshared
$gi:__ZL202U3CCreateWhereIteratorU3Ec__Iterator1D_1_t2523986802_CustomAttributesCacheGenerator_U3CCreateWhereIteratorU3Ec__Iterator1D_1_System_Collections_Generic_IEnumerableU3CTSourceU3E_GetEnumerator_m2392330777P21CustomAttributesCache
IOd:__ZN5physx6shdfnd8internal8HashBaseINS0_4PairIKNS_2Sq13PrunerPayloadEjEES5_NS0_4HashIS5_EENS1_11HashMapBaseIS5_jS9_NS0_9AllocatorEE6GetKeyESB_Lb1EE5eraseERS6_
fne:__ZNK19TextRenderingModule8TMGenGetERK11UTF16StringPN13TextRendering4FontE10TextAnchor13TextAlignmentfffbb11ColorRGBA32fii
A6d:__ZN5physx13GuMeshFactory16createConvexMeshERNS_13PxInputStreamE
dee:__ZN5physx6shdfnd8internal8HashBaseINS0_4PairIKPKcjEES5_NS0_4HashIS5_EENS1_11HashMapBaseIS5_jS9_NS_7profile26WrapperReflectionAllocatorIjEEE6GetKeyESD_Lb1EE6createERS6_Rb
b5h:__ZL55GCHandleType_t1970708122_CustomAttributesCacheGeneratorP21CustomAttributesCache
gEj:_Event_Init_m3901382626
EGj:_AnimationPlayableUtilities_SetInputsValidated_m2696856860
Ngb:__ZN10FileSystem12MountHandlerEP17FileSystemHandler
$lf:_FixedSizeArrayListWrapper_AddRange_m2071800418
Sea:__Z9InitInputv
TFa:__ZN4gles10SetTextureER15DeviceStateGLESj16TextureDimensionj19BuiltinSamplerState
qIf:_Enumerator_VerifyState_m2358705882_AdjustorThunk
NRb:__Z29Transfer_Blittable_ArrayFieldI24GenerateTypeTreeTransfer11ColorRGBA32EvRT_R9ArrayInfoRK23StaticTransferFieldInfo
y6d:__ZNK5physx13GuMeshFactory15getConvexMeshesEPPNS_12PxConvexMeshEjj
bgj:_Selectable_Navigate_m915280351
BZg:_AppDomain_getCurDomain_m591611373
Hcb:__ZN16MemoryFileSystem6DeleteER13FileEntryDatab
flk:_Vector3_get_normalized_m936072361
Ota:__ZL21BlitScaleStbImageImplRK14ImageReferenceRS_NS_10ColorSpaceE
_kd:__ZN5physx10NpMaterial17setStaticFrictionEf
Nbh:_TlsStream_set_Position_m378064217
mvk:__ZL25UnresolvedVirtualCall_192P12Il2CppObject26DateTimeOffset_t1362988906S1_PK10MethodInfo
zI:__ZN18StreamedBinaryReadILb0EE21TransferSTLStyleArrayI13dynamic_arrayIjLj4EEEEvRT_17TransferMetaFlags
WJc:__ZNSt3__26__sortIR31RayHitsByInverseDepthComparitorP12RaycastHit2DEEvT0_S5_T_
xFd:__ZNK5physx7NpScene19getFilterShaderDataEv
kNb:__Z29Transfer_Blittable_ArrayFieldI14SafeBinaryReadyEvRT_R9ArrayInfoRK23StaticTransferFieldInfo
Ptk:__ZL25UnresolvedVirtualCall_113P12Il2CppObjectiiiPK10MethodInfo
kS:__ZN20SoundChannelInstance15setChannelGroupEPN4FMOD12ChannelGroupE
agd:__ZN5physx2Sc19ShapeInstancePairLL26onPoseChangedWhileSleepingEv
yQe:_Evidence_Equals_m2325859915
pQd:__ZN5physx22PxcSweepCapsuleCapsuleERKNS_11PxsCCDShapeES2_PKNS_12PxsRigidBodyES5_RKNS_11PxTransformES8_S8_S8_fRNS_6PxVec3ESA_RNS_10PxcNpCacheERNS_18PxcNpThreadContextEf
v9h:__ZL93WindowsIdentity_t373339331_CustomAttributesCacheGenerator_WindowsIdentity_Dispose_m2649088337P21CustomAttributesCache
Xyh:_Default__ctor_m172834064
Jc:invoke_vifffii
tIb:__ZN20ArchiveStorageReader17MakeStorageUnusedEv
k6j:_Regex_IsMatch_m2159202025
nZc:__ZNK5physx3Cct17CapsuleController21getHalfHeightInternalEv
dPa:__ZNK25MultiBlocksMemoryFileData5CloneEv
O6k:_GC_add_ext_descriptor
yYc:__ZN5physx21PxQueryFilterCallbackD2Ev
wrg:_Image_CalculateLayoutInputHorizontal_m3275149860
mqh:_RemotingServices_GetMethodBaseFromName_m3271095947
rXi:__Z71RuntimeInvoker_TimeSpan_t3430258949_Double_t4078015681_Int64_t909078037PK10MethodInfoPvPS2_
iQa:__ZN17ArchiveFileSystem11CreateAsDirER13FileEntryData
C3c:__ZL30GeomOverlapCallback_CapsuleBoxRKN5physx10PxGeometryERKNS_11PxTransformES2_S5_PNS_2Gu12TriggerCacheE
wrl:dynCall_iiiiiiiiiiii
mWe:_ASCIIEncoding_GetBytes_m3617160053
PTj:_InternalEnumerator_1_MoveNext_m2289229080_AdjustorThunk
cOi:__Z72RuntimeInvoker_Boolean_t3825574718_Decimal_t724701077_Decimal_t724701077PK10MethodInfoPvPS2_
_3g:_CipherSuiteCollection_System_Collections_IList_RemoveAt_m143866082
q0j:_Context_get_HasGlobalDynamicSinks_m3205328884
yxa:__ZN22VertexDeclarationCacheD0Ev
apa:__ZN6prcoreL17RemapGenericFloatI16TexFormatRGFloat17TexFormatRGBAHalfEEvPKNS_9InnerInfoE
fhb:__ZNK21AssetBundleFileSystem8PositionERK13FileEntryData
IFj:_UnityEventBase_UnityEngine_ISerializationCallbackReceiver_OnBeforeSerialize_m1773826808
KKc:__ZN13dynamic_arrayI11Collision2DLj4EE9push_backERKS0_
h8:__ZN8Remapper23GetOrGenerateInstanceIDERK26SerializedObjectIdentifier
Lt:__ZN17AnimationCurveTplI8Vector3fEC2ERKS1_
YIg:_StreamWriter_Flush_m3426120024
oQa:__ZN17FileSystemHandler10AtomicMoveER13FileEntryDataS1_
bb:invoke_iiiiiifffiiifii
BGg:_MemoryStream__ctor_m1489366847
YQe:_SecurityElement_IsValidTag_m64902195
MLh:_Enumerator_System_Collections_IEnumerator_get_Current_m229223308_AdjustorThunk
XJh:_PropertyInfo_SetValue_m2961483868
FJj:_GUILayoutEntry_set_style_m70917293
lOf:_List_1_System_Collections_IList_Contains_m4193366963_gshared
Mmk:_UnityEvent_3_FindMethod_Impl_m1889846153_gshared
s3j:_DictionaryEnumerator_get_Value_m1915638953
uzh:_ConstructorInfo_Invoke_m2144827141
xjj:_Slider_set_onValueChanged_m1751815187
Vwb:__ZN6Sprite8TransferI24GenerateTypeTreeTransferEEvRT_
q9k:__ZThn4_N6il2cpp2vm13ComObjectBaseINS0_13ManagedObjectE18Il2CppIInspectableNS0_7details6ComNilES5_S5_S5_S5_S5_S5_E16GetManagedObjectEv
hqc:__Z48Register_UnityEngine_Transform_SetAsFirstSiblingv
D6i:__Z56RuntimeInvoker_Boolean_t3825574718_UriScheme_t1876590943PK10MethodInfoPvPS2_
dAb:__ZN7SubMesh8TransferI24GenerateTypeTreeTransferEEvRT_
_Ih:_MonoProperty_get_CanWrite_m2124922514
kOc:__ZN5physx3Cct10Controller6setPosERKNS_14PxExtendedVec3E
xda:__ZN13RuntimeStaticI13RendererSceneE13StaticDestroyEPv
rQc:__ZN5physx2GuL14testFaceNormalERKNS0_13PolygonalDataES3_PNS0_12SupportLocalES5_RKNS_6shdfnd3aos15PsMatTransformVESA_RKNS7_6FloatVERSB_RjRNS7_5Vec3VENS0_13FeatureStatusERSI_
l5i:__Z36RuntimeInvoker_Enumerator_t132208513PK10MethodInfoPvPS2_
P6i:__Z112RuntimeInvoker_Int32_t2071877448_Il2CppObject_Int32_t2071877448_Int32_t2071877448_Int32_t2071877448_Il2CppObjectPK10MethodInfoPvPS2_
Zel:_poll
nGg:_Stream_BeginRead_m1985960185
qpg:_Graphic_UnregisterDirtyVerticesCallback_m1526739224
VRg:__ZN16VirtFuncInvoker1IP21BigInteger_t925946152iE6InvokeEjPvi
Uv:__ZN7mecanim5human9HumanGoal8TransferI18StreamedBinaryReadILb0EEEEvRT_
yqi:__ZL88TweenRunner_1_t2584777480_CustomAttributesCacheGenerator_TweenRunner_1_Start_m2640577060P21CustomAttributesCache
n1g:_MD4Managed_GG_m1462438360
Plc:__Z46Mesh_CUSTOM_PrintErrorCantAccessMeshForIndicesP12Il2CppObject
$cc:__ZN9Transform23SetSiblingIndexInternalEib
Whj:_ScrollRect_get_minWidth_m3151814267
I3c:__ZL32GeomOverlapCallback_ConvexConvexRKN5physx10PxGeometryERKNS_11PxTransformES2_S5_PNS_2Gu12TriggerCacheE
Fog:_Graphic_get_canvasRenderer_m2902370808
vy:__ZN7mecanim5human12HumanPoseSubERNS0_9HumanPoseERKS1_S4_
$0g:_MD4_Create_m2582504069
Tqk:_HashSet_1_System_Collections_IEnumerable_GetEnumerator_m2498631708_gshared
fYk:__ZN6il2cpp8metadata15GenericMetadata15GetGenericClassEiPK17Il2CppGenericInst
Zgf:_Boolean_System_IConvertible_ToInt16_m977801621
ALb:__Z18Transfer_BlittableI14SafeBinaryReadLb0E10Matrix4x4fEvRK29SerializationCommandArgumentsR31RuntimeSerializationCommandInfo
dSa:__Z24GetFixedBehaviourManagerv
Zvf:_Convert_ToUInt64_m1691869628
yEk:__ZN6il2cpp2vm10ThreadPool4WaitEP17Il2CppAsyncResultPPv
Rcl:_vfprintf
Woh:_SerializationException__ctor_m1019897788
G$i:__Z67RuntimeInvoker_Playable_t3667545548_GenericMixerPlayable_t788733994PK10MethodInfoPvPS2_
nCb:__ZNSt3__26__sortIRNS_6__lessINS_12basic_stringIcNS_11char_traitsIcEENS_9allocatorIcEEEES7_EEPS7_EEvT0_SB_T_
Twj:_Debug_get_logger_m4173808038
fna:__ZL13SortTexByNameRKNSt3__24pairIN9ShaderLab16FastPropertyNameEN18UnityPropertySheet11UnityTexEnvEEES7_
l_a:__ZN20DynamicPropertySheetD0Ev
nab:__ZN14SafeBinaryRead17RegisterConverterEPKcS1_PFbPvRS_E
g3:__ZN35RegisterRuntimeInitializeAndCleanup8RegisterEPFvPvES2_iS0_
azd:__ZNK5physx19NpRigidBodyTemplateINS_14PxRigidDynamicEE17getRigidBodyFlagsEv
yRk:__ZNSt3__26vectorIN6il2cpp8metadata18GenericArrayMethodENS_9allocatorIS3_EEE7reserveEj
Is:__ZN7mecanim6memory16ChainedAllocator7ReserveEj
Off:_AsyncCallback__ctor_m3071689932
QRk:__ZNK15dense_hashtableINSt3__24pairIK10KeyWrapperIP11Il2CppClassES4_EES5_N6il2cpp8metadata16SZArrayClassHashEN14dense_hash_mapIS5_S4_SA_NS9_19SZArrayClassCompareENS0_9allocatorIS7_EEE9SelectKeyESC_SE_E13find_positionERS6_
Q9f:_ReadOnlyCollection_1_System_Collections_IList_Clear_m2600246370_gshared
bQd:__ZN5physx29EntityReportContainerCallback7onEventEjPj
jIc:__ZN4PPtrI17PhysicsMaterial2DE8TransferI18StreamedBinaryReadILb0EEEEvRT_
Cob:__ZN20SphericalHarmonicsL215AddAmbientLightERK10ColorRGBAf
tQd:__ZN5physx25PxcSweepConvexHeightfieldERKNS_11PxsCCDShapeES2_PKNS_12PxsRigidBodyES5_RKNS_11PxTransformES8_S8_S8_fRNS_6PxVec3ESA_RNS_10PxcNpCacheERNS_18PxcNpThreadContextEf
p1i:__Z41RuntimeInvoker_EventModifiers_t2690251474PK10MethodInfoPvPS2_
ETg:_DSAManaged_NormalizeArray_m2287089393
yUj:_InternalEnumerator_1_System_Collections_IEnumerator_get_Current_m2389982234_AdjustorThunk
nDb:__ZN4PPtrI17ProceduralTextureE8TransferI18StreamedBinaryReadILb1EEEEvRT_
sij:_Selectable_get_interactable_m1725029500
Exe:_UNITY_TT_Get_MM_Var
Z:invoke_diddi
Yeg:_ExecuteEvents__cctor_m288775360
Xye:__ZNK2UI6Canvas13GetRenderModeEv
auf:_Double_TryParseStringConstant_m2585405703
MJk:__ZN15dense_hashtableINSt3__24pairIK10KeyWrapperIPK10Il2CppTypeEjEES6_N6il2cpp8metadata14Il2CppTypeHashEN14dense_hash_mapIS6_jSB_NSA_17Il2CppTypeCompareENS0_9allocatorIS8_EEE9SelectKeyESD_SF_E5clearEv
RHh:_MonoField_get_Attributes_m4138688533
YG:__Z32TransferEnumWithNameForceIntSizeI14SafeBinaryRead28TransitionInterruptionSourceEvRT_RT0_PKc17TransferMetaFlags
NLb:__Z18Transfer_BlittableI14SafeBinaryReadLb0EiEvRK29SerializationCommandArgumentsR31RuntimeSerializationCommandInfo
mDk:__ZN6il2cpp2vm13MetadataCache30GetPropertyDefinitionFromIndexEi
yKe:_RijndaelTransform_Clear_m1652144089
eyd:__ZN5physx14NpRigidDynamic7releaseEv
fbf:_BaseInvokableCall_ThrowOnInvalidArg_TisIl2CppObject_m1349548392_gshared
ELi:__Z57RuntimeInvoker_Void_t1841601450_Il2CppObject_Il2CppObjectPK10MethodInfoPvPS2_
QNg:_NumberFormatter_get_IsZero_m1325357749
JMd:__ZN5physx6shdfnd8PoolBaseINS_21PxsBodyTransformVault13PxsBody2WorldENS0_19ReflectionAllocatorIS3_EEE15disposeElementsEv
pI:__ZN15SerializeTraitsI9OffsetPtrIN7mecanim9animation23BlendDirectDataConstantEEE8TransferI24GenerateTypeTreeTransferEEvRS4_RT_
qDf:_Enum_ToObject_m322320225
BOe:_X509Certificate__ctor_m3860837120
_oe:_gray_raster_reset
HIj:_GameObject_Internal_CreateGameObject_m3428198595
hjl:__ZNKSt3__220__time_get_c_storageIcE7__weeksEv
Nzj:_Camera_RaycastTry2D_m755036866
L9f:_ReadOnlyCollection_1_System_Collections_Generic_IListU3CTU3E_set_Item_m3663361643_gshared
tWc:__ZN5physx2Gu30computeCapsule_TriangleMeshMTDERKNS_22PxTriangleMeshGeometryERKNS_11PxTransformERNS0_8CapsuleVEffbRNS_10PxSweepHitE
feg:_EventTrigger_OnScroll_m626934407
UHb:__ZN30RuntimeInitializeOnLoadManager8TransferI18StreamedBinaryReadILb0EEEEvRT_
URh:_Dictionary_2__ctor_m1206668798_gshared
Jpe:_UNITY_tt_face_load_pclt
YIb:__ZN21ArchiveStorageCreator14StoreDirectoryEv
egc:__ZL34GetComponentsImplementationRecurseILb1ELi0ELi2EEbR10GameObjectbRK17CompareParametersRK39GetComponentsImplementation_ReturnValue
X9k:__ZN6il2cpp6icalls8mscorlib6System9Threading5Mutex20CreateMutex_internalEbP12Il2CppStringPb
tVi:__Z50RuntimeInvoker_Int16_t4041245914_Int16_t4041245914PK10MethodInfoPvPS2_
Hlf:_ArrayListWrapper_Remove_m1105489978
CZa:__ZNK6Camera18WorldToScreenPointERK8Vector3fPb
Rck:_X509Extension_get_Oid_m3620527052
zWd:__ZN5physx2Cm12DelegateTaskINS_10PxsContextEXadL_ZNS2_28mergeCMDiscreteUpdateResultsEPNS_10PxBaseTaskEEEE11runInternalEv
x4g:_TlsClientSettings_set_TargetHost_m3421266913
mbe:__ZN5physx19TriangleMeshBuilder10importMeshERKNS_18PxTriangleMeshDescERKNS_15PxCookingParamsEb
Xmc:__Z45Playable_CUSTOM_INTERNAL_CALL_IsValidInternalR9HPlayable
Dpi:__ZL109PointerEventData_t1599784723_CustomAttributesCacheGenerator_PointerEventData_get_eligibleForClick_m2497780621P21CustomAttributesCache
gcf:_Array_InternalArray__get_Item_TisILTokenInfo_t149559338_m2004750537_gshared
TPj:_InternalEnumerator_1_Dispose_m549215360_AdjustorThunk
ujf:_Convert_ToSByte_m2665932200
q7:__ZNSt3__227__insertion_sort_incompleteIRPFbRKN18AwakeFromLoadQueue4ItemES4_EPS2_EEbT0_S9_T_
fbk:_PKCS12_Encrypt_m2154408631
C2:__GLOBAL__sub_I_runtime_camera_culling_lump_cpp
bPh:_ValueCollection_System_Collections_ICollection_get_IsSynchronized_m45572582_gshared
n1e:_Array_InternalArray__IEnumerable_GetEnumerator_TisContactPoint2D_t3659330976_m478005999_gshared
cej:_Navigation_Equals_m4214630671_AdjustorThunk
t6f:_ReadOnlyCollection_1_System_Collections_Generic_IListU3CTU3E_set_Item_m257196015_gshared
frd:__ZN5physx6shdfnd5ArrayINS_18PxClothFabricPhaseENS0_19ReflectionAllocatorIS2_EEE8recreateEj
lsb:__ZN26EnlightenSystemInformation8TransferI14SafeBinaryReadEEvRT_
Tbf:_Array_InternalArray__get_Item_TisLink_t2723257478_m2281261655_gshared
IGd:__ZN5physx2Sq17SceneQueryManager11shiftOriginERKNS_6PxVec3E
xUc:__ZN5physx2Gu16sweepBoxTriangleERKNS_10PxTriangleERKNS_9PxBounds3ERKNS_6PxVec3ES9_RS7_SA_Rf
FR:__ZN4PPtrI15AudioMixerGroupE8TransferI18StreamedBinaryReadILb1EEEEvRT_
L7j:_ExpressionAssertion_IsComplex_m783019628
nMh:_ShimEnumerator_MoveNext_m2943029388_gshared
zof:_Hashtable__ctor_m2702360557
ai:_utime
Ybe:__ZN5physx10writeChunkEaaaaRNS_14PxOutputStreamE
Exg:_DateTimeFormatInfo_get_RawAbbreviatedDayNames_m3998113647
sUh:_DefaultComparer_GetHashCode_m2596628120_gshared
Z6k:_GC_call_with_alloc_lock
ROe:__ZN16VirtFuncInvoker0IP8String_tE6InvokeEjPv
tJk:__ZN6il2cpp2gc19AppendOnlyGCHashMapIPK10Il2CppTypeP20Il2CppReflectionTypeNS_8metadata14Il2CppTypeHashENS7_17Il2CppTypeCompareEE3AddERKS4_S6_
N$g:_PrimalityTest_Invoke_m4058801829
aqh:_RemotingConfiguration_SetCustomErrorsMode_m1844153208
eo:FUNCTION_TABLE_viiiiii
Thd:__ZN5physx2Sc9RigidCore13onShapeChangeERNS0_9ShapeCoreENS_7PxFlagsINS0_21ShapeChangeNotifyFlag4EnumEjEENS4_INS_11PxShapeFlag4EnumEhEE
UFf:_CultureInfo_GetFormat_m3560116485
IA:__ZN7mecanim9animation22DestroyAvatarWorkspaceEPNS0_15AvatarWorkspaceERNS_6memory9AllocatorE
YJi:_ScriptableObject_CreateInstance_m3271154163
Rme:__ZNSt3__26vectorI8UnityStr13stl_allocatorIS1_L18MemLabelIdentifier34ELi16EEE12__move_rangeEPS1_S6_S6_
Vkh:_FactoryCache__ctor_m254400436
Evd:__ZN5physx6shdfnd5ArrayIPvNS0_15InlineAllocatorILj256ENS0_19ReflectionAllocatorINS_2Sc19ParticlePacketShapeEEEEEE15growAndPushBackERKS2_
YSd:__ZN5physx17solveContactBlockEPKNS_23PxcSolverConstraintDescEjRNS_16PxcSolverContextE
fce:__ZN5physx6shdfnd10FoundationD2Ev
m3e:_Array_InternalArray__IndexOf_TisResourceCacheItem_t333236149_m761772858_gshared
Trc:__ZNSt3__210__list_impIN10GUIManager12SortedScriptE11memory_poolIS2_EE5clearEv
kci:__ZL76Convert_t2607082565_CustomAttributesCacheGenerator_Convert_ToInt64_m44696721P21CustomAttributesCache
xqh:_TrackingServices__cctor_m3639412334
uka:__ZN9ShaderLab11shaderprops9GetVectorEPK19ShaderPropertySheetS3_NS_16FastPropertyNameERNS0_16PropertyLocationE
tuc:__Z32GUIStyle_Set_Custom_PropRichTextP12Il2CppObjecth
QE:__ZN7mecanim9animation29MotionOutputGetDeltaTransformEPKNS0_12MotionOutputE
Yja:__ZNSt3__26__treeINS_12__value_typeI4PPtrI13RenderTextureEN19RenderBufferManager23RenderTextureParametersEEENS_19__map_value_compareIS4_S7_NS_4lessIS4_EELb1EEE11memory_poolIS7_EE5eraseENS_21__tree_const_iteratorIS7_PNS_11__tree_nodeIS7_PvEEiEE
iQe:_StrongNamePublicKeyBlob_Equals_m2407250401
nPh:_ValueCollection_System_Collections_IEnumerable_GetEnumerator_m1773104428_gshared
djb:__ZN17GlobalGameManager23VirtualRedirectTransferER19StreamedBinaryWriteILb0EE
CDc:__ZN24b2ChainAndCapsuleContact8EvaluateEP10b2ManifoldRK11b2TransformS4_
WK:__ZN8Animator14OnAddComponentEPN5Unity9ComponentE
nVf:_List_1_CheckMatch_m1184924052_gshared
Fpc:__Z43Transform_CUSTOM_INTERNAL_get_localRotationP12Il2CppObjectP11Quaternionf
eNd:__ZN5physx2Sc10NPhaseCoreD2Ev
F5c:__ZN5physx2Sc7BodySim18onConstraintDetachEv
Zik:_Touch_get_fingerId_m4109475843_AdjustorThunk
bwl:_glGetShaderInfoLog__wrapper
Di:_emscripten_glGetTexParameteriv
DFd:__ZN5physx7NpScene8simulateEfPNS_10PxBaseTaskEPvjb
ZNf:_List_1_ToArray_m3752387798_gshared
iEd:__ZThn8_N5physx2Sc24ElementInteractionMarker10onActivateEj
j2g:_RSAManaged_ImportParameters_m3060955884
wXg:_DeriveBytes__ctor_m3089550878
zNg:_NotImplementedException__ctor_m1305569814
ZZb:__ZN9ShaderLab20SerializedSubProgram14ConstantBufferaSERKS1_
G_j:_ChannelData_CopyFrom_m4049054607
N3b:__Z13RegisterClassI4MeshEvv
Yoi:__ZL94AxisEventData_t1524870173_CustomAttributesCacheGenerator_AxisEventData_get_moveDir_m3968662359P21CustomAttributesCache
n2e:_Array_FindLastIndex_TisIl2CppObject_m869210470_gshared
fpb:__ZN8PlayableD0Ev
Yla:__ZNSt3__24pairIK8UnityStrS1_EC2ERKS3_
w$i:__Z56RuntimeInvoker_Int32_t2071877448_PlayableU26_t3233213460PK10MethodInfoPvPS2_
bO:__ZN12AudioManager8TransferI19StreamedBinaryWriteILb0EEEEvRT_
BF:__ZN4PPtrI25RuntimeAnimatorControllerE8TransferI18StreamedBinaryReadILb1EEEEvRT_
UGg:_WriteDelegate_Invoke_m2103848735
YOf:_List_1_get_Capacity_m4262042666_gshared
iqk:_GenericEqualityComparer_1_GetHashCode_m1950634276_gshared
pXb:__ZN18StreamedBinaryReadILb1EE21TransferSTLStyleArrayI13dynamic_arrayI11ColorRGBA32Lj4EEEEvRT_17TransferMetaFlags
WIb:__ZNSt3__26__treeINS_12__value_typeINS_12basic_stringIcNS_11char_traitsIcEENS_9allocatorIcEEEEjEENS_19__map_value_compareIS7_S8_NS_4lessIS7_EELb1EEE13stl_allocatorIS8_L18MemLabelIdentifier54ELi16EEE12__find_equalIS7_EERPNS_16__tree_node_baseIPvEESM_RKT_
T_h:__ZL72Il2CppArray_CustomAttributesCacheGenerator_Array_LastIndexOf_m4096535198P21CustomAttributesCache
wNh:_Transform_1_EndInvoke_m687617772_gshared
T8i:__Z66RuntimeInvoker_Void_t1841601450_Int32_t2071877448_Mark_t2724874473PK10MethodInfoPvPS2_
gdk:_Locale_GetText_m512920887
N7b:__ZNK32RendererMaterialAnimationBinding12GetPPtrValueERKN11UnityEngine9Animation10BoundCurveE
PTb:__Z18Transfer_BlittableI18StreamedBinaryReadILb0EELb0E8Vector2fEvRK29SerializationCommandArgumentsR31RuntimeSerializationCommandInfo
Hed:__ZN5physx18NpArticulationLink10clearForceENS_11PxForceMode4EnumE
Kph:_RemotingConfiguration_get_ProcessId_m3870172209
hRc:__ZN5physx2Gu30distanceSegmentTriangleSquaredERKNS_6PxVec3ES3_S3_S3_S3_PfS4_S4_
DIc:__ZN16CircleCollider2D10SmartResetEv
HBe:__ZN2UI11CanvasGroup12CleanupClassEv
ezg:_SortKey_ToString_m2406913228
h1:__ZN22LocalFileSystemHandler9MakeLocalER13FileEntryDatab
s3k:__ZN6il2cpp2vm8Profiler10AllocationEP12Il2CppObjectP11Il2CppClass
htf:_Convert_ToDateTime_m1020507389
clg:_ColorTween_AddOnChangedCallback_m3190875685
LTk:__ZN13dynamic_arrayIP12Il2CppObjectLj4EE10reallocateEPS1_j
MBb:__ZN14SpriteRenderer21ReleaseGeometryJobMemEP25DynamicVBOGeometryJobData
Bme:__ZNSt3__23mapIN20TextRenderingPrivate7FontRefENS1_6OSFontENS_4lessIS2_EENS_9allocatorINS_4pairIKS2_S3_EEEEEixERS8_
LEg:_Path_IsPathRooted_m1347207448
Nrh:_ObjectManager_RegisterObjectInternal_m879109503
RZe:_Array_get_swapper_TisVector4_t2243707581_m97441823_gshared
hpd:__ZNK5physx15NpActorTemplateINS_7PxClothEE12getAggregateEv
tva:__ZNSt3__26__sortIRNS_4lessIiEEPiEEvT0_S5_T_
Eje:__ZN14SafeBinaryRead21TransferSTLStyleArrayI10vector_mapINSt3__24pairIttEEfN20TextRenderingPrivate8FontImpl14KerningCompareENS2_9allocatorINS3_IS4_fEEEEEEEvRT_17TransferMetaFlags
h4b:__Z13RegisterClassI15QualitySettingsEvv
M2k:__ZN6il2cpp2vm6String21InitializeEmptyStringEP11Il2CppClass
n3a:__ZN25DeferredRenderLoopScratchD0Ev
ry:__ZN7mecanim9animation17EvaluateHumanPoseERKNS0_18ClipMuscleConstantERKNS0_15ClipMuscleInputEPKfRKNS0_12MotionOutputERNS_5human9HumanPoseE
lai:__ZL90UTF7Encoding_t741406939_CustomAttributesCacheGenerator_UTF7Encoding_GetHashCode_m359766848P21CustomAttributesCache
COi:__Z52RuntimeInvoker_Decimal_t724701077_Single_t2076509932PK10MethodInfoPvPS2_
yPd:__ZNK5physx2Cm12DelegateTaskINS_13PxsCCDContextEXadL_ZNS2_14postCCDAdvanceEPNS_10PxBaseTaskEEEE7getNameEv
e1a:__ZL13RenderCastersiRK8Vector3fS1_RK13ShadowJobDataR17ShaderPassContextRKNSt3__26vectorI16ShadowCasterData13stl_allocatorIS9_L18MemLabelIdentifier2ELi16EEEERKNS8_I20ShadowCasterPartDataSA_ISG_LSB_2ELi16EEEERK15RenderNodeQueueb
Mgi:__ZL62SecurityProtocolType_t155967584_CustomAttributesCacheGeneratorP21CustomAttributesCache
EYa:__ZNSt3__227__insertion_sort_incompleteIRPFbP10GUIElementS2_EPS2_EEbT0_S7_T_
yhh:_X509BasicConstraintsExtension_get_HasPathLengthConstraint_m3788532759
Hka:__ZN22CreateGpuProgramOutputD2Ev
Q1e:__ZN21InterfaceFuncInvoker1Ii38CustomAttributeNamedArgument_t94157543E6InvokeEjP11Il2CppClassPvS0_
n_c:__ZNK5physx3Cct15ObstacleContext14getNbObstaclesEv
dTb:__Z18Transfer_BlittableI19StreamedBinaryWriteILb0EELb1EsEvRK29SerializationCommandArgumentsR31RuntimeSerializationCommandInfo
DKk:__ZNK15dense_hashtableINSt3__24pairIK10KeyWrapperINS1_IPK10MethodInfoP11Il2CppClassEEEjEES9_17ReflectionMapHashIS8_EN14dense_hash_mapIS9_jSD_19ReflectionMapEqualsIS8_ENS0_9allocatorISB_EEE9SelectKeyESG_SI_E12test_deletedERK24dense_hashtable_iteratorISB_S9_SD_SK_SG_SI_E
_Le:_RSACryptoServiceProvider_EncryptValue_m802714447
XUk:__ZN6il2cpp6icalls8mscorlib6System2IO6MonoIO9SetLengthE12Il2CppIntPtrxPi
Y8d:__ZN5physx6shdfnd8PoolBaseINS_11NpAggregateENS0_19ReflectionAllocatorIS2_EEE12allocateSlabEv
Jbi:__ZL76Convert_t2607082565_CustomAttributesCacheGenerator_Convert_ToByte_m932798552P21CustomAttributesCache
Pxd:__ZN5physx16NpParticleSystem23setParticleReadDataFlagENS_22PxParticleReadDataFlag4EnumEb
hH:__ZN7mecanim9animation23BlendDirectDataConstant8TransferI14SafeBinaryReadEEvRT_
Qok:_MusicDontDestroy_Awake_m2983462514
UMc:__ZZN11Rigidbody2D15InitializeClassEvEN35FunctorImpl_200kAnimatorMoveBuiltin4CallEPviR11MessageData
ywd:__ZN5physx7NpScene26removeFromParticleBaseListERNS_14PxParticleBaseE
jwg:_DateTimeFormatInfo_GetInstance_m3133223810
b$g:_ModulusRing_BarrettReduction_m2802101099
fQi:__Z57RuntimeInvoker_ExtenderType_t1556892101_Int32_t2071877448PK10MethodInfoPvPS2_
Prd:__ZN5physx2Sc9ClothCore23setSelfCollisionIndicesEPKjj
bNa:__ZN12HandlerChain4OpenER13FileEntryData14FilePermission16FileAutoBehavior
lcj:__Z76RuntimeInvoker_Il2CppObject_UILineInfo_t3621277874_Il2CppObject_Il2CppObjectPK10MethodInfoPvPS2_
fHh:_MonoMethodInfo_GetParametersInfo_m3456861922
Iaj:__Z37RuntimeInvoker_UILineInfo_t3621277874PK10MethodInfoPvPS2_
Fyk:__ZN15dense_hashtableINSt3__24pairIK10KeyWrapperIPK19Il2CppGenericMethodEPK26Il2CppGenericMethodIndicesEES6_N6il2cpp8metadata23Il2CppGenericMethodHashEN14dense_hash_mapIS6_SA_SE_NSD_26Il2CppGenericMethodCompareENS0_9allocatorISB_EEE9SelectKeyESG_SI_E15set_deleted_keyERKSB_
haa:__ZN14FileCacherReadD2Ev
uMe:_RSAPKCS1SignatureDeformatter_VerifySignature_m1825067195
hjc:__Z50Register_UnityEngine_CullingGroup_FinalizerFailurev
JGf:_KeyValuePair_2_ToString_m2613351884_gshared
Lqa:__ZN27UnloadUnusedAssetsOperationD0Ev
Ulb:__ZN6Camera15ThreadedCleanupEv
c_:__ZN9JSONWrite8TransferI8UnityStrEEvRT_PKc17TransferMetaFlags
UA:__ZN26AnimatorControllerPlayable6MemoryD2Ev
yIe:__ZN13RuntimeStaticINSt3__26vectorIjNS0_9allocatorIjEEEEE13StaticDestroyEPv
Wqi:__ZL69ColorBlock_t2652774230_CustomAttributesCacheGenerator_m_DisabledColorP21CustomAttributesCache
h3g:_CipherSuite_get_Code_m3902213587
hfj:_Scrollbar__ctor_m2244981801
TUk:__ZN6il2cpp6icalls8mscorlib6System2IO6MonoIO9GetLengthE12Il2CppIntPtrPi
dth:_ObjectRecord_get_HasPendingFixups_m670959802
MQh:_Dictionary_2_Resize_m2807616086_gshared
YPd:__ZN5physx10PxsCCDPair12updateShapesEv
ZMe:_SHA256Managed_HashCore_m4111458495
KFf:_CultureInfo_get_CompareInfo_m3085280862
bth:_ObjectManager_RecordDelayedFixup_m1895730844
Sef:_ArrayTypeMismatchException__ctor_m1898555879
jRf:_List_1_System_Collections_IList_get_IsFixedSize_m3522184224_gshared
$L:__ZN9AudioClip23VirtualRedirectTransferER18StreamedBinaryReadILb0EE
C5g:_ClientSessionInfo_CheckDisposed_m1394638186
gvh:_SByte_Parse_m2544167007
pSa:__ZNSt3__26vectorIPN9ShaderLab9SubShaderENS_9allocatorIS3_EEE21__push_back_slow_pathIKS3_EEvRT_
rBf:_StackFrame_GetILOffset_m115192054
gfb:__ZN24GenerateTypeTreeTransfer8TransferIN11AssetBundle9AssetInfoEEEvRT_PKc17TransferMetaFlags
nsd:__ZN5physx2Sc9ClothCore22removeCollisionCapsuleEj
vuh:_RuntimeTypeHandle_GetHashCode_m3697629454_AdjustorThunk
PQg:_BigInteger__ctor_m2945783161
pzb:__Z14resize_trimmedINSt3__26vectorIh13stl_allocatorIhL18MemLabelIdentifier14ELi16EEEEEvRT_j
S6h:__ZL96ProxyAttribute_t4031752430_CustomAttributesCacheGenerator_ProxyAttribute_IsContextOK_m2391079277P21CustomAttributesCache
Wzg:_IndexOutOfRangeException__ctor_m3497760912
N6c:__ZN5physx16PxsIslandManager25setArticulationLinkHandleEjPvRKNS_20PxsIslandManagerHookIjLj4294967295EEE
t8f:_ReadOnlyCollection_1_CopyTo_m1652036789_gshared
$j:_glCopyTexSubImage2D
Aph:_RealProxy_InternalGetTransparentProxy_m3415358600
W7b:__ZNK24RendererAnimationBinding13GetFloatValueERKN11UnityEngine9Animation10BoundCurveE
J1c:__ZN5physx2Sc10NPhaseCore39pool_deleteParticleElementRbElementPairEPNS0_35ParticleElementRbElementInteractionEjj
_Al:_glActiveTexture__wrapper
YXf:_Collection_1_Insert_m3594407958_gshared
YTa:_UNITY_png_write_zTXt
a0:__ZN18ScreenManagerWebGL13SetShowCursorEb
v3k:__ZN6il2cpp6icalls8mscorlib6System7Convert24InternalFromBase64StringEP12Il2CppStringb
pRa:__ZZ23InitPlayerLoopCallbacksvEN37EarlyUpdateProcessMouseInWindowstruct7ForwardEv
Zkj:_Text_get_preferredWidth_m3352156860
uyh:_AssemblyCompanyAttribute__ctor_m1217508649
KBe:__ZN2UI13CanvasManager14GetRenderOrderEPKNS_6CanvasE
Cgd:__ZN5physx6shdfnd5ArrayIPNS_3Scb5ShapeENS0_15InlineAllocatorILj16ENS0_19ReflectionAllocatorIS4_EEEEE15growAndPushBackERKS4_
yLb:__Z18Transfer_BlittableI14SafeBinaryReadLb0E5RectTIfEEvRK29SerializationCommandArgumentsR31RuntimeSerializationCommandInfo
OAa:__ZN9GfxDevice18InsertCustomMarkerEi
$7f:_ReadOnlyCollection_1_System_Collections_Generic_IListU3CTU3E_RemoveAt_m878653284_gshared
pwg:_DateTimeFormatInfo_GetFormat_m3676195179
eCa:__ZN14GfxContextGLES14GetFramebufferEv
myl:_emscripten_glGenVertexArrays__wrapper
F3b:__ZN11GameManager7PRODUCEE18MemLabelIdentifier18ObjectCreationMode
m$i:__Z36RuntimeInvoker_HideFlags_t1434274199PK10MethodInfoPvPS2_
Rna:__ZN6prcoreL21CreateRemapAnyBlitterE13TextureFormatS0_
Obl:__ZN6il2cpp2os5Event4WaitEjb
kec:__ZN17AnimationCurveTplIfE16StripInvalidKeysEv
h4e:_Array_InternalArray__ICollection_Add_TisKeyValuePair_2_t3716250094_m2381539361_gshared
gYg:_X509Extension_WriteLine_m2850991173
CAe:__ZNK2UI6Canvas17GetSortingLayerIDEv
MZh:__ZL40UIntPtr_t_CustomAttributesCacheGeneratorP21CustomAttributesCache
UJc:__ZN14Raycast2DQuery8RunQueryEb
w9b:__Z13RegisterClassI17GlobalGameManagerEvv
Wui:__ZL70GridLayoutGroup_t1515633077_CustomAttributesCacheGenerator_m_StartAxisP21CustomAttributesCache
WXk:__ZNK15dense_hashtableI10KeyWrapperIP18Il2CppGenericClassES3_N6il2cpp8metadata22Il2CppGenericClassHashEN14dense_hash_setIS3_S6_NS5_25Il2CppGenericClassCompareENSt3__29allocatorIS3_EEE8IdentityES8_SB_E3endEv
m$e:_Array_InternalArray__ICollection_Remove_TisInt64_t909078037_m2653583130_gshared
enj:_Thread_get_ExecutionContext_m922067206
fY:__ZN11UnityEngine15CloudWebService13WWWRestClient18GetEditableHeadersEv
m5g:_RecordProtocol_get_Context_m2688493529
Pla:__ZN4PPtrI7TextureE8TransferI14SafeBinaryReadEEvRT_
t$d:__ZN5physx2Sc8ClothSim16addCollisionMeshEPKNS0_8ShapeSimE
l1j:_SynchronizedClientContextSink__ctor_m978504596
Ngj:_ScrollRect_get_viewport_m3177057249
Zn:FUNCTION_TABLE_iiiiiiiiiiiiii
w4d:__ZN5physx6shdfnd5ArrayIPKNS_10PxsCCDBodyENS0_19ReflectionAllocatorIS4_EEE8recreateEj
fKa:__ZN14DrawBufferGLESI12VertexBuffer27VertexBufferUsageMapperGLESED2Ev
wgd:__ZN5physx6shdfnd4sortINS_2Cm19PreallocatingRegionENS0_4LessIS3_EENS0_19ReflectionAllocatorIS3_EEEEvPT_jRKT0_RKT1_j
AGe:__ZN19UnityConnectService18OnPlayerQuitStaticEPS_
A4i:__Z35RuntimeInvoker_ScaleMode_t987318053PK10MethodInfoPvPS2_
zqe:_UNITY_tt_get_cmap_info
QWe:_DecoderExceptionFallback_GetHashCode_m2972426052
Q7a:__ZN16ReflectionProbes8ScheduleEN18ReflectionProbeJob7JobTypeEP15ReflectionProbei
gaf:_Array_swap_TisCustomAttributeTypedArgument_t1498197914_m885124357_gshared
o1f:_Collection_1_IsFixedSize_m3675221982_gshared
tci:__ZL77Convert_t2607082565_CustomAttributesCacheGenerator_Convert_ToSByte_m883113940P21CustomAttributesCache
tJf:_Enumerator_MoveNext_m3293920409_AdjustorThunk
q3a:__ZN14qsort_internal31_FindAndMovePivotToLastPositionIP16RenderObjectDatai26RenderDeferredObjectSorterEEvT_S4_T0_T1_
Yyd:__ZN5physx19NpRigidBodyTemplateINS_14PxRigidDynamicEE20setRigidDynamicFlagsENS_7PxFlagsINS_15PxRigidBodyFlag4EnumEhEE
GDh:_GenericTypeParameterBuilder_get_DeclaringType_m1652924692
NWj:_Comparer_1__cctor_m3112251759_gshared
Iti:__ZL73ScrollRect_t1199013257_CustomAttributesCacheGenerator_m_VerticalScrollbarP21CustomAttributesCache
Igh:_X509KeyUsageExtension_ToString_m1992050580
jme:_UNITY_FT_GlyphLoader_Done
R6f:_ReadOnlyCollection_1_System_Collections_Generic_ICollectionU3CTU3E_Add_m2975080319_gshared
p_j:_ConstructionCall__ctor_m1143766850
_Ai:_GUIStyleState_Init_m2434147050
OWj:_Comparer_1_System_Collections_IComparer_Compare_m3203078743_gshared
Hxd:__ZN5physx22NpParticleBaseTemplateINS_16PxParticleSystemENS_16NpParticleSystemEE20setMaxMotionDistanceEf
s6g:_Context_get_RandomSC_m1687420621
ngb:__ZN5Cache10AddToCacheERKNSt3__212basic_stringIcNS0_11char_traitsIcEENS0_9allocatorIcEEEEi
Yli:__ZL67GUISkin_t1436893342_CustomAttributesCacheGenerator_m_verticalSliderP21CustomAttributesCache
l8a:__Z18SkinGenericMathLibILi2ELb1ELb0EEvR12SkinMeshInfo
FTd:__ZN5physx18ComputeSortedListsEPNS_2Cm10BitMapBaseINS_6shdfnd9AllocatorEEEjjPKjPPNS_8SapBox1DES7_PjSB_jRKNS_2Gu4AxesESB_RjSB_SG_RbSH_
nre:_tt_cmap14_char_var_index
Dzj:_Camera_INTERNAL_CALL_ScreenPointToRay_m2752248646
sXi:__Z77RuntimeInvoker_TimeSpan_t3430258949_TimeSpan_t3430258949_TimeSpan_t3430258949PK10MethodInfoPvPS2_
Mse:_psh_globals_new
WJa:__ZN13dynamic_arrayIN16GeometryJobTasks15GeometryJobTaskELj4EE18resize_initializedEjRKS1_12ResizePolicy
Tgg:_StandaloneInputModule_set_allowActivationOnMobileDevice_m2631121618
stf:_Decimal_stripStyles_m294582157
kAj:_Canvas_remove_willRenderCanvases_m1070419298
r_i:__Z73RuntimeInvoker_Single_t2076509932_Vector3_t2243707580_Vector3_t2243707580PK10MethodInfoPvPS2_
Jxa:__ZN9GfxDevice20SetMaxBufferedFramesEi
ROf:_List_1_RemoveAll_m4125997475_gshared
XGc:__ZN10Collider2D19WakeAllBodyContactsEv
TQ:__ZN24AudioScriptBufferManagerD2Ev
Orl:dynCall_vdd
pNk:__ZN14dense_hash_mapI10KeyWrapperINSt3__24pairIPK11Il2CppImageP11Il2CppClassEEEj17ReflectionMapHashIS8_E19ReflectionMapEqualsIS8_ENS1_9allocatorINS2_IKS9_jEEEEE13set_empty_keyERSF_
wyc:__ZN8JSONRead21TransferSTLStyleArrayINSt3__26vectorINS1_12basic_stringIcNS1_11char_traitsIcEE13stl_allocatorIcL18MemLabelIdentifier1ELi16EEEES6_IS9_LS7_1ELi16EEEEEEvRT_S7_17TransferMetaFlags
fBe:__ZN2UIL17UnloadAllCanvasesEv
D_f:_Collection_1_System_Collections_IList_Insert_m3083278457_gshared
Ibb:__Z23ConvertIntegerToTypePtrIsEbPvR14SafeBinaryRead
B$i:__Z71RuntimeInvoker_Boolean_t3825574718_Int32_t2071877448_Single_t2076509932PK10MethodInfoPvPS2_
REc:__ZN12b2MouseJoint11ShiftOriginERK6b2Vec2
Ish:_ObjectReader_ReadObjectGraph_m1994105549
TWh:_EqualityComparer_1__ctor_m99476293_gshared
Lbd:__ZNK5physx14NpArticulation17releaseDriveCacheERNS_24PxArticulationDriveCacheE
o$g:_BigInteger_Incr2_m505983313
vyj:_PCMReaderCallback_BeginInvoke_m3119095492
Dkf:_ArrayList_get_Count_m523955479
Z6i:__Z85RuntimeInvoker_Int32_t2071877448_Vector3_t2243707580_Vector3_t2243707580_Il2CppObjectPK10MethodInfoPvPS2_
dmf:_FixedSizeArrayListWrapper_Remove_m1359458911
Zna:__ZN6prcoreL29inner_stretch_rgb565_bilinearEPKNS_9InnerInfoE
Qrd:__ZNK5physx2Sc9ClothCore25getSelfCollisionStiffnessEv
tdg:_EventSystem_get_current_m319019811
lkj:_Text_get_mainTexture_m813502234
HXi:__Z47RuntimeInvoker_SecurityProtocolType_t3099771628PK10MethodInfoPvPS2_
v2a:__ZNK14RenderSettings19GetFlatAmbientColorEv
L7a:__ZN6prcoreL10inner_flipILj4EEEvPhS1_j
sFb:__ZN18StreamedBinaryReadILb0EE21TransferSTLStyleArrayI10vector_mapIPKN5Unity4TypeE7Hash128NSt3__24lessIS6_EENS8_9allocatorINS8_4pairIS6_S7_EEEEEEEvRT_17TransferMetaFlags
IB:__ZNK27StateMachineBehaviourPlayer15IsSenderEnabledEv
KBb:__Z19CalculateVertexSizejRK20VertexChannelsLayoutPj
KXf:_Collection_1_System_Collections_ICollection_get_IsSynchronized_m1924133708_gshared
hVe:_String_Concat_m56707527
cqc:__Z40Register_UnityEngine_Transform_SetParentv
Cyj:_AudioConfigurationChangeHandler_Invoke_m635374412
lah:_SslClientStream_get_HaveRemoteValidation2Callback_m3555576758
Axb:__ZN14Texture2DArray17UploadToGfxDeviceEv
v7f:_ReadOnlyCollection_1_System_Collections_Generic_IListU3CTU3E_Insert_m4216310986_gshared
F3f:_ReadOnlyCollection_1_System_Collections_Generic_IListU3CTU3E_set_Item_m1532495847_gshared
AH:__ZN15SerializeTraitsINSt3__24pairI8StateKey10StateRangeEEE8TransferI18StreamedBinaryReadILb1EEEEvRS4_RT_
OP:__Z14FMODMemoryFreePvjPKc
LLj:_InternalEnumerator_1_System_Collections_IEnumerator_Reset_m3731327620_AdjustorThunk
Rtb:__ZThn28_N8RendererD0Ev
Eqe:_tt_cmap0_validate
Ppi:__ZL104PointerEventData_t1599784723_CustomAttributesCacheGenerator_PointerEventData_get_worldNormal_m1704987468P21CustomAttributesCache
dmk:_YieldInstruction_t3462875981_marshal_pinvoke_cleanup
sQe:_Evidence_get_IsSynchronized_m1427392003
due:_cf2_glyphpath_moveTo
vKi:_SharedBetweenAnimatorsAttribute__ctor_m1221241062
AJd:__ZN5physx3Scb4Body9syncStateEv
zHe:__ZN13RuntimeStaticI19UnityConnectServiceE16StaticInitializeEPv
hig:_AnimationTriggers_set_disabledTrigger_m609579531
k2h:__ZL47File_t1930543328_CustomAttributesCacheGeneratorP21CustomAttributesCache
iyf:_DateTimeOffset__ctor_m1796624924
Rwi:_GUILayoutUtility_get_spaceStyle_m1918520192
mWd:__ZN5physx20SingleAABBUpdateTaskD0Ev
uNk:__ZN15dense_hashtableINSt3__24pairIK10KeyWrapperINS1_IPK11Il2CppImageP11Il2CppClassEEEjEES9_17ReflectionMapHashIS8_EN14dense_hash_mapIS9_jSD_19ReflectionMapEqualsIS8_ENS0_9allocatorISB_EEE9SelectKeyESG_SI_EC2EjRKSD_RKSG_RKSK_
Vfd:__ZN5physx12PxsRigidBody23updatePoseDependenciesVERNS_10PxsContextE
qdg:_BaseRaycaster_OnDisable_m1716508791
c$e:_Array_InternalArray__ICollection_Remove_TisKeyValuePair_2_t3716250094_m2566517826_gshared
m0g:_ASN1Convert_ToInt32_m2121135414
MRj:_InternalEnumerator_1_MoveNext_m1741571735_gshared
a8d:__ZN5physx2Gu12TriangleMesh4loadERNS_13PxInputStreamE
YZh:__ZL82Enum_t2459695545_CustomAttributesCacheGenerator_Enum_GetUnderlyingType_m3513899012P21CustomAttributesCache
HCb:__Z32TransferEnumWithNameForceIntSizeI14SafeBinaryRead25ProceduralLoadingBehaviorEvRT_RT0_PKc17TransferMetaFlags
W6k:_GC_is_heap_ptr
p_f:_Collection_1_IsValidItem_m429993695_gshared
ySk:__GLOBAL__sub_I_Assembly_cpp
U7g:_TlsServerSettings_set_CertificateRequest_m3419519893
tqa:__Z21PlayerStartFirstSceneb
tE:__ZN7mecanim5human10RetargetToEPKNS0_5HumanEPKNS0_9HumanPoseES6_RKN4math4trsXEPS4_PNS_8skeleton13SkeletonPoseTIS8_EESF_
Uy:__ZN7mecanim9animation8SeekClipERKNS0_12StreamedClipERNS0_18StreamedClipMemoryEf
Trj:_Type_get_IsGenericParameter_m161434704
jEh:_MethodBuilder_get_Attributes_m3678061338
Hm:_emscripten_glIsTexture
eu:__ZN24CompressedAnimationCurveaSERKS_
Klf:_ArrayListWrapper_CopyTo_m793444109
Hci:__ZL79Convert_t2607082565_CustomAttributesCacheGenerator_Convert_ToUInt16_m3265369225P21CustomAttributesCache
ml:_emscripten_glHint
rxe:_ft_var_readpackeddeltas
Q7:__ZN6Object15ClassIDToStringEi
Bxf:_DateTime_AddMilliseconds_m1813199744_AdjustorThunk
Ouh:_SByte_System_IConvertible_ToSByte_m108774324_AdjustorThunk
nEh:_MethodBuilder_GetParameterCount_m467267889
FFh:_TypeBuilder_IsValueTypeImpl_m1499671481
aog:_FontData_get_lineSpacing_m4145828566
Oof:_Hashtable_get_IsSynchronized_m836780937
bkh:_X509ChainStatus_t4278378721_marshal_pinvoke
$1g:_RSAManaged__ctor_m1680944437
Km:_SDL_UpperBlit
d4d:__ZN5physx2Cm12DelegateTaskINS_2Sc5SceneEXadL_ZNS3_13ccdBroadPhaseEPNS_10PxBaseTaskEEEED0Ev
Zzi:_GUIStyle_op_Implicit_m781448948
b3a:__Z35GetTextureDecodeValuesWithIntensity16TextureUsageMode17TextureColorSpace10ColorSpacef
Gif:_Byte_GetHashCode_m2885528842_AdjustorThunk
End:__ZNK5physx7NpShape16getContactOffsetEv
AVd:__ZN5physx14PxsAABBManager21processAggregatePairsEPKNS_19AggregateSortedDataE
bQh:_Dictionary_2_OnDeserialization_m2092139626_gshared
MEc:__ZNK12b2MouseJoint10GetAnchorAEv
jhe:_PxCreateCooking
Ljl:__ZNKSt3__28time_getIwNS_19istreambuf_iteratorIwNS_11char_traitsIwEEEEE16do_get_monthnameES4_S4_RNS_8ios_baseERjP2tm
RKb:__ZN14SafeBinaryRead20OverrideRootTypeNameEPKc
iEb:__ZN9InputAxis7SetNameERKNSt3__212basic_stringIcNS0_11char_traitsIcEENS0_9allocatorIcEEEE
laa:__ZN14FileCacherRead16UnlockCacheBlockEj
Suj:_UIntPtr_get_Size_m537421489
jXg:_X509Certificate_GetUnsignedBigInteger_m3491353542
Rid:__ZNK5physx12NpBatchQuery23getFilterShaderDataSizeEv
GPb:__Z18Transfer_BlittableI17RemapPPtrTransferLb1E8Vector3fEvRK29SerializationCommandArgumentsR31RuntimeSerializationCommandInfo
g3h:__ZL57StackBehaviour_t1390406961_CustomAttributesCacheGeneratorP21CustomAttributesCache
id:_emscripten_glUniform1f
nfe:__ZN5physx7profile11EventBufferINS_24PxDefaultContextProviderENS_6shdfnd6MutexTINS0_26WrapperReflectionAllocatorIhEEEENS0_14ScopedLockImplIS7_EENS_24PxProfileNullEventFilterEE10doAddEventINS0_17RelativeStopEventEEEvhtRKT_
Gme:__Z20ParseImageParametersR11UTF16StringRiRN20TextRenderingPrivate16TextFormatChangeE
nd:_emscripten_glUniform1i
hQj:_InternalEnumerator_1_System_Collections_IEnumerator_Reset_m651165750_AdjustorThunk
KKb:__ZN13MonoBehaviour9CallAwakeEv
e3d:__ZN5physx2Sc19ShapeInstancePairLL23postIslandGenSecondPassEv
DZc:__ZN5physx3Cct26CharacterControllerManager16createControllerERKNS_16PxControllerDescE
JQi:__Z66RuntimeInvoker_Void_t1841601450_Int32_t2071877448_SByte_t454417549PK10MethodInfoPvPS2_
Z_b:__ZN9ShaderLab16SerializedTagMapaSERKS0_
YQi:__Z75RuntimeInvoker_Void_t1841601450_Il2CppObject_Int32_t2071877448_Il2CppObjectPK10MethodInfoPvPS2_
m0e:_SetPropertyUtility_SetStruct_TisFillMethod_t1640962579_m1867757822_gshared
tge:__ZN5physx26PxPhysicsInsertionCallbackD2Ev
Wgc:__ZN8Material28ApplyMaterialPropertyDrawersEv
POd:__ZN5physx2Sq16BucketPrunerCore12updateObjectERKNS_9PxBounds3ERKNS0_13PrunerPayloadE
r2d:__ZN5physx18PxsDynamicsContext23atomIntegrationParallelEfPKPNS_11PxsBodyCoreEPKPNS_12PxsRigidBodyEjPKNS_2Cm13SpatialVectorEPNS_13PxcSolverBodyEPNS_17PxcSolverBodyDataEPSA_RjSI_RNS_10PxBaseTaskE
yMj:_InternalEnumerator_1_System_Collections_IEnumerator_get_Current_m3680087284_gshared
iF:__ZN11UnityEngine9Animation27CreateAvatarBindingConstantER9TransformPKN7mecanim9animation14AvatarConstantERNS3_6memory9AllocatorE
nHb:__ZN14SafeBinaryRead21TransferSTLStyleArrayINSt3__26vectorIN30RuntimeInitializeOnLoadManager9ClassInfoE13stl_allocatorIS4_L18MemLabelIdentifier12ELi16EEEEEEvRT_17TransferMetaFlags
Bvj:_UnitySerializationHolder_GetObjectData_m2280028722
f4j:_PatternCompiler_EmitFalse_m1188949782
buj:_UInt64_System_IConvertible_ToDateTime_m2412118561
Jgc:__ZN9BlobWriteC2ER13dynamic_arrayIhLj16EE24TransferInstructionFlags19BuildTargetPlatform
VIk:__ZNK15dense_hashtableINSt3__24pairIK10KeyWrapperINS1_IPK9FieldInfoP11Il2CppClassEEEjEES9_17ReflectionMapHashIS8_EN14dense_hash_mapIS9_jSD_19ReflectionMapEqualsIS8_ENS0_9allocatorISB_EEE9SelectKeyESG_SI_E13find_positionERSA_
H8:__ZN14MessageHandler3GetEv
qyi:_GUISkin_set_verticalScrollbarThumb_m2647835739
Ad:_emscripten_glAttachShader
K5f:_ReadOnlyCollection_1__ctor_m1539890895_gshared
Ixa:__ZN9GfxDevice13SetActiveTierE12GraphicsTier
UHf:_Enumerator_System_Collections_IEnumerator_get_Current_m3079057684_AdjustorThunk
imc:__Z46Register_UnityEngine_Mesh_ExtractArrayFromListv
YTg:_KeyPairPersistence_get_UserPath_m3433052783
UXc:__ZN5physx2Gu19GetRaycastFuncTableEv
rZf:_Collection_1_ClearItems_m1410275009_gshared
kRk:__ZNK15dense_hashtableINSt3__24pairIK10KeyWrapperIP11Il2CppClassES4_EES5_N6il2cpp8metadata16SZArrayClassHashEN14dense_hash_mapIS5_S4_SA_NS9_19SZArrayClassCompareENS0_9allocatorIS7_EEE9SelectKeyESC_SE_E10test_emptyEj
kZh:__ZL58Decimal_t724701077_CustomAttributesCacheGenerator_MinusOneP21CustomAttributesCache
q1e:_Array_InternalArray__IEnumerable_GetEnumerator_TisKeyframe_t1449471340_m3949799719_gshared
zLb:__Z18Transfer_BlittableI14SafeBinaryReadLb0E11QuaternionfEvRK29SerializationCommandArgumentsR31RuntimeSerializationCommandInfo
s_:__ZNK13EmscriptenWWW6GetUrlEv
fHc:__ZN13BoxCollider2D16CheckConsistencyEv
Y2d:__ZN5physx17EdgeChangeManager23cleanupBrokenEdgeEventsEPKNS_4EdgeE
$fd:__ZN5physx17PxsContactManager16resetCachedStateEv
Ksg:_InputField_get_inputType_m2187991661
q$:_tlsf_walk_heap
IWg:_PKCS12_Decode_m731190390
JEk:__ZN6il2cpp2vm7Runtime6InvokeEPK10MethodInfoPvPS5_PP15Il2CppException
pRj:_InternalEnumerator_1_get_Current_m1550231132_gshared
Z6j:_Reference_get_IgnoreCase_m2810892634
Ovj:_Version_CheckedSet_m76493673
tb:invoke_vif
izb:__ZN14VertexDataInfo13UpdateStreamsEjjjRK19VertexStreamsLayoutRK20VertexChannelsLayout
ub:invoke_vid
L9h:__ZL67UnverifiableCodeAttribute_t765455733_CustomAttributesCacheGeneratorP21CustomAttributesCache
vb:invoke_vii
Oll:__ZNSt3__28messagesIcED2Ev
Qhi:__ZL86Component_t3819376471_CustomAttributesCacheGenerator_Component_SendMessage_m3615678587P21CustomAttributesCache
SHd:__ZN5physx13NpVolumeCacheD2Ev
Lti:__ZL82ScrollRect_t1199013257_CustomAttributesCacheGenerator_m_HorizontalScrollbarSpacingP21CustomAttributesCache
yAg:_Int16_System_IConvertible_ToUInt32_m883204517_AdjustorThunk
tdb:__ZN12TLSAllocatorI14StackAllocatorE16ThreadInitializeEP13BaseAllocator
flf:_ArrayList_Sort_m2778059513
qLc:__ZN17Physics2DSettings23VirtualRedirectTransferER18StreamedBinaryReadILb1EE
gBk:__ZN15dense_hashtableINSt3__24pairIK10KeyWrapperI13dynamic_arrayIPK10Il2CppTypeLj4EEEPFvvEEES8_N6il2cpp8metadata19Il2CppSignatureHashEN14dense_hash_mapIS8_SB_SF_NSE_22Il2CppSignatureCompareENS0_9allocatorISC_EEE9SelectKeyESH_SJ_E5clearEv
sni:__ZL107StackTraceUtility_t1881293839_CustomAttributesCacheGenerator_StackTraceUtility_SetProjectFolder_m2154926761P21CustomAttributesCache
T$d:__ZThn8_N5physx2Sc35ParticleElementRbElementInteraction12onDeactivateEj
iqg:_LayoutGroup_SetChildAlongAxis_m2732017156
BCe:__Z41CanvasRenderer_CUSTOM_DisableRectClippingP12Il2CppObject
R0g:_MD2_Create_m539024737
lqf:_SortedList_get_SyncRoot_m3299704254
Vob:__ZNK14DirectorPlayer7GetTimeEv
KRd:__ZN5physx16PxsThreadContextC2EPNS_10PxsContextE
Nqf:_Slot_t2267560602_marshal_pinvoke
RVi:__Z51RuntimeInvoker_UInt16_t986882611_Single_t2076509932PK10MethodInfoPvPS2_
Znh:_SoapAttribute_get_XmlNamespace_m1436066016
tPa:__ZN25SingleBlockMemoryFileDataD0Ev
Web:__ZNSt3__26vectorI14ConstantStringNS_9allocatorIS1_EEE6assignINS_11__wrap_iterIPS1_EEEENS_9enable_ifIXaasr21__is_forward_iteratorIT_EE5valuesr16is_constructibleIS1_NS_15iterator_traitsISA_E9referenceEEE5valueEvE4typeESA_SA_
lOc:__ZN5physx3Cct10Controller4moveERNS0_11SweptVolumeERKNS_6PxVec3EffRKNS_19PxControllerFiltersEPKNS_17PxObstacleContextEb
jzd:__ZN5physx14NpRigidDynamic17setAngularDampingEf
zOb:__ZNSt3__26vectorI8GUIStyle13stl_allocatorIS1_L18MemLabelIdentifier1ELi16EEE7reserveEj
uSk:__ZN6il2cpp6icalls8mscorlib6System9Threading6Thread27GetSerializedCurrentCultureEP12Il2CppThread
BCk:__ZN6il2cpp2vm13MetadataCache14AddPointerTypeEP11Il2CppClassS3_
v3e:_Array_InternalArray__IndexOf_TisUInt32_t2149682021_m3231515987_gshared
Duk:__ZL25UnresolvedVirtualCall_155P12Il2CppObject23RaycastResult_t21186376S1_PK10MethodInfo
Znk:_ListPool_1__cctor_m709904475_gshared
y_i:__Z83RuntimeInvoker_Void_t1841601450_QuaternionU26_t4187826802_QuaternionU26_t4187826802PK10MethodInfoPvPS2_
$3b:__Z13RegisterClassI11TimeManagerEvv
EP:__ZN4FMOD8ChannelI11setPositionEjj
eX:__ZN11UnityEngine15CloudWebService16SessionContainer27GetDeleteErrorJsonDataBlockERK8UnityStrS4_RS2_
yIc:__ZN10Collider2D12SetPolygon2DEP9Polygon2D
wIf:_Enumerator_VerifyState_m4188527104_gshared
Aui:__ZL75ToggleGroup_t1030026315_CustomAttributesCacheGenerator_U3CU3Ef__amU24cache1P21CustomAttributesCache
t8c:__ZN5physx6shdfnd8PoolBaseINS_2Sc12SimStateDataENS0_19ReflectionAllocatorIS3_EEE17releaseEmptySlabsEv
Rda:__ZN17BaseObjectManager13StaticDestroyEPv
q$i:__Z70RuntimeInvoker_Void_t1841601450_Playable_t3667545548_Int32_t2071877448PK10MethodInfoPvPS2_
Uhk:_TextGenerationSettings_CompareVector2_m592645251
btb:__ZNK29LineParametersPropertyBinding12GetPPtrValueERKN11UnityEngine9Animation10BoundCurveE
lac:__ZN18PlayableController18DoesPlayableExistsEPK8Playable
Lyf:_DBNull_System_IConvertible_ToChar_m3344298044
aSc:__ZN5physx2Gu22closestPtPointTriangleEPNS_6shdfnd3aos5Vec3VES4_S4_Rj
XXg:_X509Certificate_GetObjectData_m3888130484
LGb:__ZNSt3__26vectorIN15ResourceManager10DependencyE13stl_allocatorIS2_L18MemLabelIdentifier51ELi16EEEC2INS_11__wrap_iterIPS2_EEEET_SB_RKS5_PNS_9enable_ifIXaasr21__is_forward_iteratorISB_EE5valuesr16is_constructibleIS2_NS_15iterator_traitsISB_E9referenceEEE5valueEvE4typeE
k_i:__Z45RuntimeInvoker_IMECompositionMode_t1898275508PK10MethodInfoPvPS2_
oid:__ZN5physx2Cm8PtrTableC2Ev
uDj:_CustomYieldInstruction_Reset_m3409422382
u3j:_LinkStack_Push_m2660199875
yO:__ZN4FMOD6Reverb13setPropertiesEPK22FMOD_REVERB_PROPERTIES
cud:__ZNK5physx22NpParticleBaseTemplateINS_15PxParticleFluidENS_15NpParticleFluidEE14getRestitutionEv
J_a:__ZN9DepthPass13PrepareSubsetEjRK10RenderNodeifRK17ShaderReplaceData
UUd:__ZN5physx16PxsBroadPhaseMBP6updateEjjRKNS_23PxcBroadPhaseUpdateDataEPNS_10PxBaseTaskE
dmd:__ZN5physx9NpPhysics18createRigidDynamicERKNS_11PxTransformE
CJa:__Z17TransformVerticesPhRK10Matrix4x4fRK16VertexBufferDatajjj25GfxTransformVerticesFlags
Gak:_X509CertificateCollection_Add_m4008705157
mnh:_MonoMethodMessage_set_Uri_m3218581120
Fec:__Z18ExtractTagThrowingR11ICallString
Dma:__ZN4PPtrI6ShaderE8TransferI19StreamedBinaryWriteILb0EEEEvRT_
KZf:_Collection_1_IsFixedSize_m1816795498_gshared
wRa:__ZZ23InitPlayerLoopCallbacksvEN40EarlyUpdatePlayerCleanupCachedDatastruct7ForwardEv
uVc:__ZN5physx2Gu17intersectRayAABB2ERKNS_6shdfnd3aos5Vec3VES5_S5_S5_RKNS2_6FloatVERS6_S9_
PCe:__Z34CanvasRenderer_Get_Custom_PropCullP12Il2CppObject
lnd:__ZNK5physx7NpShape17getSphereGeometryERNS_16PxSphereGeometryE
wXc:__ZL18intersectAnyVsMeshILi1EEbPKN5physx2Gu6SphereEPKNS1_7CapsuleEPKNS1_3BoxERKNS1_13RTreeMidphaseERKNS0_11PxTransformERKNS0_11PxMeshScaleEP14LimitedResults
qHb:__Z14resize_trimmedINSt3__26vectorIi13stl_allocatorIiL18MemLabelIdentifier12ELi16EEEEEvRT_j
Dgg:_MouseButtonEventData_ReleasedThisFrame_m482758300
B6c:__ZN5physx6shdfnd5ArrayIPvNS0_15InlineAllocatorILj256ENS0_19ReflectionAllocatorINS_2Cm5BlockIhLj128EEEEEEEE15growAndPushBackERKS2_
imf:_ReadOnlyArrayListWrapper_set_Item_m2199017141
A5a:__ZN6Camera6SetFarEf
Bak:_DeriveBytes_DeriveIV_m3343375195
WOe:_X509Certificate_ToString_m1582581274
rLe:_RNGCryptoServiceProvider_GetBytes_m167497991
Eoa:__ZN6prcoreL12RemapGenericI17TexFormatABGR888817TexFormatARGB8888EEvPKNS_9InnerInfoE
Qib:__ZN11GameManager17MainThreadCleanupEv
HFk:__ZN6il2cpp6icalls8mscorlib6System18CollectTypeMethodsINS_5utils10functional6FilterINSt3__212basic_stringIcNS7_11char_traitsIcEENS7_9allocatorIcEEEENS4_11StringUtils23CaseInsensitiveComparerEEEEEvP11Il2CppClassPKSH_jRKT_RNS7_6vectorIPK10MethodInfoNSB_ISR_EEEERA65535_b
HBh:_TypeBuilder_get_Assembly_m492491492
s0f:_Collection_1_InsertItem_m1225429801_gshared
qHc:__ZN10Collider2D12AddToManagerEv
b_:__ZN11UnityEngine15CloudWebService17CloudServiceEvent12ToJsonStringER8UnityStrjPKc
Ppd:__ZNK5physx7NpCloth24getParticleAccelerationsEPNS_6PxVec4E
ewe:_UNITY_tt_slot_init
XIe:_HMACSHA512__cctor_m1167457383
wAc:__ZL22Transfer_ManagedObjectI9JSONWriteLb1EEvRK29SerializationCommandArgumentsR31RuntimeSerializationCommandInfo
aza:__ZN9GfxDevice20DestroyRenderSurfaceER12ObjectHandleI17RenderSurface_TagP17RenderSurfaceBaseE
Q8k:__ZNSt3__26__treeINS_12__value_typeINS_12basic_stringIcNS_11char_traitsIcEENS_9allocatorIcEEEEPFvvEEENS_19__map_value_compareIS7_SA_NS_4lessIS7_EELb1EEENS5_ISA_EEE25__emplace_unique_key_argsIS7_JRKNS_21piecewise_construct_tENS_5tupleIJOS7_EEENSL_IJEEEEEENS_4pairINS_15__tree_iteratorISA_PNS_11__tree_nodeISA_PvEEiEEbEERKT_DpOT0_
d6b:__ZL24PrepareSpriteRenderNodesILb1EEvR35RenderNodeQueuePrepareThreadContext
uMa:__ZN9GfxDevice22UpdateComputeResourcesEjPK9TextureIDPK16TextureDimensionPKijPKjjPK15ComputeBufferIDS7_PK20ComputeBufferCounterjSC_S2_S5_S9_SF_
vyb:__ZN12_GLOBAL__N_15qAsinEff
Eaf:_Dictionary_2_Do_ICollectionCopyTo_TisKeyValuePair_2_t3749587448_m2536766696_gshared
udb:__ZN12TLSAllocatorI14StackAllocatorE13ThreadCleanupEv
$T:__Z18GetAudioManagerPtrv
Bjl:__ZNKSt3__28time_getIcNS_19istreambuf_iteratorIcNS_11char_traitsIcEEEEE10__get_yearERiRS4_S4_RjRKNS_5ctypeIcEE
JYi:__Z67RuntimeInvoker_Void_t1841601450_Int16_t4041245914_Int16_t4041245914PK10MethodInfoPvPS2_
fzb:__ZN4Mesh27SwizzleVertexColorsIfNeededEb
veb:__Z27FindActiveTransformWithPathPKc
XQi:__Z63RuntimeInvoker_DSAParameters_t1872138834_BooleanU26_t3168250738PK10MethodInfoPvPS2_
sAj:_CanvasGroup_get_alpha_m1304564441
EDd:__ZN5physx16PxsIslandManager14setEdgeRigidCMERKNS_20PxsIslandManagerHookIjLj4294967295EEEPNS_17PxsContactManagerE
Gkb:__ZN12BaseRendererD0Ev
zbb:__Z29StdTemplateConversionFunctionIbyEbPvR14SafeBinaryRead
sha:__ZN7Texture5ResetEv
mXi:__Z56RuntimeInvoker_TimeSpan_t3430258949_TimeSpan_t3430258949PK10MethodInfoPvPS2_
wbd:__ZN5physx14NpArticulation25setStabilizationThresholdEf
Yzf:_Decimal_Floor_m1662853963
t7d:__ZN5physx2Gu11HeightField7releaseEv
X$b:__ZN24GenerateTypeTreeTransfer21TransferSTLStyleArrayINSt3__26vectorIN9ShaderLab20SerializedSubProgram14ConstantBufferENS1_9allocatorIS5_EEEEEEvRT_17TransferMetaFlags
uWa:__ZNK6Camera7GetNearEv
DDa:__ZN7ApiGLES11UnmapBufferEjN2gl12BufferTargetE
yBk:__ZN14dense_hash_mapI10KeyWrapperI13dynamic_arrayIPK10Il2CppTypeLj4EEEPFvvEN6il2cpp8metadata19Il2CppSignatureHashENSA_22Il2CppSignatureCompareENSt3__29allocatorINSD_4pairIKS6_S8_EEEEE13set_empty_keyERSG_
Wqb:__Z25GetNextAllowedTextureSizeib13TextureFormat
e1:__ZN20LocalFileSystemWebGL4CopyER13FileEntryDataS1_
HQf:_List_1_CheckIndex_m4231572822_gshared
TY:__ZN19CloudServiceHandler6RetainEv
gbl:__ZN6il2cpp2os9Semaphore4WaitEb
qEc:__ZN15b2FrictionJointD0Ev
dRe:_StrongName_Equals_m67226644
Okb:__ZN12BaseRenderer20FlattenToRenderQueueER15RenderNodeQueueRK20DeprecatedSourceData
MCh:_FieldBuilder_get_Attributes_m2174064290
u$d:__ZN5physx2Sc8ClothSim23addCollisionHeightfieldEPKNS0_8ShapeSimE
IEb:__ZN11TimeManager23VirtualRedirectTransferER18StreamedBinaryReadILb1EE
nra:__Z34scripting_liveness_calculation_endPv
n1k:__ZN6il2cpp2os6ThreadC2Ev
TRe:_SecurityFrame_InitFromRuntimeFrame_m45195821
F2h:__ZL53TextReader_t1561828458_CustomAttributesCacheGeneratorP21CustomAttributesCache
Nih:_X509Chain_IsSignedWith_m292245392
h$e:_Array_InternalArray__ICollection_Remove_TisDateTime_t693205669_m1275668216_gshared
Z8b:__ZZN6Camera15InitializeClassEvEN31FunctorImpl_99kTransformChanged4CallEPviR11MessageData
O5f:_ReadOnlyCollection_1_System_Collections_Generic_ICollectionU3CTU3E_Remove_m3751131234_gshared
qwc:__Z18Transfer_BlittableI8JSONReadLb0E8Vector3fEvRK29SerializationCommandArgumentsR31RuntimeSerializationCommandInfo
Dt:__ZN13AnimationClip12Vector3Curve8TransferI14SafeBinaryReadEEvRT_
K_j:_ChannelServices__cctor_m3534779830
BOk:__ZN6il2cpp2vm6Thread6DetachEP12Il2CppThread
Wre:_Render_Single_Pass
CNb:__ZNSt3__26vectorINS_12basic_stringIcNS_11char_traitsIcEE13stl_allocatorIcL18MemLabelIdentifier1ELi16EEEES4_IS7_LS5_1ELi16EEE8__appendEj
lC:__ZN11UnityEngine9Animation31CreateControllerBindingConstantEPKN7mecanim9animation18ControllerConstantEPKNS2_12AnimationSetEPNS1_18ValueArrayConstantEjPKNS2_14AvatarConstantERNS1_6memory9AllocatorE
Psk:__ZL24UnresolvedVirtualCall_59P12Il2CppObjectS0_aPK10MethodInfo
ypk:_EqualityComparer_1__cctor_m2666196678_gshared
QGk:_il2cpp_class_get_name
Uwi:_GUIStyle_Init_m3872198731
nF:__ZN7mecanim8skeleton30SkeletonBuildReverseIndexArrayEPiPKiPKNS0_8SkeletonES6_
h$k:__ZN6il2cpp2os10ThreadImpl5SleepEjb
gUd:__ZN5physx14SapPairManager12shrinkMemoryEv
_ck:_X509ExtensionCollection_System_Collections_IEnumerable_GetEnumerator_m2600902401
c1f:_Collection_1_InsertItem_m1073626529_gshared
OIb:__ZN15FileSystemEntry4MoveERS_23FileSystemCopyMoveFlags
dG:__ZN18AnimatorController23VirtualRedirectTransferER24GenerateTypeTreeTransfer
rRh:_Dictionary_2_System_Collections_Generic_IEnumerableU3CSystem_Collections_Generic_KeyValuePairU3CTKeyU2CTValueU3EU3E_GetEnumerator_m3968773920_gshared
Ach:_ListDictionary_FindEntry_m432748847
Nxl:_glBindSampler__wrapper
Bgk:_UnityAction_1_Invoke_m3523417209_gshared
hg:_emscripten_set_mouseup_callback
pZb:__Z14resize_trimmedINSt3__26vectorIN9ShaderLab14SerializedPassENS0_9allocatorIS3_EEEEEvRT_j
hMa:__ZN9GfxDevice27SetRandomWriteTargetTextureEi9TextureID
rHj:_CustomAnimationPlayable_get_time_m2832957799
yVi:__Z48RuntimeInvoker_Int64_t909078037_SByte_t454417549PK10MethodInfoPvPS2_
xVg:_PrivateKeyInfo_Normalize_m3959595934
qGd:__ZN5physx7NpScene22removeBroadPhaseRegionEj
B3c:__ZL34GeomOverlapCallback_CapsuleCapsuleRKN5physx10PxGeometryERKNS_11PxTransformES2_S5_PNS_2Gu12TriggerCacheE
l0:__ZNK18ScreenManagerWebGL8GetWidthEv
yFd:__ZNK5physx7NpScene23getFilterShaderDataSizeEv
sog:_Graphic_get_rectTransform_m2697395074
iDk:__ZN6il2cpp2vm13MetadataCache33GetFieldDefaultValueDataFromIndexEi
Rpg:_GridLayoutGroup_set_startAxis_m1635162426
FL:__ZN10SampleClipD2Ev
q1j:_SynchronizationAttribute_EnterContext_m2984912761
h_h:__ZL73Enum_t2459695545_CustomAttributesCacheGenerator_Enum_ToObject_m2601523252P21CustomAttributesCache
WFf:_CultureInfo_construct_internal_locale_from_name_m971766383
S1j:__ZN16VirtFuncInvoker0IP21WaitHandle_t677569169E6InvokeEjPv
g$k:__ZN6il2cpp2os10ThreadImpl13SetWaitObjectEPNS0_5posix15PosixWaitObjectE
Iif:_Byte_Equals_m368616327_AdjustorThunk
Y4e:_Array_InternalArray__ICollection_Add_TisUIVertex_t1204258818_m3869382594_gshared
Ave:_cff_cmap_unicode_init
fDf:_Enum_ToObject_m2460371738
MRg:_PrimalityTests_Test_m1088386156
oaa:__ZN14FileCacherRead13GetFileLengthEv
htc:__Z36Event_CUSTOM_Internal_SetNativeEvent13Il2Cpp_IntPtr
Iel:_readlink
S5j:_ExpressionAssertion__ctor_m2408911632
c9e:_Array_Resize_TisVector3_t2243707580_m893658391_gshared
GNj:_InternalEnumerator_1_System_Collections_IEnumerator_get_Current_m4259662004_AdjustorThunk
zcf:_Array_InternalArray__get_Item_TisKeyframe_t1449471340_m1003508933_gshared
dal:__ZN6il2cpp8metadata14Il2CppTypeHash4HashEPK10Il2CppType
CWg:_StrongName_get_PublicKeyToken_m1968460885
iwb:__ZNK6Sprite9GetBoundsE8Vector2fbb
d0i:__Z87RuntimeInvoker_Boolean_t3825574718_Ray_t2469606224_Single_t2076509932_Int32_t2071877448PK10MethodInfoPvPS2_
ZG:__ZN7mecanim12statemachine13StateConstant8TransferI14SafeBinaryReadEEvRT_
gCa:__ZN11ContextGLES6CreateEi
WWc:__ZN5physx6shdfnd5ArrayINS_10PxTriangleENS0_19ReflectionAllocatorIS2_EEE15growAndPushBackERKS2_
UDg:_BinaryReader_Dispose_m4249456877
Qck:_X509CrlEntry_get_Extensions_m1330698752
ptf:_Double_ToString_m1085043609
nVb:__Z19TransferField_ArrayI18StreamedBinaryReadILb0EE27Converter_SimpleNativeClassI17AnimationCurveTplIfEEEvRK23StaticTransferFieldInfoR31RuntimeSerializationCommandInfoRT0_
u3g:_CipherSuite_createEncryptionCipher_m1926075645
fdb:__ZN14StackAllocator16FrameMaintenanceEb
mSc:__ZL11SweepBoxBoxPKN5physx3Cct9SweepTestEPKNS0_11SweptVolumeEPKNS0_11TouchedGeomERKNS_14PxExtendedVec3ERKNS_6PxVec3ERNS0_12SweptContactE
nAk:__ZNK15dense_hashtableI10KeyWrapperIPK19Il2CppGenericMethodES4_N6il2cpp8metadata23Il2CppGenericMethodHashEN14dense_hash_setIS4_S7_NS6_26Il2CppGenericMethodCompareENSt3__29allocatorIS4_EEE8IdentityES9_SC_E5beginEv
W4:__ZNK10GameObject20QueryComponentByTypeEPKN5Unity4TypeE
iJf:_Enumerator_MoveNext_m1367380970_AdjustorThunk
cFh:_OpCode_GetHashCode_m2974727122
Umb:__ZN16GraphicsSettings8TransferI18StreamedBinaryReadILb1EEEEvRT_
v3g:_CipherSuite_createDecryptionCipher_m1118350455
Nle:__ZN20TextRenderingPrivate12GetFontPathsERNSt3__26vectorINS0_12basic_stringIcNS0_11char_traitsIcEENS0_9allocatorIcEEEENS5_IS7_EEEE
rpk:_SimulationHandler_Simulation_m319664451
z4j:_PatternCompiler_EmitReference_m1381860071
_Bf:_Double_System_IConvertible_ToInt16_m4200640326
ukc:__Z53Register_UnityEngine_GameObject_get_activeInHierarchyv
ODh:_GenericTypeParameterBuilder_get_IsGenericType_m1883522222
J_i:__Z90RuntimeInvoker_Single_t2076509932_Single_t2076509932_Single_t2076509932_Single_t2076509932PK10MethodInfoPvPS2_
s6:__ZL30InitializeCoreScriptingClassesv
W$i:__Z49RuntimeInvoker_Void_t1841601450_Scene_t1684909666PK10MethodInfoPvPS2_
m1f:_Collection_1_CheckWritable_m3938993573_gshared
dh:_glBlitFramebuffer
sQa:__ZN17ArchiveFileSystem5TouchER13FileEntryData
vLd:__ZNK5physx2Sc5Scene17prefetchForRemoveERKNS0_10StaticCoreE
c8g:_SecurityParameters_set_Cipher_m3888132335
URg:_BigInteger_GeneratePseudoPrime_m2606361440
Oxg:_DateTimeFormatInfo_get_ShortTimePattern_m20923983
$Lb:__Z35Transfer_Blittable_SingleValueFieldI14SafeBinaryReadhEvRT_R17GeneralMonoObjectRK23StaticTransferFieldInfo
Ssi:__ZL140U3CMouseDragOutsideRectU3Ec__Iterator1_t2599668326_CustomAttributesCacheGenerator_U3CMouseDragOutsideRectU3Ec__Iterator1_Dispose_m2134284531P21CustomAttributesCache
Z9i:__Z57RuntimeInvoker_ContactPoint_t1376425630_Int32_t2071877448PK10MethodInfoPvPS2_
Ttd:__ZN5physx22NpParticleBaseTemplateINS_15PxParticleFluidENS_15NpParticleFluidEE13setVelocitiesEjRKNS_16PxStrideIteratorIKjEERKNS4_IKNS_6PxVec3EEE
zRi:__Z129RuntimeInvoker_Int32_t2071877448_Il2CppObject_Int32_t2071877448_Int32_t2071877448_Il2CppObject_Int32_t2071877448_SByte_t454417549PK10MethodInfoPvPS2_
oVg:_EncryptedPrivateKeyInfo_get_Algorithm_m2779196942
Unh:_RemotingServices_GetRealProxy_m620317996
a4a:__ZN13dynamic_arrayI11CulledLightLj4EE6insertEPS0_PKS0_S4_
Yuk:__ZL25UnresolvedVirtualCall_176P12Il2CppObject22UICharInfo_t3056636800S1_PK10MethodInfo
nLj:_ArrayReadOnlyList_1_RemoveAt_m2270349795_gshared
Iek:_Predicate_1_Invoke_m2060780095_gshared
Ojb:__ZN10TagManager23VirtualRedirectTransferER18StreamedBinaryReadILb1EE
eDk:__ZN6il2cpp2vm13MetadataCache23GetInterfaceOffsetIndexEi
zo:FUNCTION_TABLE_vif
Ao:FUNCTION_TABLE_vid
Bo:FUNCTION_TABLE_vii
VSa:_UNITY_png_create_write_struct
xQi:__Z149RuntimeInvoker_Boolean_t3825574718_Int32_t2071877448_Il2CppObject_Int32_t2071877448_Int32_t2071877448_Il2CppObject_Int32_t2071877448_SByte_t454417549PK10MethodInfoPvPS2_
Pja:__ZN7Texture23VirtualRedirectTransferER24GenerateTypeTreeTransfer
ole:_UNITY_FT_Set_Transform
M7b:__ZNK32RendererMaterialAnimationBinding12SetPPtrValueERKN11UnityEngine9Animation10BoundCurveEi
sYk:__ZN6il2cpp8metadata15GenericMetadata20RegisterGenericClassEP18Il2CppGenericClass
sxl:_glDeleteFramebuffers__wrapper
Jqg:_Image_get_overrideSprite_m706080347
Jjc:__Z36Register_UnityEngine_RectOffset_Initv
Q_g:_BigInteger_ModInverse_m1881894572
HEk:__ZN6il2cpp2vm7Runtime17GetDelegateInvokeEP11Il2CppClass
uyd:__ZNK5physx15NpActorTemplateINS_14PxRigidDynamicEE14getOwnerClientEv
fui:__ZL59Slider_t297367283_CustomAttributesCacheGenerator_m_FillRectP21CustomAttributesCache
nsb:__ZN28EnlightenRendererInformation8TransferI14SafeBinaryReadEEvRT_
x3a:__ZN14qsort_internal6_QSortIP16RenderObjectDatai25RenderPrePassObjectSorterEEvT_S4_T0_T1_
K4h:__ZL69DefaultDependencyAttribute_t3858269114_CustomAttributesCacheGeneratorP21CustomAttributesCache
Uid:__ZN5physx12NpBatchQuery13getUserMemoryEv
Ct:__Z14resize_trimmedINSt3__26vectorIN13AnimationClip12Vector3CurveE13stl_allocatorIS3_L18MemLabelIdentifier25ELi16EEEEEvRT_j
YNa:__ZNK15Lz4Decompressor16DecompressMemoryEPKvPjPvS2_
qqe:_UNITY_tt_face_build_cmaps
eia:__ZN29SerializeTraitsForStringTypesINSt3__212basic_stringIcNS0_11char_traitsIcEE13stl_allocatorIcL18MemLabelIdentifier1ELi16EEEEE19ResizeSTLStyleArrayERS7_iS5_
NGi:_Ray_ToString_m2019179238
ULc:__ZN11Rigidbody2D8TransferI24GenerateTypeTreeTransferEEvRT_
Nma:__Z35UnityPropertySheet_MakeSortedColorsRKNSt3__23mapIN9ShaderLab16FastPropertyNameE10ColorRGBAfNS_4lessIS2_EENS_9allocatorINS_4pairIKS2_S3_EEEEEER10vector_mapIS2_S3_S5_NS6_INS7_IS2_S3_EEEEE
no:FUNCTION_TABLE_iiiiiiffiiiiiiiiiffffiii
Xsg:_InputField_get_caretPositionInternal_m3011712053
Dpe:_UNITY_tt_face_load_os2
nZd:__ZN5physx2GuL34fullContactsGenerationSphereConvexERKNS0_8CapsuleVERKNS0_11ConvexHullVERKNS_6shdfnd3aos12PsTransformVESB_PNS0_17PersistentContactERjRNS0_13ContactBufferEbRNS0_25PersistentContactManifoldERNS8_5Vec3VERKNS8_6FloatVEb
Zyd:__ZN5physx19NpRigidBodyTemplateINS_14PxRigidDynamicEE16setRigidBodyFlagENS_15PxRigidBodyFlag4EnumEb
J0g:_HMAC_get_Key_m2528863640
$1f:_Collection_1_IsSynchronized_m1366278230_gshared
cai:__ZL93StringBuilder_t1221177846_CustomAttributesCacheGenerator_StringBuilder_AppendLine_m1686706871P21CustomAttributesCache
p6c:__ZN5physx6shdfnd8PoolBaseINS_2Sc19ConstraintGroupNodeENS0_19ReflectionAllocatorIS3_EEE17releaseEmptySlabsEv
nOb:__Z29Transfer_Blittable_ArrayFieldI14SafeBinaryRead8Vector4fEvRT_R9ArrayInfoRK23StaticTransferFieldInfo
FZe:_Array_get_swapper_TisInt32_t2071877448_m2837069166_gshared
tIi:_RectTransform_INTERNAL_get_rect_m1177342209
Ufg:_PointerEventData_IsScrolling_m1971908975
igg:__ZN16VirtFuncInvoker1IP22MouseState_t3572864619iE6InvokeEjPvi
p$k:__GLOBAL__sub_I_RCW_cpp
mOc:__ZN5physx3Cct8SweptBoxD2Ev
sli:__ZL53UILineInfo_t3621277874_CustomAttributesCacheGeneratorP21CustomAttributesCache
KPd:__ZN5physx2Cm12DelegateTaskINS_13PxsCCDContextEXadL_ZNS2_12postCCDSweepEPNS_10PxBaseTaskEEEED0Ev
wzf:_Decimal_System_IConvertible_ToInt16_m3159038792
my:__ZN7mecanim9animation12EvaluateClipEPKNS0_4ClipEPKNS0_9ClipInputEPNS0_10ClipMemoryEPNS0_10ClipOutputE
cxh:_HashAlgorithm_get_CanReuseTransform_m160024219
y_c:__ZN5physx3Cct9SweepTest15onObstacleAddedEjPKNS_17PxObstacleContextERKNS_6PxVec3ES7_f
$3c:__ZN5physx2Gu10SupportMapD2Ev
Jsb:__ZN4PPtrI11LightProbesE8TransferI18StreamedBinaryReadILb0EEEEvRT_
lZj:_ComVisibleAttribute__ctor_m1789587486
ied:__ZNK5physx15NpActorTemplateINS_18PxArticulationLinkEE22getClientBehaviorFlagsEv
qIh:_MonoMethodInfo_GetReturnType_m2864247130
_Hc:__ZN16Physics2DManager25DestroyColliderCollisionsEP10Collider2D
si:_JS_WebRequest_Release
gFg:_DirectoryNotFoundException__ctor_m2242202556
jed:__ZNK5physx15NpActorTemplateINS_18PxArticulationLinkEE12getAggregateEv
H9a:__ZNSt3__26__treeINS_12__value_typeINS_12basic_stringIcNS_11char_traitsIcEENS_9allocatorIcEEEE17MessageIdentifierEENS_19__map_value_compareIS7_S9_NS_4lessIS7_EELb1EEENS5_IS9_EEE7destroyEPNS_11__tree_nodeIS9_PvEE
TVe:_String_CreateString_m2448464375
skh:_X509SubjectKeyIdentifierExtension__ctor_m2959112706
cGh:_FieldInfo_get_IsNotSerialized_m2322769148
$Fd:__ZNK5physx7NpScene18getStaticStructureEv
Sdi:__ZL68Math_t2022911894_CustomAttributesCacheGenerator_Math_Max_m2671311541P21CustomAttributesCache
NPd:__ZN5physx13PxsCCDContext12postCCDSweepEPNS_10PxBaseTaskE
qYk:__ZN6il2cpp8metadata15GenericMetadata7InflateEPK19Il2CppGenericMethodPK20Il2CppGenericContext
jIh:_MonoGenericCMethod_get_ReflectedType_m2689239043
k2a:__ZN22PerThreadPageAllocatorC2Ev
a2f:_Collection_1_IsFixedSize_m499196375_gshared
Qkg:_ColorTween_set_startColor_m3546206870_AdjustorThunk
nce:__ZN5physx6shdfnd10Foundation19AlignCheckAllocator28deregisterAllocationListenerERNS_20PxAllocationListenerE
Kdd:__ZN5physx2Sc21ArticulationJointCore12setChildPoseERKNS_11PxTransformE
tQj:_InternalEnumerator_1_get_Current_m4083613828_gshared
bUf:_List_1_System_Collections_IList_get_IsReadOnly_m1745992999_gshared
vNk:__ZN13Il2CppHashMapINSt3__24pairIPK9EventInfoP11Il2CppClassEEj17ReflectionMapHashIS7_E19ReflectionMapEqualsIS7_ENS0_9allocatorINS1_IK10KeyWrapperIS7_EjEEEEEC2EjRKS9_RKSB_
$rc:__ZN8GUIState8EndOnGUIEv
gZe:_UnicodeEncoding_GetString_m542738941
Xtc:__Z32GUIStyle_Set_Custom_PropWordWrapP12Il2CppObjecth
lwe:_UNITY_TT_Get_VMetrics
HEg:_Path_InsecureGetFullPath_m2635272425
drf:_Enumerator_Clone_m1124749523
gxf:_DateTime_System_IConvertible_ToUInt32_m1363211018
$Rd:__ZN5physx33solveContactCoulombBlockWriteBackEPKNS_23PxcSolverConstraintDescEjRNS_16PxcSolverContextEPNS_25PxcThresholdStreamElementEjPi
auh:_RuntimeMethodHandle__ctor_m1162528746
oTf:_List_1_AsReadOnly_m4108578222_gshared
OZd:__ZN5physx9PxTaskMgr17submitUnnamedTaskERNS_6PxTaskENS_10PxTaskType4EnumE
wwh:_DSA__ctor_m613430209
LZe:_Array_get_swapper_TisPlayable_t3667545548_m4216505466_gshared
g0e:_SetPropertyUtility_SetStruct_TisSingle_t2076509932_m3849235084_gshared
zEa:__ZN7Texture21GetMasterTextureLimitEv
aOk:__ZN6il2cpp2vm10Reflection12HasAttributeEP12Il2CppObjectP11Il2CppClass
rUa:_UNITY_png_write_sRGB
Kyc:__ZN8JSONRead21TransferSTLStyleArrayI13dynamic_arrayI4AABBLj4EEEEvRT_18MemLabelIdentifier17TransferMetaFlags
agk:_InvokableCall_1__ctor_m121193486_gshared
i5:__ZN9ShaderLabL25StaticInitializeShaderLabEPv
ORh:_Dictionary_2_ContainsKeyValuePair_m3818021458_gshared
GNd:__ZNK5physx2Sq12BucketPruner5sweepERKNS0_9ShapeDataERKNS_6PxVec3ERfRNS0_14PrunerCallbackE
T:Math_max
k2f:_Collection_1_System_Collections_IList_Insert_m1511106741_gshared
utk:__ZL24UnresolvedVirtualCall_92P12Il2CppObjectPK10MethodInfo
PGk:_il2cpp_class_get_methods
KEg:_Path_CanonicalizePath_m383914732
Oc:invoke_viiiiiffii
NXj:_Enumerator_System_Collections_IEnumerator_get_Current_m1631145297_gshared
llf:_ArrayList_Synchronized_m2395071980
t1k:__ZN6il2cpp2os6Thread16GetCurrentThreadEv
uHi:_Rect_get_min_m2549872833
nhe:__ZN5physx6shdfnd8internal8HashBaseINS0_4PairIKPKNS0_14NamedAllocatorEPKcEES6_NS0_4HashIS6_EENS1_11HashMapBaseIS6_S9_SC_NS0_20NonTrackingAllocatorEE6GetKeyESE_Lb1EE15reserveInternalEj
pKg:_UnexceptionalStreamWriter_Write_m3206913035
DBb:__ZThn28_N14SpriteRendererD1Ev
zkb:__ZN10TagManager8TransferI19StreamedBinaryWriteILb0EEEEvRT_
PXb:__ZN11PreloadData23VirtualRedirectTransferER18StreamedBinaryReadILb0EE
H7k:__ZN6il2cpp6icalls8mscorlib6System10ReflectionL40il2cpp_class_get_generic_type_definitionEP11Il2CppClass
uwh:_DESTransform_ProcessBlock_m2826669227
qYi:__Z115RuntimeInvoker_Void_t1841601450_Il2CppObject_Int32_t2071877448_Int32_t2071877448_SByte_t454417549_Int32_t2071877448PK10MethodInfoPvPS2_
BAg:_Int16_CompareTo_m3493496879
p4i:__Z36RuntimeInvoker_Direction_t1525323322PK10MethodInfoPvPS2_
kji:__ZL56RenderTexture_t2666733923_CustomAttributesCacheGeneratorP21CustomAttributesCache
eni:__ZL56ColorWriteMask_t926634530_CustomAttributesCacheGeneratorP21CustomAttributesCache
Bwb:__ZN6Sprite17MainThreadCleanupEv
Mfi:__ZL56OidCollection_t3790243618_CustomAttributesCacheGeneratorP21CustomAttributesCache
a9h:__ZL61SignatureDescription_t89145500_CustomAttributesCacheGeneratorP21CustomAttributesCache
VPj:_InternalEnumerator_1_MoveNext_m3389738333_AdjustorThunk
WQ:__ZN10AudioMixer14UpdateMuteSoloEv
BNb:__ZNSt3__26vectorINS_12basic_stringIcNS_11char_traitsIcEE13stl_allocatorIcL18MemLabelIdentifier1ELi16EEEES4_IS7_LS5_1ELi16EEE6assignINS_11__wrap_iterIPS7_EEEENS_9enable_ifIXaasr21__is_forward_iteratorIT_EE5valuesr16is_constructibleIS7_NS_15iterator_traitsISF_E9referenceEEE5valueEvE4typeESF_SF_
UUa:__Z17GetMonoManagerPtrv
nCj:_Component_GetComponents_m637589504
xld:__ZN5physx6shdfnd5ArrayINS_3Scb13MaterialEventENS0_19ReflectionAllocatorIS3_EEE15growAndPushBackERKS3_
UVf:_Stack_1_System_Collections_ICollection_get_SyncRoot_m3151629354_gshared
Idj:_MaskableGraphic_UnityEngine_UI_IClippable_get_gameObject_m954171032
Bka:__ZN9ShaderLab10SubProgram7CompileEv
KDa:__ZN7ApiGLES16SetPatchVerticesEi
Tza:__ZN9GfxDevice12PresentFrameEPK14ChannelAssigns
e8c:__ZN5physx2Sc5Scene11onBodySleepEPNS0_7BodySimE
kq:__ZN6Object12SetHideFlagsEi
JOa:__ZN10MemoryFileC2E18MemLabelIdentifierP14MemoryFileData14FilePermission
aph:_TrackingServices_NotifyUnmarshaledObject_m1794048369
Hwk:__ZN6il2cpp2vm5Class20FromGenericParameterEPK22Il2CppGenericParameter
i7h:__ZL59RemotingServices_t2399536837_CustomAttributesCacheGeneratorP21CustomAttributesCache
WOc:__ZL28GeomMTDCallback_PlaneCapsuleRN5physx6PxVec3ERfRKNS_10PxGeometryERKNS_11PxTransformES5_S8_
pda:__ZN15GlobalCallbacksC2Ev
Meb:__ZN11AssetBundle8TransferI14SafeBinaryReadEEvRT_
z$i:__Z97RuntimeInvoker_Void_t1841601450_PlayableU26_t3233213460_Int32_t2071877448_PlayableU26_t3233213460PK10MethodInfoPvPS2_
D7e:_Array_InternalArray__set_Item_TisLabelFixup_t4090909514_m565370771_gshared
$Ic:__ZN7b2World10CreateBodyEPK9b2BodyDef
Byk:__ZN15dense_hashtableINSt3__24pairIK10KeyWrapperIPK19Il2CppGenericMethodEPK26Il2CppGenericMethodIndicesEES6_N6il2cpp8metadata23Il2CppGenericMethodHashEN14dense_hash_mapIS6_SA_SE_NSD_26Il2CppGenericMethodCompareENS0_9allocatorISB_EEE9SelectKeyESG_SI_ED2Ev
Mme:_UNITY_FT_New_Memory_Face
Zkd:__ZNK5physx10NpMaterial18getDynamicFrictionEv
Agi:__ZL74X509Crl_t1699034837_CustomAttributesCacheGenerator_U3CU3Ef__switchU24map13P21CustomAttributesCache
mth:_SerializationEntry__ctor_m1619256036_AdjustorThunk
KRa:__ZZ23InitPlayerLoopCallbacksvEN43PostLateUpdatePlayerSendFrameCompletestruct7ForwardEv
WQe:__Z15CastclassSealedP12Il2CppObjectP11Il2CppClass
g3b:__ZN15ApplicationInfo14GetSandboxTypeEv
Uld:__ZN5physx9NpPhysics16createConvexMeshERNS_13PxInputStreamE
RHj:_Playable_IsValid_m2102916683_AdjustorThunk
VPb:__Z18Transfer_BlittableI17RemapPPtrTransferLb1EhEvRK29SerializationCommandArgumentsR31RuntimeSerializationCommandInfo
_2k:__ZNSt3__26vectorIjNS_9allocatorIjEEE26__swap_out_circular_bufferERNS_14__split_bufferIjRS2_EE
O4a:__ZN16ReflectionProbes40UpdateRealtimeReflectionProbesTimeslicedEv
YNk:__ZN15dense_hashtableINSt3__24pairIK10KeyWrapperINS1_IPK14Il2CppAssemblyP11Il2CppClassEEEjEES9_17ReflectionMapHashIS8_EN14dense_hash_mapIS9_jSD_19ReflectionMapEqualsIS8_ENS0_9allocatorISB_EEE9SelectKeyESG_SI_E14squash_deletedEv
Lnk:_ListPool_1_Get_m529219189_gshared
TWk:__ZNSt3__26__treeINS_12__value_typeIP24Il2CppReflectionAssemblyPvEENS_19__map_value_compareIS3_S5_NS_4lessIS3_EELb1EEENS_9allocatorIS5_EEE16__insert_node_atEPNS_16__tree_node_baseIS4_EERSF_SF_
mja:__ZN13RenderManager16SetCurrentCameraEP6Camera
lEh:_MethodBuilder_GetBaseDefinition_m774166361
ozk:__ZNK15dense_hashtableI10KeyWrapperIPK17Il2CppGenericInstES4_N6il2cpp8metadata21Il2CppGenericInstHashEN14dense_hash_setIS4_S7_NS6_24Il2CppGenericInstCompareENSt3__29allocatorIS4_EEE8IdentityES9_SC_E10test_emptyERK30dense_hashtable_const_iteratorIS4_S4_S7_SE_S9_SC_E
r7c:__ZN5physx2Sq17SceneQueryManager8addShapeERKNS_7NpShapeERKNS_12PxRigidActorEbPNS_9PxBounds3E
y$b:__ZN18StreamedBinaryReadILb1EE21TransferSTLStyleArrayI13dynamic_arrayIN9ShaderLab21SerializedBindChannelELj4EEEEvRT_17TransferMetaFlags
v8k:__ZN6il2cpp5utils5MatchENSt3__212basic_stringIcNS1_11char_traitsIcEENS1_9allocatorIcEEEEjRKS7_j
Ene:_UNITY_FT_Destroy_Class_psnames_module_class
VFc:__ZNK12b2WheelJoint17GetReactionTorqueEf
b4j:_MRUList_Evict_m2430323183
q6f:_ReadOnlyCollection_1_System_Collections_Generic_ICollectionU3CTU3E_Remove_m1060547576_gshared
SVk:__ZN6il2cpp2vm5Image9GetCorlibEv
Rvb:__ZN2UI13RectTransform8TransferI18StreamedBinaryReadILb1EEEEvRT_
voe:_ft_bitmap_glyph_bbox
wYk:__ZN6il2cpp2vm11MethodStack17GetStackFramesRawEv
epd:__ZNK5physx15NpActorTemplateINS_7PxClothEE14getOwnerClientEv
ZBj:_Component_GetComponent_m4225719715
IRd:__ZNK5physx2Gu29EPASupportMapPairRelativeImplINS0_8CapsuleVES2_E9doSupportERKNS_6shdfnd3aos5Vec3VERS6_S9_S9_
_9e:_Array_Sort_TisVector4_t2243707581_m474199742_gshared
ybe:__ZN5physx10SubSortSAH5sort4EPjjRNS_6shdfnd5ArrayINS_11RTreeNodeNQENS2_19ReflectionAllocatorIS4_EEEERjjPS4_
Myi:_GUIStyle_InitCopy_m3676786505
ZJg:_TextWriter_Write_m576684782
nlk:_Vector3_Max_m2105825185
ok:_glIsVertexArray
IOa:__ZN25SingleBlockMemoryFileDataC2E18MemLabelIdentifierPvjb
Elb:__ZN5Unity9Component8TransferI18StreamedBinaryReadILb0EEEEvRT_
dEg:__ZN16VirtFuncInvoker0IhE6InvokeEjPv
da:invoke_fff
Dkj:_Text_get_fontSize_m3105730761
wul:b14
b8g:_TlsServerHello_Update_m1740270635
wge:__ZN5physx2Sc7PhysicsC2ERKNS_17PxTolerancesScaleERKNS_14PxvOffsetTableE
Fye:__ZN2UI6Canvas17MainThreadCleanupEv
$Cb:__ZNSt3__26vectorI14SubstanceInputNS_9allocatorIS1_EEE6assignINS_11__wrap_iterIPS1_EEEENS_9enable_ifIXaasr21__is_forward_iteratorIT_EE5valuesr16is_constructibleIS1_NS_15iterator_traitsISA_E9referenceEEE5valueEvE4typeESA_SA_
hhj:_ScrollRect_Rebuild_m3423824761
sTf:_List_1_Find_m3862454845_gshared
Sei:__ZL85Locale_t4255929015_CustomAttributesCacheGenerator_Locale_GetText_m1445803604____args1P21CustomAttributesCache
S3j:_MatchCollection_get_Item_m2609281578
GKa:__ZN7ApiGLES13CreateProgramEv
v_i:__Z74RuntimeInvoker_Boolean_t3825574718_Vector3_t2243707580_Vector3_t2243707580PK10MethodInfoPvPS2_
wmj:_UTF8Encoding__ctor_m100325490
MEa:__ZN4crnd12crn_unpackerD2Ev
gkj:_StencilMaterial_ClearAll_m1372779118
Dk:_emscripten_glTexImage2D
X4i:__Z52RuntimeInvoker_Void_t1841601450_UIVertex_t1204258818PK10MethodInfoPvPS2_
snh:_ObjRefSurrogate_SetObjectData_m1873902916
Yve:_tt_driver_class_pic_init
l6:__ZN18ScriptingArguments9AddStringEPKc
rRk:__ZN15dense_hashtableINSt3__24pairIK10KeyWrapperIP11Il2CppClassES4_EES5_N6il2cpp8metadata16SZArrayClassHashEN14dense_hash_mapIS5_S4_SA_NS9_19SZArrayClassCompareENS0_9allocatorIS7_EEE9SelectKeyESC_SE_E13set_empty_keyERKS7_
v4f:_ReadOnlyCollection_1_System_Collections_IList_get_IsReadOnly_m1367736517_gshared
Ihi:__ZL116Component_t3819376471_CustomAttributesCacheGenerator_Component_GetComponentsInParent_m1920178904____includeInactive1P21CustomAttributesCache
Gql:runPostSets
HRd:__ZNK5physx2Gu29EPASupportMapPairRelativeImplINS0_8CapsuleVES2_E18doWarmStartSupportEiiRNS_6shdfnd3aos5Vec3VES7_S7_
Zoi:__ZL93AxisEventData_t1524870173_CustomAttributesCacheGenerator_AxisEventData_set_moveDir_m254243794P21CustomAttributesCache
Tta:__ZL23stbir__resize_arbitraryPvPKviiiS_iiiffffPfiij14stbir_datatype12stbir_filterS4_10stbir_edgeS5_16stbir_colorspace
nOf:_List_1_System_Collections_IList_Insert_m848656350_gshared
cRb:__Z18Transfer_BlittableI24GenerateTypeTreeTransferLb1E8Vector4fEvRK29SerializationCommandArgumentsR31RuntimeSerializationCommandInfo
$Ag:_Int16_ToString_m3971652088_AdjustorThunk
Nk:_pthread_detach
KDk:__ZN6il2cpp2vm19SocketPollingThread7RunLoopEv
CGf:_KeyValuePair_2__ctor_m1640124561_AdjustorThunk
b3j:_MethodDictionary_AllocInternalProperties_m3261295876
wWi:__Z197RuntimeInvoker_Boolean_t3825574718_Il2CppObject_Il2CppObject_Il2CppObject_Int32_t2071877448_DateTimeU26_t3448131235_SByte_t454417549_BooleanU26_t3168250738_SByte_t454417549_ExceptionU26_t1467204777PK10MethodInfoPvPS2_
QMd:__ZN5physx11EdgeManager6resizeEj
Xeh:_IPv6Address_set_ScopeId_m1442934355
pne:__ZN13TextRendering4Font7PRODUCEE18MemLabelIdentifier18ObjectCreationMode
Ngi:__ZL77U3CPrivateImplementationDetailsU3E_t1486305139_CustomAttributesCacheGeneratorP21CustomAttributesCache
e0b:__ZN9ShaderLab25SerializedTextureProperty8TransferI24GenerateTypeTreeTransferEEvRT_
qbg:_Comparison_1_Invoke_m2645957248_gshared
pCl:_emscripten_glIsShader__wrapper
mre:_tt_cmap14_char_next
I3h:__ZL69AssemblyTrademarkAttribute_t3740556705_CustomAttributesCacheGeneratorP21CustomAttributesCache
KAa:__ZN13GfxDeviceGLES28GetNativeVertexBufferPointerEP9GfxBuffer
Izd:__ZN5physx2Sc5Scene12removeStaticERNS0_10StaticCoreERNS_6shdfnd11InlineArrayIPKNS0_9ShapeCoreELj64ENS4_19ReflectionAllocatorIS8_EEEEb
zJk:__ZN15dense_hashtableINSt3__24pairIK10KeyWrapperIPK10Il2CppTypeEjEES6_N6il2cpp8metadata14Il2CppTypeHashEN14dense_hash_mapIS6_jSB_NSA_17Il2CppTypeCompareENS0_9allocatorIS8_EEE9SelectKeyESD_SF_E15insert_noresizeERKS8_
Pia:__ZN11NamedObject8TransferI18StreamedBinaryReadILb0EEEEvRT_
zJa:__ZNK17GPUSkinPoseBuffer12GetBoneCountEv
ouc:__Z32GUIStyle_Get_Custom_PropFontSizeP12Il2CppObject
hth:_DelegatePInvokeWrapper_CallbackHandler_t362827733
lei:__ZL59ResolveEventArgs_t1859808873_CustomAttributesCacheGeneratorP21CustomAttributesCache
Kgk:_UnityAction_1_BeginInvoke_m3462722079_gshared
WFh:_EventInfo_get_MemberType_m3337516651
_xc:__Z18Transfer_BlittableI8JSONReadLb1EyEvRK29SerializationCommandArgumentsR31RuntimeSerializationCommandInfo
il:_emscripten_glMatrixMode
_w:__ZN8Animator23VirtualRedirectTransferER18StreamedBinaryReadILb0EE
l3h:__ZL93TypeBuilder_t3308873219_CustomAttributesCacheGenerator_TypeBuilder_GetConstructors_m774120094P21CustomAttributesCache
R8a:__Z22CalculateTransformPathRK9TransformPS0_
o7d:__ZN5physx13GuMeshFactory17createHeightFieldERNS_13PxInputStreamE
RCd:__ZN5physx2Sc10NPhaseCore25createShapeInstancePairLLERNS0_8ShapeSimES3_NS_7PxFlagsINS_10PxPairFlag4EnumEtEE
cnh:_MethodReturnDictionary__ctor_m756139344
OW:__ZN11UnityEngine15CloudWebService14DataDispatcher16PrepareDataBlockERNS0_16SessionContainerE
DHj:_CustomAnimationPlayable_AddInput_m3120035390
WDd:__ZThn8_N5physx2Sc19ShapeInstancePairLL12onDeactivateEj
PMj:_InternalEnumerator_1__ctor_m967618647_gshared
C7k:__ZN6il2cpp6icalls8mscorlib6System9Threading7Monitor4ExitEP12Il2CppObject
R9i:__Z62RuntimeInvoker_ParameterModifier_t1820634920_Int32_t2071877448PK10MethodInfoPvPS2_
_Tb:__ZL26Transfer_SimpleNativeClassI18StreamedBinaryReadILb0EE10RectOffsetLb0EEvRK29SerializationCommandArgumentsR31RuntimeSerializationCommandInfo
Bne:_UNITY_ft_destroy_default_module_classes
kWg:_SymmetricTransform_FinalDecrypt_m3674669784
RLf:_List_1_CheckMatch_m1772343151_gshared
x_a:__ZL12DepthPassJobPN21GfxDeviceAsyncCommand10ArgScratchEPKNS_3ArgE
j_b:__ZNSt3__26vectorIN9ShaderLab20SerializedSubProgram16TextureParameterENS_9allocatorIS3_EEE6assignINS_11__wrap_iterIPS3_EEEENS_9enable_ifIXaasr21__is_forward_iteratorIT_EE5valuesr16is_constructibleIS3_NS_15iterator_traitsISC_E9referenceEEE5valueEvE4typeESC_SC_
sDg:_IntPtr_Equals_m1214967011_AdjustorThunk
tce:__ZN9Rigidbody16ApplyConstraintsEv
kSf:_List_1_Add_m3591975577_gshared
xCe:__Z55Register_UnityEngine_CanvasGroup_get_ignoreParentGroupsv
Gzg:_Guid_Equals_m2389236871
dpi:__ZL100PointerEventData_t1599784723_CustomAttributesCacheGenerator_U3CpointerPressRaycastU3Ek__BackingFieldP21CustomAttributesCache
Rlk:_Vector4_ToString_m2340321043
sn:FUNCTION_TABLE_iiiiiiiiiiii
Uea:__Z24InitializeIl2CppFromMainRKNSt3__212basic_stringIcNS_11char_traitsIcEENS_9allocatorIcEEEES7_iPPKc
yvd:__ZN5physx2Sc17ParticleSystemSim8setFlagsEj
umb:__ZN16GraphicsSettingsD0Ev
ebb:__Z29StdTemplateConversionFunctionIshEbPvR14SafeBinaryRead
QWa:__ZN15LODGroupManager21CalculateLODDataArrayERK13LODParametersPK6Cameraf
m:cttz_i8
Rte:_UNITY_FT_GlyphLoader_Add
Udl:_uselocale
UMj:_InternalEnumerator_1_System_Collections_IEnumerator_get_Current_m1004764375_AdjustorThunk
qae:__ZN5physx2Gu15EdgeListBuilder18CreateEdgesToFacesEjPKjPKt
HWc:__ZN5physx11PxMeshQuery5sweepERKNS_6PxVec3EfRKNS_10PxGeometryERKNS_11PxTransformEjPKNS_10PxTriangleERNS_10PxSweepHitENS_7PxFlagsINS_9PxHitFlag4EnumEtEEPKjfb
GJa:__Z26TransformVerticesInnerLoopILb0ELb0ELb0EEvPhRK10Matrix4x4fRK10Matrix3x3fjPKhiiiS8_ii25GfxTransformVerticesFlags
MCk:__ZNK15dense_hashtableINSt3__24pairIK10KeyWrapperIPK19Il2CppGenericMethodEPK26Il2CppGenericMethodIndicesEES6_N6il2cpp8metadata23Il2CppGenericMethodHashEN14dense_hash_mapIS6_SA_SE_NSD_26Il2CppGenericMethodCompareENS0_9allocatorISB_EEE9SelectKeyESG_SI_E12test_deletedERK24dense_hashtable_iteratorISB_S6_SE_SK_SG_SI_E
Idi:__ZL47Guid_t2533601593_CustomAttributesCacheGeneratorP21CustomAttributesCache
Pki:__ZL108Physics2D_t2540166467_CustomAttributesCacheGenerator_Physics2D_GetRayIntersectionAll_m253330691____distance1P21CustomAttributesCache
_3j:_MRUList__ctor_m2726533367
Sxg:_DateTimeFormatInfo_get_FullDateTimePattern_m2607507656
B8g:_HttpsClientStream_RaiseServerCertificateValidation_m3356770426
q$h:__ZL73Il2CppArray_CustomAttributesCacheGenerator_Array_BinarySearch_m3052238307P21CustomAttributesCache
aBf:_DelegateSerializationHolder__ctor_m3915060553
saf:_Array_swap_TisUIVertex_t1204258818_TisUIVertex_t1204258818_m1163375424_gshared
em:_emscripten_glViewport
b3k:__ZN6il2cpp6icalls8mscorlib6System15MonoCustomAttrs17IsDefinedInternalEP12Il2CppObjectP20Il2CppReflectionType
Oyb:__ZN4Mesh21UnswizzleVertexColorsEb
Su:__ZN18StreamedBinaryReadILb1EE21TransferSTLStyleArrayI13dynamic_arrayI11KeyframeTplI8Vector3fELj4EEEEvRT_17TransferMetaFlags
S7g:_TlsServerSettings_set_CertificateTypes_m264196087
dOj:_InternalEnumerator_1__ctor_m4150855019_gshared
$xf:_DateTime_ToString_m2276663647_AdjustorThunk
Vve:_cff_parse_font_bbox
ohc:__Z35Application_Get_Custom_PropIsEditorv
VXc:__Z14raycast_sphereRKN5physx10PxGeometryERKNS_11PxTransformERKNS_6PxVec3ES8_fNS_7PxFlagsINS_9PxHitFlag4EnumEtEEjPNS_12PxRaycastHitEbPFbRSD_PvESG_
DFb:__ZN14PlayerSettings23VirtualRedirectTransferER18StreamedBinaryReadILb0EE
k8:__ZN13MonoBehaviour19RebuildMonoInstanceEP11Il2CppClassP12Il2CppObjectP10MonoScript
IZe:_Array_get_swapper_TisCustomAttributeTypedArgument_t1498197914_m2780757375_gshared
_Ff:_KeyValuePair_2__ctor_m3201181706_AdjustorThunk
Mbl:__ZN6il2cpp2os5Event5ResetEv
F2a:__Z26CombineDepthNormalsTextureRK17RenderLoopContextR13dynamic_arrayI16RenderObjectDataLj4EE
Hdk:_AesManaged__ctor_m2322442838
bYk:__ZN6il2cpp8metadata15GenericMetadata17InflateParametersEPK13ParameterInfohPK20Il2CppGenericContextb
ECg:_Int64_System_IConvertible_ToUInt32_m850395426_AdjustorThunk
k7:__ZN18AwakeFromLoadQueue28InvokePersistentManagerAwakeEPNS_4ItemEj17AwakeFromLoadMode
xCh:_TypeBuilder_GetMethodsByName_m229541072
pX:__ZNSt3__215basic_stringbufIcNS_11char_traitsIcEENS_9allocatorIcEEE7seekposENS_4fposI11__mbstate_tEEj
UIe:_HMACSHA512__ctor_m2390736870
a3d:__ZNK5physx2Cm12DelegateTaskINS_2Sc5SceneEXadL_ZNS3_23postIslandGenSecondPassEPNS_10PxBaseTaskEEEE7getNameEv
K9k:__ZNSt3__26__treeINS_12__value_typeIPvxEENS_19__map_value_compareIS2_S3_NS_4lessIS2_EELb1EEENS_9allocatorIS3_EEE16__insert_node_atEPNS_16__tree_node_baseIS2_EERSD_SD_
ZBb:__ZN4PPtrI6SpriteE8TransferI18StreamedBinaryReadILb0EEEEvRT_
oWa:__ZNK6Camera23CalculateShadowDistanceEv
tCh:_TypeBuilder_GetInterfaces_m1818658502
gah:_TlsException_get_Alert_m4022765752
E_g:_BigInteger_op_Equality_m2683055762
pfa:__Z25SetNeedToPerformRenderingb
EIh:_MonoMethod_GetPseudoCustomAttributes_m466965107
z0a:__ZNSt3__227__insertion_sort_incompleteIR23CompareReflectionProbesP31RuntimeReflectionProbeBlendInfoEEbT0_S5_T_
v1h:__ZL53SortedList_t3004938869_CustomAttributesCacheGeneratorP21CustomAttributesCache
HJi:_ResourceRequest_t2560315377_marshal_pinvoke
wLh:_Enumerator_System_Collections_IDictionaryEnumerator_get_Value_m3005608231_gshared
isk:__ZL24UnresolvedVirtualCall_26P12Il2CppObjectS0_iiPK10MethodInfo
_cj:_MaskUtilities_NotifyStencilStateChanged_m1527407683
KQd:__ZN5physxL27PxcSweepAnyShapeHeightfieldERKNS_11PxsCCDShapeES2_PKNS_12PxsRigidBodyES5_RKNS_11PxTransformES8_fRNS_6PxVec3ESA_RNS_10PxcNpCacheERNS_18PxcNpThreadContextE
yTg:_DSAManaged_GenerateKeyPair_m2711647034
pEk:__ZNSt3__214__split_bufferI6pollfdRNS_9allocatorIS1_EEED2Ev
A4e:_Array_InternalArray__ICollection_Add_TisResourceCacheItem_t333236149_m1151081240_gshared
QLd:__ZN5physx3Scb5SceneD2Ev
Auf:_Convert_ToInt32_m2209788057
az:__ZN17AnimationPlayable11DerivesFromEP11Il2CppClass
yMb:__ZN6HelperI14SafeBinaryRead23TransferArrayField_InfoE24SerializationFunctionForERKS1_R23StaticTransferFieldInfoPb
Bqh:_SoapServices_GetXmlTypeForInteropType_m3821579913
YCa:__ZN7ApiGLES13CreateTextureEj16TextureDimensionN2gl9TexFormatEiiiii
eAl:_emscripten_glTexParameterfv__wrapper
j7j:_CaptureAssertion_IsComplex_m1433259302
FHk:_il2cpp_method_get_param_count
WLc:__ZN11Rigidbody2D8TransferI19StreamedBinaryWriteILb0EEEEvRT_
xce:__Z16GetDynamicsScenev
aDd:__ZThn8_N5physx2Sc18TriggerInteraction7destroyEv
kjk:_TouchScreenKeyboard_get_active_m1442597648
Wfi:__ZL68Uri_t19570940_CustomAttributesCacheGenerator_U3CU3Ef__switchU24map15P21CustomAttributesCache
lse:_ps_dimension_done
uig:_LayoutRebuilder_MarkLayoutForRebuild_m640589351
vye:__Z46Register_UnityEngine_TextGenerator_Dispose_cppv
Wfg:_PointerEventData_get_pressEventCamera_m724559964
bDb:__ZN14SubstanceInputD2Ev
bQe:_String_IndexOfUnchecked_m3356721554
Vrb:__ZN16LightmapSettings8TransferI14SafeBinaryReadEEvRT_
eGa:__ZN17BufferManagerGLES13ReleaseBufferEP14DataBufferGLES
x4c:__ZN5physx6shdfnd5ArrayIPvNS0_19ReflectionAllocatorINS_16NpConnectorArrayEEEE15growAndPushBackERKS2_
UDi:_Mesh_CheckCanAccessSubmesh_m1826512193
t8:__Z64scripting_unity_engine_object_new_and_invoke_default_constructorP11Il2CppClassP6ObjectPP15Il2CppException
ZBd:__ZN5physx2Sc5Scene15prepareSimulateEv
Yxc:__Z18Transfer_BlittableI8JSONReadLb1EjEvRK29SerializationCommandArgumentsR31RuntimeSerializationCommandInfo
b6c:__ZN5physx6shdfnd5ArrayIPNS_2Sc11InteractionENS0_19ReflectionAllocatorIS4_EEE8recreateEj
Dti:__ZL63ScrollRect_t1199013257_CustomAttributesCacheGenerator_m_InertiaP21CustomAttributesCache
vak:_PKCS12_Decrypt_m1557069392
Vkj:_VertexHelper_AddUIVertexQuad_m280792808
Nfh:_WebHeaderCollection_ToString_m1246460752
jbj:__Z37RuntimeInvoker_Enumerator_t2983962278PK10MethodInfoPvPS2_
BIj:_Font_get_fontSize_m1732593415
bq:stackSave
lgl:__ZNSt3__213basic_istreamIcNS_11char_traitsIcEEED1Ev
Hse:_ps_dimension_end
_lc:__Z41Register_UnityEngine_Mesh_Internal_Createv
Qcb:__ZN16MemoryFileSystem5TouchER13FileEntryData
xBb:__ZN14SpriteRenderer23VirtualRedirectTransferER24GenerateTypeTreeTransfer
_Ke:_RIPEMD160Managed_JJ_m2933451431
hje:__Z63Register_UnityEngine_Physics_INTERNAL_CALL_Internal_RaycastTestv
yJe:_MACTripleDES_Initialize_m1318099802
v1g:_MD5SHA1_VerifySignature_m507888141
Vhf:_Byte_System_IConvertible_ToChar_m4188836679
Axg:_NumberFormatter_InitDecHexDigits_m2036076025
$Lh:_Enumerator_get_CurrentKey_m3839846791_AdjustorThunk
uyc:__ZN8JSONRead21TransferSTLStyleArrayI13dynamic_arrayIaLj1EEEEvRT_18MemLabelIdentifier17TransferMetaFlags
G5a:__ZN6Camera9SetAspectEf
Zkg:_ColorTween_get_ignoreTimeScale_m641454126_AdjustorThunk
ya:invoke_viiffiii
gIk:__ZN15dense_hashtableINSt3__24pairIK10KeyWrapperINS1_IPK14Il2CppAssemblyP11Il2CppClassEEEjEES9_17ReflectionMapHashIS8_EN14dense_hash_mapIS9_jSD_19ReflectionMapEqualsIS8_ENS0_9allocatorISB_EEE9SelectKeyESG_SI_E4findERSA_
R_g:_Kernel_modInverse_m3230829577
W3f:_ReadOnlyCollection_1_Contains_m1800950533_gshared
hqb:__ZN12CubemapArray8TransferI18StreamedBinaryReadILb1EEEEvRT_
qqi:__ZL79TouchInputModule_t2561058385_CustomAttributesCacheGenerator_m_ForceModuleActiveP21CustomAttributesCache
GBl:_emscripten_glBindVertexArray__wrapper
Z0g:_MD4__ctor_m2366413460
MDj:_Display__ctor_m563295973
xRh:_Dictionary_2_InitArrays_m435313205_gshared
CL:__ZN10ObjectPoolIN4FMOD3DSPENS0_4DSPIEE7GetFreeEi
z6a:__ZN9Transform37InitializeTransformHierarchyRecursiveER18TransformHierarchyRii
uZh:__ZL80Decimal_t724701077_CustomAttributesCacheGenerator_Decimal_op_Implicit_m233687092P21CustomAttributesCache
pog:_Graphic_get_useLegacyMeshGeneration_m1366444625
yfh:_ServicePointManager_get_CheckCertificateRevocationList_m4009410230
msi:__ZL65InputField_t1631627530_CustomAttributesCacheGenerator_m_InputTypeP21CustomAttributesCache
gtk:__ZL24UnresolvedVirtualCall_78P12Il2CppObjectPK10MethodInfo
JRg:_ModulusRing_Pow_m1137250399
sel:_fscanf
VUj:_InternalEnumerator_1_MoveNext_m2410670600_AdjustorThunk
gYa:__ZN17MeshRenderingData4InitEP4MeshS1_iP15SharedGfxBufferS3_
e3g:_CipherSuite_get_HashAlgorithmType_m3902365773
tgk:_InvokableCall_2_Find_m1763382885_gshared
b6f:_ReadOnlyCollection_1_System_Collections_ICollection_get_SyncRoot_m2779904122_gshared
TIk:__ZN15dense_hashtableINSt3__24pairIK10KeyWrapperINS1_IPK9FieldInfoP11Il2CppClassEEEjEES9_17ReflectionMapHashIS8_EN14dense_hash_mapIS9_jSD_19ReflectionMapEqualsIS8_ENS0_9allocatorISB_EEE9SelectKeyESG_SI_E12resize_deltaEjj
Iof:_Hashtable__cctor_m2952659675
Zjh:_X509ChainStatus__ctor_m3628359961_AdjustorThunk
Iob:__ZN14DirectorPlayer23VirtualRedirectTransferER19StreamedBinaryWriteILb0EE
Nvi:__ZL77LayoutUtility_t4076838048_CustomAttributesCacheGenerator_U3CU3Ef__amU24cache4P21CustomAttributesCache
uQe:_Evidence_get_HostEvidenceList_m2095478124
Wpc:__Z57Register_UnityEngine_Transform_INTERNAL_set_localPositionv
B4g:_Context_Clear_m4000337070
XAa:__ZN13GfxDeviceGLES26SetRandomWriteTargetBufferEi15ComputeBufferID
Mmh:_IntervalCollection_Normalize_m538796191
chd:__ZN5physx6shdfnd4sortIPvNS0_4LessIS2_EENS0_19ReflectionAllocatorINS_2Cm5BlockIhLj256EEEEEEEvPT_jRKT0_RKT1_j
pjk:_TrackedReference_op_Equality_m3491334086
gog:_FontUpdateTracker_UntrackText_m3827316510
Gfb:__ZN18AssetBundleManager19RegisterAssetBundleEP11AssetBundle
d8d:__ZN5physx20InternalTriangleMesh7releaseEv
pPd:__ZN5physx6shdfnd5ArrayINS_16PxsCCDBlockArrayINS_13PxsCCDOverlapELi128EE9BlockInfoENS0_19ReflectionAllocatorIS5_EEE15growAndPushBackERKS5_
q7c:__ZNK5physx7NpShape8getFlagsEv
zcc:__ZNK11ICallString6ToUTF8Ev
h7j:_CaptureAssertion_get_Alternate_m2729005740
d4k:_GC_number_stack_black_listed
Rjl:__ZNKSt3__220__time_get_c_storageIwE3__cEv
dzh:_Default_SelectMethod_m3081239996
Tla:__ZN18UnityPropertySheet11UnityTexEnvC2Ev
Rqd:__ZNK5physx7NpCloth16getContactOffsetEv
Ngc:__ZNSt3__214__split_bufferIPN9BlobWrite11TypeContextENS_9allocatorIS3_EEE10push_frontERKS3_
vaa:__ZN12FileAccessor4ReadEyyPvPy
yka:__ZN13dynamic_arrayI16ShaderKeywordSetLj4EE6insertEPS0_PKS0_S4_
wVb:__Z29Transfer_Blittable_ArrayFieldI18StreamedBinaryReadILb0EE11QuaternionfEvRT_R9ArrayInfoRK23StaticTransferFieldInfo
c3j:_MethodDictionary_IsOverridenKey_m3922224650
Xpf:_SyncHashtable_Contains_m3042906549
SIc:__ZN14dense_hash_mapINSt3__24pairIPK10Collider2DS4_EE11Collision2DNS2_23ColliderPairHashFunctorENS0_8equal_toIS5_EE13stl_allocatorINS1_IKS5_S6_EEL18MemLabelIdentifier65ELi16EEE4findERSB_
Kec:__Z21GetSceneHierarchyPathPK6Object
aVf:_List_1_System_Collections_IList_set_Item_m4016273526_gshared
rkh:_X509KeyUsageExtension_CopyFrom_m931530012
c5a:__ZN13RenderTexture9SetHeightEi
zdj:__ZN21InterfaceFuncInvoker0IP25RectTransform_t3349966182E6InvokeEjP11Il2CppClassPv
Ygl:__ZNKSt3__27collateIcE7do_hashEPKcS3_
Cih:_X509Chain_get_CertificateAuthorities_m3325663784
Nnb:__ZN16LevelGameManager8TransferI24GenerateTypeTreeTransferEEvRT_
UBj:_Color32__ctor_m1932627809_AdjustorThunk
sbh:_SslStreamBase_Read_m1036897444
jYk:__ZN15dense_hashtableI10KeyWrapperIP18Il2CppGenericClassES3_N6il2cpp8metadata22Il2CppGenericClassHashEN14dense_hash_setIS3_S6_NS5_25Il2CppGenericClassCompareENSt3__29allocatorIS3_EEE8IdentityES8_SB_E12resize_deltaEjj
pGe:__ZNSt3__24pairIKN4core12basic_stringIcNS1_20StringStorageDefaultIcEEEEN11UnityEngine7Connect19RemoteSettingsValueEEC2ERKSA_
lZk:__ZNK15dense_hashtableINSt3__24pairIK10KeyWrapperIP12Il2CppObjectEN6il2cpp2gc9CachedCCWEEES5_NS7_5utils11PointerHashIS3_EEN14dense_hash_mapIS5_S9_SD_NS0_8equal_toIS5_EENS0_9allocatorISA_EEE9SelectKeyESG_SI_E12test_deletedERK24dense_hashtable_iteratorISA_S5_SD_SK_SG_SI_E
Nej:_RectMask2D_PerformClipping_m1232012832
PUk:__ZN6il2cpp6icalls8mscorlib6System2IO6MonoIO17GetFileAttributesEP12Il2CppStringPi
IMh:_Transform_1_Invoke_m4020530914_gshared
Tqe:_tt_cmap8_char_index
UJj:_GUILayoutGroup_ResetCursor_m3160916532
oNb:__Z29Transfer_Blittable_ArrayFieldI14SafeBinaryReadjEvRT_R9ArrayInfoRK23StaticTransferFieldInfo
Kzj:_Camera_FireOnPostRender_m94860165
yIb:__ZN23PreloadManagerOperationD0Ev
Fe:_emscripten_set_keydown_callback
spf:_Enumerator_get_Value_m3684748062
Bkb:__ZN19StreamedBinaryWriteILb0EE21TransferSTLStyleArrayINSt3__26vectorI17SortingLayerEntryNS2_9allocatorIS4_EEEEEEvRT_17TransferMetaFlags
Rsj:_UInt32_Parse_m3371984903
Daa:__ZN12FileAccessorC2Ev
_bk:_X509CertificateCollection_Compare_m1014334435
r6a:__ZN9Transform35SetLocalPositionWithoutNotificationERKN4math7_float3E
Vbd:__ZN5physx2Sc15ArticulationSim12applyImpulseERNS0_8BodyCoreERKNS_9PxcFsDataERKNS_6PxVec3ES9_
_xd:__ZNK5physx22NpParticleBaseTemplateINS_16PxParticleSystemENS_16NpParticleSystemEE7getTypeEv
fIj:_Playable_get_duration_m4155589845_AdjustorThunk
V4j:_PatternLinkStack_GetCurrent_m2994645935
wEc:__ZNK11b2GearJoint16GetReactionForceEf
Pag:_Comparison_1__ctor_m2929820459_gshared
CKe:__ZN16VirtFuncInvoker5IiP22ByteU5BU5D_t3397334013iiS1_iE6InvokeEjPvS1_iiS1_i
E1j:_AsyncResult__ctor_m1183194429
BI:__ZN4PPtrI13MonoBehaviourE8TransferI18StreamedBinaryReadILb0EEEEvRT_
e3j:_MethodDictionary_set_Item_m3475146889
obd:__ZNK5physx14NpArticulation26getInternalDriveIterationsEv
g8i:__Z54RuntimeInvoker_Void_t1841601450_LabelFixup_t4090909514PK10MethodInfoPvPS2_
o7h:__ZL62WellKnownObjectMode_t2630225581_CustomAttributesCacheGeneratorP21CustomAttributesCache
jlj:_Toggle_PlayEffect_m3950629415
wLg:_MonoCustomAttrs_GetCustomAttribute_m100274015
usa:__ZN13RenderManager18UpdateAllRenderersEv
uI:__ZN18AnimatorController19TransferRuntimeDataI18StreamedBinaryReadILb0EEEEvRT_
$ce:__ZThn24_N14PhysicsManagerD1Ev
kEe:__ZN22BaseUnityConnectClient30OnEnteringStatePausedOrStoppedEv
Q0f:_Collection_1_System_Collections_ICollection_get_SyncRoot_m2157752542_gshared
vBk:__ZN13dynamic_arrayIPK10Il2CppTypeLj4EE6assignEPKS2_S5_
My:__ZN7mecanim5human12HumanPoseAddERNS0_9HumanPoseERKS1_S4_
Igk:_UnityAction_1__ctor_m2836997866_gshared
axj:_Animator_ResetTrigger_m865269317
Rt:__Z14resize_trimmedINSt3__26vectorI24CompressedAnimationCurve13stl_allocatorIS2_L18MemLabelIdentifier25ELi16EEEEEvRT_j
ybi:__ZL64AssemblyLoadEventArgs_t4233815743_CustomAttributesCacheGeneratorP21CustomAttributesCache
T$f:_Collection_1_IsFixedSize_m218241296_gshared
y5b:__Z17BuildSmoothCornerjRP10LineVertexRKN4math8float4x4EPK15LineBuilderDataRKfSA_RK11ColorRGBA32
tea:__ZN15dense_hashtableINSt3__24pairIKNS0_12basic_stringIcNS0_11char_traitsIcEE13stl_allocatorIcL18MemLabelIdentifier54ELi16EEEEP11AssetBundleEES8_11djb2_hash_tIS8_EN14dense_hash_mapIS8_SB_SE_NS0_8equal_toIS8_EENS0_9allocatorISC_EEE9SelectKeyESH_SJ_EC2ERKSM_j
h6a:__Z24MergeTransformComponentsR9TransformS0_b
V6c:__ZThn24_N5physx2Sc20ArticulationJointSimD0Ev
Eyj:_DelegatePInvokeWrapper_AudioConfigurationChangeHandler_t3743753033
KHg:_MonoIO_get_PathSeparator_m2635828107
Nqh:_TypeInfo_get_TypeName_m1722081275
ODc:__ZN15b2CircleContactD0Ev
$Mg:_MonoType_get_Name_m865859211
vFf:_CultureInfo__cctor_m2290268677
MKj:_ArrayReadOnlyList_1_System_Collections_IEnumerable_GetEnumerator_m3039869667_gshared
lUe:_String_Trim_m3982520224
$0c:__ZN5physx14PxsAABBManager12createBPElemEv
Iph:_RemotingConfiguration__cctor_m2129988840
wZf:_Collection_1_Insert_m44548038_gshared
Rnd:__ZThn12_N5physx7NpShape14onRefCountZeroEv
hPc:__ZL26GeomMTDCallback_ConvexMeshRN5physx6PxVec3ERfRKNS_10PxGeometryERKNS_11PxTransformES5_S8_
k_h:__ZL42Il2CppArray_CustomAttributesCacheGeneratorP21CustomAttributesCache
pKb:__ZNK13MonoBehaviour25GetNeedsPerObjectTypeTreeEv
uhd:__ZN5physx15NpActorTemplateINS_18PxArticulationLinkEE22setClientBehaviorFlagsENS_7PxFlagsINS_25PxActorClientBehaviorFlag4EnumEhEE
mk:_emscripten_glVertexAttribPointer
zqa:__ZN14PreloadManager26UpdatePreloadingSingleStepENS_21UpdatePreloadingFlagsEi
DCi:_Material__ctor_m1440882780
wNe:_SHA512Managed_Initialize_m891287980
s3d:__ZN18ScBeforeSolverTask11runInternalEv
qwa:__Z19InitializeGfxDevicej
LQe:_SecurityException__ctor_m1484114982
i$j:_SinkProviderData_get_Children_m100594762
Fck:_X509Crl_GetHashName_m183504634
Hef:_Array_GetValue_m1507415734
Wnc:__Z57Register_UnityEngine_RectTransform_INTERNAL_set_anchorMinv
owg:_Object_MemberwiseClone_m2655589444
D3c:__ZL33GeomOverlapCallback_CapsuleConvexRKN5physx10PxGeometryERKNS_11PxTransformES2_S5_PNS_2Gu12TriggerCacheE
_4f:_ReadOnlyCollection_1_System_Collections_IList_get_Item_m375043207_gshared
Yna:__ZN6prcoreL25inner_stretch_i8_bilinearEPKNS_9InnerInfoE
dY:__ZN11UnityEngine15CloudWebService13WWWRestClient17GetResponseStatusEv
fFg:_DirectoryInfo_ToString_m4208086799
dBj:_Collision_get_transform_m4132935520
NIh:_MonoMethod_get_IsGenericMethod_m4276550811
VMh:_Transform_1_BeginInvoke_m3826027984_gshared
Mwj:_AnimationEvent_set_time_m2162176572
Ctf:_Decimal_op_Implicit_m2149927308
Dmk:_UnityEvent_1_RemoveListener_m4000386396_gshared
k8d:__ZN5physx20InternalTriangleMesh9loadRTreeERNS_13PxInputStreamEj
Xzd:__ZN5physx19NpRigidBodyTemplateINS_14PxRigidDynamicEE25setCMassLocalPoseInternalERKNS_11PxTransformE
gMf:_List_1_set_Capacity_m895816763_gshared
LAd:__ZNK5physx15NpActorTemplateINS_13PxRigidStaticEE14getOwnerClientEv
upl:__ZNSt3__212basic_stringIwNS_11char_traitsIwEENS_9allocatorIwEEE9__grow_byEjjjjjj
B_k:__ZN6il2cpp6icalls8mscorlib6System9AppDomain22InternalGetProcessGuidEP12Il2CppString
nG:__ZNK25RuntimeAnimatorController30GetAnimationClipOverrideVectorEv
ewd:__ZN5physx2Sc18ParticleSystemCore16releaseParticlesEv
WTg:_KeyPairPersistence_get_UseMachineKeyStore_m560802076
JQd:__ZNK5physx2Gu29EPASupportMapPairRelativeImplINS0_8CapsuleVENS0_4BoxVEE6getDirEv
wWf:_Collection_1_CopyTo_m1840908033_gshared
JXc:__ZN5physx2Gu20intersectTriangleBoxERKNS_6shdfnd3aos5Vec3VES5_S5_S5_S5_
VXj:_Enumerator_System_Collections_IDictionaryEnumerator_get_Entry_m345330700_AdjustorThunk
vFk:__ZNSt3__214__split_bufferIP9FieldInfoRNS_9allocatorIS2_EEEC2EjjS5_
bcg:_AbstractEventData__ctor_m3586111519
tRb:__Z18Transfer_BlittableI24GenerateTypeTreeTransferLb1EjEvRK29SerializationCommandArgumentsR31RuntimeSerializationCommandInfo
U0g:_MD2Managed_Padding_m410163267
Flj:_Toggle_UnityEngine_UI_ICanvasElement_get_transform_m4177274032
knb:__ZN11ColorRGBA328TransferI14SafeBinaryReadEEvRT_
Tfe:__ZN5physx6shdfnd5ArrayIPvNS0_19ReflectionAllocatorINS_24NpPtrTableStorageManager8PtrBlockILi4EEEEEE15growAndPushBackERKS2_
mJb:__ZN24RingBufferMemoryFileData4LockEPPv
HUf:_List_1_set_Capacity_m1734764639_gshared
cWj:_DefaultComparer__ctor_m76117625_gshared
Pta:__Z11IsHDRFormat13TextureFormat
Oyj:_Bounds__ctor_m1202659404_AdjustorThunk
jg:_emscripten_glClearDepth
jpb:__ZN8Playable12SetPlayStateE9PlayState
hbj:__Z70RuntimeInvoker_Boolean_t3825574718_Il2CppObject_BooleanU26_t3168250738PK10MethodInfoPvPS2_
Wub:__ZN14SafeBinaryRead21TransferSTLStyleArrayINSt3__26vectorIN15QualitySettings14QualitySettingENS1_9allocatorIS4_EEEEEEvRT_17TransferMetaFlags
vaf:_Array_swap_TisVector2_t2243707579_m3359959735_gshared
vFg:_File_OpenText_m4058508963
lBj:_Collision_get_frictionForceSum_m3438602686
wYi:__Z54RuntimeInvoker_Double_t4078015681_Interval_t2354235237PK10MethodInfoPvPS2_
kFb:__ZNSt3__26vectorINS_4pairIPKN5Unity4TypeE7Hash128EENS_9allocatorIS7_EEE8__appendEj
Oqh:_WellKnownClientTypeEntry__ctor_m670594074
zri:__ZL61FontData_t2614388407_CustomAttributesCacheGenerator_m_MinSizeP21CustomAttributesCache
Lu:__ZN18StreamedBinaryReadILb1EE8TransferIN7mecanim13ValueConstantEEEvRT_PKc17TransferMetaFlags
Xwf:_DateTime_System_IConvertible_ToSingle_m3927769066_AdjustorThunk
fve:_cff_font_load
hkk:_Enumerator_Reset_m950879083
J8g:_RecordProtocol_SendRecord_m2977889250
dTd:__ZN5physx35solveContactPreBlock_ConcludeStaticEPKNS_23PxcSolverConstraintDescEjRNS_16PxcSolverContextE
Zta:__ZL22stbir__encode_scanlineP11stbir__infoiPvPfiii
GYi:__Z84RuntimeInvoker_Void_t1841601450_Int32_t2071877448_Int32_t2071877448_SByte_t454417549PK10MethodInfoPvPS2_
mje:__ZN20QuadTreeNodeRenderer13StaticDestroyEPv
zT:__ZN14AudioBehaviourD2Ev
l5b:__ZN9Transform12CleanupClassEv
n8k:__ZN6il2cpp6icalls8mscorlib6System9Threading16NativeEventCalls19CloseEvent_internalE12Il2CppIntPtr
z4g:_ClientContext_set_ClientHelloProtocol_m2246603449
R5c:__ZN5physx6shdfnd5ArrayIPvNS0_15InlineAllocatorILj256ENS0_19ReflectionAllocatorINS_2Cm5BlockIS2_Lj32EEEEEEEE15growAndPushBackERKS2_
s2d:__ZN5physx18PxsSolverStartTask13setupDescTaskEv
Qme:_UNITY_FT_Set_Pixel_Sizes
Hug:_U3CMouseDragOutsideRectU3Ec__Iterator1_MoveNext_m2845491958
$_b:__ZNSt3__26vectorIN9ShaderLab19SerializedSubShaderENS_9allocatorIS2_EEE26__swap_out_circular_bufferERNS_14__split_bufferIS2_RS4_EE
kKk:__ZNK15dense_hashtableINSt3__24pairIK10KeyWrapperINS1_IPK10MethodInfoP11Il2CppClassEEEjEES9_17ReflectionMapHashIS8_EN14dense_hash_mapIS9_jSD_19ReflectionMapEqualsIS8_ENS0_9allocatorISB_EEE9SelectKeyESG_SI_E10test_emptyEj
cv:__ZN11UnityEngine9Animation28AnimationClipBindingConstant8TransferI24GenerateTypeTreeTransferEEvRT_
Y5h:__ZL59IChannelReceiver_t2788889625_CustomAttributesCacheGeneratorP21CustomAttributesCache
hhg:_StandaloneInputModule_IsModuleSupported_m623598506
JNc:__ZN5physx3Cct13BoxController6resizeEf
bRi:__Z31RuntimeInvoker_Byte_t3683104436PK10MethodInfoPvPS2_
GKh:_ResourceReader_Close_m3256966401
lvh:_SByte_ToString_m4105923225_AdjustorThunk
iib:_LZ4_compress_generic
jth:_StreamingContext_t1417235061_marshal_pinvoke_cleanup
zFf:_CultureInfo_ConstructCurrentUICulture_m3363349599
zhi:__ZL87Component_t3819376471_CustomAttributesCacheGenerator_Component_GetComponent_m3720754210P21CustomAttributesCache
Bgf:__ZN21InterfaceFuncInvoker1IxP12Il2CppObjectE6InvokeEjP11Il2CppClassPvS1_
tMg:_MonoType_GetEvent_m4160342003
xej:_RawImage_set_texture_m2400157626
Y3d:__ZN5physx6shdfnd5ArrayINS_2Cm12DelegateTaskINS_2Sc5SceneEXadL_ZNS5_19updateCCDSinglePassEPNS_10PxBaseTaskEEEEENS0_19ReflectionAllocatorIS8_EEE8recreateEj
Mqk:_PrimeHelper_ToPrime_m1606935350_gshared
axe:_Dual_Project
fWh:_EqualityComparer_1__ctor_m81618677_gshared
f4a:__ZNSt3__27__sort4IRNS_6__lessI11CulledLightS2_EEPS2_EEjT0_S6_S6_S6_T_
kPk:__ZN6il2cpp2vm14TypeNameParser26ParseArrayModifierOptionalEv
dPg:_MSCompatUnicodeTable_Level3_m260824928
gvg:_LayoutElement_OnEnable_m3478706401
qAh:_ConstructorBuilder_get_CallingConvention_m443074051
ESk:__ZN6il2cpp6icalls8mscorlib6System10Reflection8Assembly13get_code_baseEP24Il2CppReflectionAssemblyb
rLh:_Enumerator_System_Collections_IDictionaryEnumerator_get_Entry_m487599172_gshared
Shd:__ZN5physx34NpShapeGetScRigidObjectFromScbSLOWERKNS_3Scb5ShapeE
uAi:_GUIStyle_CalcMinMaxWidth_m2027503105
x0i:__Z135RuntimeInvoker_RaycastHit2D_t4063908774_Vector2_t2243707579_Vector2_t2243707579_Single_t2076509932_Int32_t2071877448_Single_t2076509932PK10MethodInfoPvPS2_
CPe:_X509Certificate_Reset_m1676863543
hUg:_KeyPairPersistence_Load_m1355205585
Vgj:_ScrollRect_get_horizontalScrollbarVisibility_m4152068235
XBg:_Int32_ToString_m2960866144_AdjustorThunk
XBk:__ZN15dense_hashtableI10KeyWrapperIPK19Il2CppGenericMethodES4_N6il2cpp8metadata23Il2CppGenericMethodHashEN14dense_hash_setIS4_S7_NS6_26Il2CppGenericMethodCompareENSt3__29allocatorIS4_EEE8IdentityES9_SC_E12maybe_shrinkEv
CDb:__ZN14SubstanceValue8TransferI18StreamedBinaryReadILb0EEEEvRT_
H6h:__ZL83MethodDictionary_t1742974787_CustomAttributesCacheGenerator_U3CU3Ef__switchU24map21P21CustomAttributesCache
J9c:__ZNK5physx21PxsBodyTransformVault12getTransformERKNS_11PxsBodyCoreE
O7i:__Z57RuntimeInvoker_Int32_t2071877448_RaycastHit2D_t4063908774PK10MethodInfoPvPS2_
e1k:__ZN6il2cpp6icalls8mscorlib6System11Environment15internalGetHomeEv
jZb:__ZN9ShaderLab26SerializedShaderDependencyC2ERKS0_
_ak:_PKCS12_get_Keys_m288413492
tBk:__ZN13dynamic_arrayIPK10Il2CppTypeLj4EE4backEv
ojb:__ZNK5Unity9Component7GetNameEv
L9i:__Z49RuntimeInvoker_Slot_t2267560602_Int32_t2071877448PK10MethodInfoPvPS2_
_Fk:__ZNSt3__214__split_bufferIN6il2cpp6icalls8mscorlib6System12PropertyPairERNS_9allocatorIS5_EEEC2EjjS8_
hxa:__ZN13RenderTexture9SetActiveEPS_i11CubemapFaceij
Oci:__ZL79Convert_t2607082565_CustomAttributesCacheGenerator_Convert_ToUInt16_m2130758075P21CustomAttributesCache
EPc:__ZN44ConvexVsHeightfieldContactGenerationCallback7onEventEjPj
cng:__ZN18VirtActionInvoker1IP22GameObject_t1756533147E6InvokeEjPvS1_
Kdi:__ZL58IFormatProvider_t2849799027_CustomAttributesCacheGeneratorP21CustomAttributesCache
mok:_ObjectPool_1_Get_m3724675538_gshared
t5:__Z27LogRepeatingStringWithFlagsRKNSt3__212basic_stringIcNS_11char_traitsIcEENS_9allocatorIcEEEE15LogMessageFlagsi
m9a:__ZN13ScreenManagerD0Ev
GUa:_UNITY_png_set_error_fn
Ko:FUNCTION_TABLE_diiii
rml:__ZNKSt3__27codecvtIwc11__mbstate_tE5do_inERS1_PKcS5_RS5_PwS7_RS7_
AFc:__ZNK11b2RopeJoint16GetReactionForceEf
gE:__ZN7mecanim8skeleton26SkeletonPoseComputeGlobalQEPKNS0_8SkeletonEPKNS0_13SkeletonPoseTIN4math4trsXEEEPS7_ii
spg:_Graphic_UnregisterDirtyMaterialCallback_m819829270
eyc:__ZN8JSONRead21TransferSTLStyleArrayI13dynamic_arrayIfLj4EEEEvRT_18MemLabelIdentifier17TransferMetaFlags
jRd:__ZN5physx2Gu19_gjkRelativeRayCastINS0_9TriangleVENS0_8CapsuleVEEEbRT_RT0_RKNS_6shdfnd3aos15PsMatTransformVERKNS9_6FloatVERKNS9_5Vec3VESI_RSD_RSG_SK_f
Rsc:__ZN11IMGUIModule18MonoBehaviourDoGUIEiR14ObjectGUIStateN13MonoBehaviour13GUILayoutTypeEi21ScriptingMethodIl2Cpp4PPtrIS2_E
KOf:_List_1_GetEnumerator_m2672519407_gshared
FD:__ZN9BlobWrite8TransferI22OffsetPtrArrayTransferIiEEEvRT_PKc17TransferMetaFlags
QOg:_ContractionComparer_Compare_m314873025
kYf:_Collection_1_IsFixedSize_m1690655146_gshared
ZPb:__Z18Transfer_BlittableI17RemapPPtrTransferLb1EjEvRK29SerializationCommandArgumentsR31RuntimeSerializationCommandInfo
mBi:_GUIUtility_EndGUIFromException_m2091524531
sad:__ZN5physx6shdfnd5ArrayIPvNS0_15InlineAllocatorILj256ENS0_19ReflectionAllocatorINS_11NpAggregateEEEEEE15growAndPushBackERKS2_
nCg:_Int64_System_IConvertible_ToDouble_m638786774
mzd:__ZNK5physx14NpRigidDynamic21getMaxAngularVelocityEv
cQ:__ZN4FMOD6System7releaseEv
jNd:__ZN5physx6shdfnd8PoolBaseINS_2Sc18TriggerInteractionENS0_19ReflectionAllocatorIS3_EEE15disposeElementsEv
wpf:_HashKeys_get_IsSynchronized_m4207641174
YSb:__Z18Transfer_BlittableI19StreamedBinaryWriteILb0EELb1E8BitFieldEvRK29SerializationCommandArgumentsR31RuntimeSerializationCommandInfo
VGf:_Enumerator_MoveNext_m3078170540_AdjustorThunk
Yge:__ZN5physx28PxcContactCapsuleHeightFieldERKNS_2Gu13GeometryUnionES3_RKNS_11PxTransformES6_RKfRNS_10PxcNpCacheERNS0_13ContactBufferE
_Ne:_SymmetricAlgorithm_get_Padding_m718051685
Y3:__ZN26RecursivePlayableTraverser8TraverseER9FrameDataP8PlayableS3_P14DirectorPlayeriPvf
O2f:_Collection_1_IsFixedSize_m1280898648_gshared
_ob:__ZN15DirectorManager18ScheduleForRemovalEP18PlayableController
zPc:__ZL31PointInConvexPolygon2D_OutCodesPKfjffffRh
xxd:__ZN5physx22NpParticleBaseTemplateINS_16PxParticleSystemENS_16NpParticleSystemEE18setDynamicFrictionEf
Ulc:__Z22Mesh_CUSTOM_HasChannelP12Il2CppObject30InternalScriptingShaderChannel
kpa:__ZN6prcoreL17RemapGenericFloatI18TexFormatRGBAFloat17TexFormatRGBFloatEEvPKNS_9InnerInfoE
hpb:__ZN8Playable11SetDurationEd
Fdd:__ZN5physx2Sc21ArticulationJointCore21setInternalComplianceEf
Lbi:__ZL76Convert_t2607082565_CustomAttributesCacheGenerator_Convert_ToChar_m541258017P21CustomAttributesCache
ace:__ZNK5physx6shdfnd10Foundation13getErrorLevelEv
XJa:__ZN16GeometryJobTasks20ScheduleGeometryJobsER9GfxDevicePFvP15GeometryJobDataEPK22GeometryJobInstructionjb
Xzi:_GUIUtility_Internal_GetHotControl_m2510727642
dO:__ZN12AudioManager29ShutdownReinitializeAndReloadEv
fak:_NetscapeCertTypeExtension_Decode_m2210025005
pei:__ZL59StringComparison_t2376310518_CustomAttributesCacheGeneratorP21CustomAttributesCache
g5d:__ZN5physx2Cm12DelegateTaskINS_2Sc5SceneEXadL_ZNS3_15postNarrowPhaseEPNS_10PxBaseTaskEEEE11runInternalEv
Rhe:__Z20ConvertContactToMonoP9Collision
Hyj:_AudioSource_PlayOneShot_m4118899740
SIi:_RectTransform_GetLocalCorners_m1836626405
Xqh:_BaseFixupRecord_DoFixup_m1821597450
AFg:_FileLoadException__ctor_m1356374414
F3g:_TlsStream_Reset_m1504601050
CTj:_InternalEnumerator_1_System_Collections_IEnumerator_get_Current_m1810411564_AdjustorThunk
Sgc:__Z29GetGlobalAllowNameConversionsv
yPc:__ZL17transformVerticesRfS_S_S_PfjPKN5physx6PxVec3EPKhRKNS1_7PxMat33E
bhe:__ZNK5physx2Gu15HeightFieldUtil31getFaceIndexAtShapePointNoTest2Ejff
P9b:__ZN8Material8SetColorEN9ShaderLab16FastPropertyNameERK10ColorRGBAf
_T:__ZN9AudioClip27IsFormatSupportedByPlatformERKNSt3__212basic_stringIcNS0_11char_traitsIcEENS0_9allocatorIcEEEE
D_d:__ZN5physx6shdfnd5ArrayIPNS_14PxLightCpuTaskENS0_13TempAllocatorEE6resizeEjRKS3_
XGh:_Module_GetCustomAttributes_m3581287913
F$h:__ZL67Type_t_CustomAttributesCacheGenerator_Type_IsSubclassOf_m2450899481P21CustomAttributesCache
ZR:__ZN11AudioSource23VirtualRedirectTransferER18StreamedBinaryReadILb0EE
Od:___syscall91
STk:__ZN13dynamic_arrayIP12Il2CppObjectLj4EE20resize_uninitializedEjb
kOd:__ZNK5physx2Sq10AABBPruner5sweepERKNS0_9ShapeDataERKNS_6PxVec3ERfRNS0_14PrunerCallbackE
DSb:__ZN10RectOffset8TransferI19StreamedBinaryWriteILb0EEEEvRT_
J6:__ZL41AssemblyNameMatchesWithOrWithoutExtensionPKcS0_
Uhb:__ZN21ArchiveStorageCreatorC2Ev
iJd:__ZN5physx2Sc5Scene21fireCallBacksPostSyncEv
Pxj:_AssemblyIsEditorAssembly__ctor_m2639706522
FHa:__ZN14GfxContextGLES43AddRenderSurfaceToDeferredFBOInvalidateListEPK17RenderSurfaceGLES
aAk:__ZN15dense_hashtableINSt3__24pairIK10KeyWrapperINS0_12basic_stringIcNS0_11char_traitsIcEENS0_9allocatorIcEEEEEP11Il2CppClassEES9_N6il2cpp5utils11StringUtils12StringHasherIS8_EEN14dense_hash_mapIS9_SC_SI_NS0_8equal_toIS9_EENS6_ISD_EEE9SelectKeyESL_SM_EC2EjRKSI_RKSL_RKSO_
QPd:__ZN5physx17PxsCCDAdvanceTask11runInternalEv
Ija:__ZN11NamedObject23VirtualRedirectTransferER14SafeBinaryRead
TBk:__ZN15dense_hashtableI10KeyWrapperIPK19Il2CppGenericMethodES4_N6il2cpp8metadata23Il2CppGenericMethodHashEN14dense_hash_setIS4_S7_NS6_26Il2CppGenericMethodCompareENSt3__29allocatorIS4_EEE8IdentityES9_SC_E15insert_noresizeERKS4_
Dme:__ZNSt3__26vectorIN20TextRenderingPrivate8FontImpl13CharacterInfoE13stl_allocatorIS3_L18MemLabelIdentifier1ELi16EEE6insertENS_11__wrap_iterIPKS3_EERS9_
Mqa:__ZN23PreloadManagerOperation6IsDoneEv
mfb:__ZN15SerializeTraitsINSt3__24pairI8UnityStrN11AssetBundle9AssetInfoEEEE8TransferI19StreamedBinaryWriteILb0EEEEvRS5_RT_
RXg:_X509Certificate_get_RawData_m3000055075
pxk:__ZNSt3__26vectorIPK10Il2CppTypeNS_9allocatorIS3_EEE21__push_back_slow_pathIRKS3_EEvOT_
fbc:__Z33GetHasChangedDeprecatedSystemMaskv
VZk:__ZN6il2cpp5utils11StringUtils11Utf16ToUtf8ERKNSt3__212basic_stringIDsNS2_11char_traitsIDsEENS2_9allocatorIDsEEEE
NEg:_MonoIO_GetException_m2577367044
RZc:__ZN5physx3Cct26CharacterControllerManagerD2Ev
gLh:_Enumerator_VerifyState_m1165543189_AdjustorThunk
Dxf:_DateTime_AddSeconds_m722082155_AdjustorThunk
Lmf:_SynchronizedArrayListWrapper_CopyTo_m956887031
qWj:_Comparer_1__ctor_m1202126643_gshared
Kua:__ZN21LightProbeProxyVolume18HasHardwareSupportEv
Y$a:__ZN26LightProbeProxyVolumeCacheC2ER13BatchRendererR15RenderLoopStats
Tna:__ZN6prcoreL31inner_stretch_argb8888_bilinearEPKNS_9InnerInfoE
GWb:__Z18Transfer_BlittableI18StreamedBinaryReadILb1EELb1E8BitFieldEvRK29SerializationCommandArgumentsR31RuntimeSerializationCommandInfo
hpe:_UNITY_FT_Outline_Decompose
Srk:__ZL23UnresolvedVirtualCall_8P12Il2CppObjectS0_S0_PK10MethodInfo
N6g:_TlsClientCertificate_get_ClientCertificate_m3062440489
kQe:_StrongNamePublicKeyBlob_ToString_m3721281223
Oni:__ZL80UnityEvent_t408735097_CustomAttributesCacheGenerator_UnityEvent__ctor_m588741179P21CustomAttributesCache
KNj:_InternalEnumerator_1_get_Current_m198513457_AdjustorThunk
rPd:__ZN5physx6shdfnd8internal8HashBaseINS0_4PairIKNS3_IPKNS_12PxsRigidCoreEPKNS_12PxsShapeCoreEEEPNS_11PxsCCDShapeEEESA_NS0_4HashISA_EENS1_11HashMapBaseISA_SD_SG_NS0_9AllocatorEE6GetKeyESI_Lb1EE15reserveInternalEj
GRj:_InternalEnumerator_1__ctor_m1240086835_AdjustorThunk
TX:__ZN11UnityEngine15CloudWebService10RestClientINS0_16WWWRestHeaderMapEED2Ev
qjc:__Z31Display_CUSTOM_GetSystemExtImpl13Il2Cpp_IntPtrPiS0_
Eqc:__Z58Register_UnityEngine_Object_Internal_CloneSingleWithParentv
pzg:_TextInfo_ToUpper_m299550697
oMh:_ShimEnumerator_get_Entry_m2332479818_gshared
_Jd:__ZN5physx2Sc5Scene21setDominanceGroupPairEhhRKNS_20PxDominanceGroupPairE
tag:_ReadOnlyCollection_1_System_Collections_IList_Contains_m4073811941_gshared
m2a:__ZN18ShadowMapJobHeaderD0Ev
vog:_Graphic_OnRectTransformDimensionsChange_m1610753363
zvf:_Convert_ToUInt16_m3265369225
O:Math_exp
VLg:_MonoEnumInfo_get_Cache_m3551569711
Cp:FUNCTION_TABLE_iiifi
K_k:__ZN6il2cpp2os5posix13PosixAutoLockD2Ev
T_e:_Array_InternalArray__ICollection_Contains_TisVector3_t2243707580_m3625701788_gshared
Pwa:__ZNSt3__26vectorINS_4pairIyP17VertexDeclarationEENS_9allocatorIS4_EEE6insertENS_11__wrap_iterIPKS4_EERS9_
JHk:_il2cpp_object_get_virtual_method
qWb:__Z30TransferField_LinearCollectionI18StreamedBinaryReadILb1EEEvRK29SerializationCommandArgumentsR31RuntimeSerializationCommandInfo
IXa:__ZNK17MeshRenderingData30ExtractMeshBuffersAndDrawRangeEjiR11MeshBuffersR16DrawBuffersRangeb
Poe:_UNITY_FT_Create_Class_sfnt_module_class
Wkj:_Text_CalculateLayoutInputHorizontal_m1578553982
vji:__ZL87Object_t1021602117_CustomAttributesCacheGenerator_Object_DestroyObject_m282495858____t1P21CustomAttributesCache
M$k:__ZNSt3__218uninitialized_copyIPNS_4pairIK10KeyWrapperIP14Il2CppIUnknownEjEES8_EET0_T_SA_S9_
yBd:__ZN5physx7NpScene12loadFromDescERKNS_11PxSceneDescE
Xzf:_Decimal_IsZero_m3557909184_AdjustorThunk
ikf:_Char_ToString_m1401375624
IJe:_MD5CryptoServiceProvider__cctor_m3309191799
J1:__ZNK10FileSystem16LastErrorMessageEv
pSf:__ZN21InterfaceFuncInvoker0I20UIVertex_t1204258818E6InvokeEjP11Il2CppClassPv
imh:_InterpreterFactory_get_NamesMapping_m3186583301
z$j:_ConfigHandler_ReadCustomProviderData_m784203316
GIf:_Enumerator_System_Collections_IEnumerator_Reset_m3052395060_gshared
lIe:__ZN22UnityWebRequestManager10InitializeEv
Dfb:__ZN17PersistentManager24GetTypeFromPathAndFileIDERKNSt3__212basic_stringIcNS0_11char_traitsIcEENS0_9allocatorIcEEEEx
Z_g:_Kernel_DwordDivMod_m3728402123
kKb:__ZN13MonoBehaviour13AwakeFromLoadE17AwakeFromLoadMode
LIc:__ZN16CircleCollider2D14CreateInternalEP11Rigidbody2D
RPb:__ZL26Transfer_SimpleNativeClassI17RemapPPtrTransfer8GradientLb1EEvRK29SerializationCommandArgumentsR31RuntimeSerializationCommandInfo
tbc:__ZN12CachedWriter9InitWriteER15CacheWriterBase
$qc:__Z21UnsignedInt64ToStringy
pmj:_UTF7Decoder__ctor_m549434986
YJd:__ZN5physx14PxsAABBManager15createAggregateEPvb
iUj:_InternalEnumerator_1_get_Current_m1025321669_AdjustorThunk
sFi:_Object_t1021602117_marshal_pinvoke
qmc:__Z36MonoBehaviour_CUSTOM_InvokeRepeatingP12Il2CppObjectP12Il2CppStringff
Gwl:_emscripten_glTexCoordPointer__wrapper
$lk:_WaitForSecondsRealtime_get_keepWaiting_m741039114
fqc:__Z66Register_UnityEngine_Transform_INTERNAL_CALL_InverseTransformPointv
gPj:_InternalEnumerator_1_MoveNext_m2720582493_gshared
RMf:_List_1_IndexOf_m1434084853_gshared
fb:invoke_iiiiifiiiif
a2k:__ZN15dense_hashtableINSt3__24pairIK10KeyWrapperIPK19Il2CppGenericMethodEP10MethodInfoEES6_N6il2cpp8metadata23Il2CppGenericMethodHashEN14dense_hash_mapIS6_S9_SD_NSC_26Il2CppGenericMethodCompareENS0_9allocatorISA_EEE9SelectKeyESF_SH_E5clearEv
clh:_Group__ctor_m4103922028
RUa:__ZN6Camera26ClearIntermediateRenderersEj
nEk:__ZNSt3__214__split_bufferI6pollfdRNS_9allocatorIS1_EEEC2EjjS4_
hUa:_UNITY_png_write_pCAL
pBl:_glLinkProgram__wrapper
yoa:__ZN6prcoreL12RemapGenericI17TexFormatARGB888815TexFormatBGR888EEvPKNS_9InnerInfoE
OJe:_MD5CryptoServiceProvider_ProcessFinalBlock_m1052610785
$mf:_BitArray_Set_m2878881714
vvk:__ZL25UnresolvedVirtualCall_201P12Il2CppObjectPK10MethodInfo
h1f:_Collection_1_get_Item_m4215988522_gshared
Mnd:__ZN5physx7NpShape8requiresERNS_23PxProcessPxBaseCallbackE
ATk:__ZN6il2cpp6icalls8mscorlib6System13Globalization11CultureInfo35construct_internal_locale_from_nameEP17Il2CppCultureInfoP12Il2CppString
DNi:__Z58RuntimeInvoker_Il2CppObject_Int32_t2071877448_Il2CppObjectPK10MethodInfoPvPS2_
qYf:__ZN18VirtActionInvoker2Ii40CustomAttributeTypedArgument_t1498197914E6InvokeEjPviS0_
YQb:__ZL22Transfer_ManagedObjectI24GenerateTypeTreeTransferLb1EEvRK29SerializationCommandArgumentsR31RuntimeSerializationCommandInfo
yuk:__ZL25UnresolvedVirtualCall_150P12Il2CppObject38CustomAttributeNamedArgument_t94157543PK10MethodInfo
S4h:__ZL55COMException_t1790481504_CustomAttributesCacheGeneratorP21CustomAttributesCache
DSg:_ASN1_get_Count_m404940548
U0j:_ContextAttribute_Equals_m53324298
Ltg:_InputField_MoveLeft_m688575903
xk:_emscripten_set_main_loop_timing
rjc:__Z34Display_CUSTOM_GetRenderingExtImpl13Il2Cpp_IntPtrPiS0_
SAk:__ZN15dense_hashtableINSt3__24pairIK10KeyWrapperI13dynamic_arrayIPK10Il2CppTypeLj4EEEPFvvEEES8_N6il2cpp8metadata19Il2CppSignatureHashEN14dense_hash_mapIS8_SB_SF_NSE_22Il2CppSignatureCompareENS0_9allocatorISC_EEE9SelectKeyESH_SJ_E12resize_deltaEjj
iwj:_WeakReference_AllocateHandle_m1783929473
Cdd:__ZN5physx2Sc21ArticulationJointCore22setTangentialStiffnessEf
nWd:__ZNK5physx20SingleAABBUpdateTask7getNameEv
H7a:__ZN14ImageReference10FlipImageYEv
IDj:_DebugLogHandler_LogFormat_m177245518
Ukl:__ZNKSt3__210moneypunctIwLb0EE11do_groupingEv
olb:__Z32TransferEnumWithNameForceIntSizeI14SafeBinaryRead13TargetEyeMaskEvRT_RT0_PKc17TransferMetaFlags
Ksc:__Z14GetDefaultSkini
BFf:_CultureInfo_get_Name_m3316229893
txf:_DateTime_get_Ticks_m310281298_AdjustorThunk
zL:__ZN4FMOD3DSP9setBypassEb
q2f:_Collection_1_System_Collections_IList_get_Item_m287847793_gshared
geb:__Z19NormalizeWheelInputf
Qkh:_CaptureCollection_CopyTo_m1982767892
fbb:__Z29StdTemplateConversionFunctionIsaEbPvR14SafeBinaryRead
$_e:_Array_InternalArray__ICollection_Remove_TisLink_t865133271_m1984184141_gshared
ryc:__Z29Transfer_Blittable_ArrayFieldI8JSONReadhEvRT_R9ArrayInfoRK23StaticTransferFieldInfo
Pvg:_LayoutRebuilder_IsDestroyed_m3442208294
Jec:__ZN11MonoManager25GetImageFromAssemblyIndexEi
lsd:__ZN5physx2Sc9ClothCore17addCollisionPlaneERKNS_21PxClothCollisionPlaneE
$Li:__Z123RuntimeInvoker_Void_t1841601450_Int32U26_t455636984_Il2CppObject_Il2CppObject_BooleanU26_t3168250738_BooleanU26_t3168250738PK10MethodInfoPvPS2_
ORa:__ZZ23InitPlayerLoopCallbacksvEN43PostLateUpdateClearImmediateRenderersstruct7ForwardEv
SAc:__Z18Transfer_BlittableI9JSONWriteLb1EtEvRK29SerializationCommandArgumentsR31RuntimeSerializationCommandInfo
BFg:_FileLoadException__ctor_m918124939
Pk:___syscall85
x7d:__ZNK5physx13PxHeightField8isKindOfEPKc
wkf:__ZN18VirtActionInvoker1IP12Il2CppObjectE6InvokeEjPvS1_
BYa:__ZNSt3__26__sortIRPFbP10GUIElementS2_EPS2_EEvT0_S7_T_
H$g:_SequentialSearchPrimeGeneratorBase_GenerateSearchBase_m2930465198
Hme:__Z14ValidateFormatR13dynamic_arrayIN20TextRenderingPrivate16TextFormatChangeELj4EE
XR:__ZNK11AudioSource26GetTypeInfoVirtualInternalEv
nch:__ZN23InterfaceActionInvoker2IP12Il2CppObjectS1_E6InvokeEjP11Il2CppClassPvS1_S1_
exk:__ZN6il2cpp2vmL21SetupInterfacesLockedEP11Il2CppClassRKNS_2os12FastAutoLockE
Mtd:__ZNK5physx15NpActorTemplateINS_15PxParticleFluidEE12getAggregateEv
_4d:__ZNK5physx2Sc18ParticleSystemCore16getInternalFlagsEv
Ekh:_Capture__ctor_m885749277
uzi:_GUIStyle_set_clipOffset_m3871613343
Jrg:_SubmitEvent__ctor_m222860306
wYc:__ZN16ControllerFilter9preFilterERKN5physx12PxFilterDataEPKNS0_7PxShapeEPKNS0_12PxRigidActorERNS0_7PxFlagsINS0_9PxHitFlag4EnumEtEE
fX:__ZN11UnityEngine15CloudWebService14DataDispatcher15SetupWebRequestEv
rUi:__Z94RuntimeInvoker_Int32_t2071877448_Il2CppObject_Int32_t2071877448_Il2CppObject_Int32_t2071877448PK10MethodInfoPvPS2_
QJg:_TextWriter__cctor_m4047845042
p5b:__ZN13TrailRenderer26RendererCullingOutputReadyEPP12BaseRendererjPK6CameraRK10Matrix4x4f
g9g:_ReceiveRecordAsyncResult_get_Record_m1336421357
iFe:__ZN11UnityEngine15PlatformWrapper13GetShaderCapsEv
u2e:__ZN16VirtFuncInvoker2IbP12Il2CppObjectS1_E6InvokeEjPvS1_S1_
jVd:__ZN16MBPOS_TmpBuffers16allocateSleepingEjj
Ibi:__ZL76Convert_t2607082565_CustomAttributesCacheGenerator_Convert_ToByte_m509311047P21CustomAttributesCache
bsg:_InputField_CaretBlink_m3960486606
Ak:_emscripten_glGetProgramiv
XQb:__Z65EmitSerializationCommandsForLinearCollectionOfManagedObjectsFieldI24GenerateTypeTreeTransferEvRK23TransferArrayField_InfoR20SerializationCommandR32SerializationCommandQueueBuilderRP20AllowNameConversions
p0j:__ZN23InterfaceActionInvoker3IP12Il2CppObjectbbE6InvokeEjP11Il2CppClassPvS1_bb
HUg:_SmallXmlParser_ReadCharacters_m1966365555
Qah:_InternalAsyncResult_get_CompletedWithError_m3993955322
p9b:__ZN21FixedBehaviourManager6UpdateEv
adc:__ZN9Transform9SetParentEPS_NS_15SetParentOptionE
r5f:_ReadOnlyCollection_1_System_Collections_IList_Add_m527174473_gshared
Lle:__ZNK20TextRenderingPrivate7FontRefltERKS0_
$ra:__ZN19RuntimeSceneManager24BeginIntegrateMainThreadEP10UnityScene
EZi:__Z42RuntimeInvoker_RuntimePlatform_t1869584967PK10MethodInfoPvPS2_
pbd:__ZN5physx14NpArticulation26setExternalDriveIterationsEj
aQc:__ZN16RayRTreeCallbackILi0ELb0EED0Ev
fZi:__Z80RuntimeInvoker_Void_t1841601450_Il2CppObject_Int32_t2071877448_Int16_t4041245914PK10MethodInfoPvPS2_
H_d:__ZN5physx20PxsParticleSystemSim23scheduleCollisionUpdateERNS_10PxBaseTaskE
j3k:__ZNSt3__2plIcNS_11char_traitsIcEENS_9allocatorIcEEEENS_12basic_stringIT_T0_T1_EERKS9_S6_
LSi:__Z53RuntimeInvoker_MonoEventInfo_t2190036573_Il2CppObjectPK10MethodInfoPvPS2_
HKg:_LocalDataStoreSlot__cctor_m1192669356
F_b:__ZN9ShaderLab20SerializedSubProgramaSERKS0_
$ql:_roundf
VVe:_String_CreateString_m2556700934
ykb:__ZN18StreamedBinaryReadILb0EE21TransferSTLStyleArrayINSt3__26vectorI17SortingLayerEntryNS2_9allocatorIS4_EEEEEEvRT_17TransferMetaFlags
Cki:__ZL80Physics_t634932869_CustomAttributesCacheGenerator_Physics_RaycastAll_m3650851272P21CustomAttributesCache
m$c:__ZN5physx15PxBoxControllerD0Ev
lx:__ZN8Animator15SetPrepareStageEv
Hjj:_Slider_get_axis_m162140813
NHh:_MonoEventInfo_t2190036573_marshal_pinvoke
fxk:__ZN6il2cpp2vmL24SetupTypeHierarchyLockedEP11Il2CppClassRKNS_2os12FastAutoLockE
uJk:__ZN15dense_hashtableINSt3__24pairIK10KeyWrapperIPK10Il2CppTypeEjEES6_N6il2cpp8metadata14Il2CppTypeHashEN14dense_hash_mapIS6_jSB_NSA_17Il2CppTypeCompareENS0_9allocatorIS8_EEE9SelectKeyESD_SF_E4findERS7_
k0a:__Z20CalculateLightMatrixRK15SharedLightDataP10Matrix4x4f
bij:_ScrollRect_SetLayoutHorizontal_m3486408020
fme:_destroy_face
uqk:_GenericEqualityComparer_1_GetHashCode_m116190842_gshared
D2h:__ZL55StreamWriter_t3858580635_CustomAttributesCacheGeneratorP21CustomAttributesCache
K$c:__ZN5physx19PxAllocatorCallbackD2Ev
N7k:__ZN6il2cpp6icalls8mscorlib6System8Security12Cryptography24RNGCryptoServiceProvider13RngInitializeEP11Il2CppArray
bTf:_List_1_System_Collections_ICollection_get_IsSynchronized_m227393674_gshared
Deh:_IPAddress__cctor_m3624830012
Zwd:__ZNK5physx15NpActorTemplateINS_16PxParticleSystemEE17getDominanceGroupEv
RS:__ZN20SoundChannelInstance7setMuteEb
zjj:_Slider_Rebuild_m3442875945
vob:__ZN4PPtrI5LightE8TransferI19StreamedBinaryWriteILb0EEEEvRT_
KZc:__ZN5physx3Cct26CharacterControllerManager21createObstacleContextEv
cli:__ZL115AnimatorStateInfo_t2577870592_CustomAttributesCacheGenerator_AnimatorStateInfo_t2577870592____nameHash_PropertyInfoP21CustomAttributesCache
xgh:_AsnEncodedData_EnhancedKeyUsageExtension_m1452131166
ukl:__ZNSt3__210moneypunctIcLb0EED2Ev
pti:__ZL69Scrollbar_t3248359358_CustomAttributesCacheGenerator_m_OnValueChangedP21CustomAttributesCache
lXb:__Z19TransferField_ArrayI18StreamedBinaryReadILb1EE27Converter_SimpleNativeClassI17AnimationCurveTplIfEEEvRK23StaticTransferFieldInfoR31RuntimeSerializationCommandInfoRT0_
ZFf:_KeyValuePair_2__ctor_m3201181706_gshared
gMc:__ZN7b2World18SetContactListenerEP17b2ContactListener
swd:__ZN5physx15NpActorTemplateINS_15PxParticleFluidEE7releaseEv
jlh:_GroupCollection_get_IsSynchronized_m1100663675
NDa:__ZN18GfxFramebufferGLES22MakeCurrentFramebufferENS_7BuiltinE
J7k:__ZN6il2cpp2vm12MarshalAlloc4FreeEPv
Klh:_Interpreter_Close_m1500459069
KDd:__ZN5physx6shdfnd5ArrayIPNS_2Sc19ShapeInstancePairLLENS0_19ReflectionAllocatorIS4_EEE15growAndPushBackERKS4_
oPf:_List_1_System_Collections_ICollection_get_SyncRoot_m690028787_gshared
iHb:__ZN30RuntimeInitializeOnLoadManager23VirtualRedirectTransferER18StreamedBinaryReadILb1EE
Tia:__ZN12CachedReader4ReadEPvj
uUd:__ZN5physx21MBPPostUpdateWorkTaskD0Ev
Lte:_cf2_blues_init
Dfd:__ZN5physx2Sc8BodyCore24clearSpatialAccelerationEbb
ONj:_InternalEnumerator_1_System_Collections_IEnumerator_get_Current_m3600601141_gshared
MMe:_SHA1Internal_HashFinal_m3188468925
BDb:__ZN14SubstanceInput8TransferI18StreamedBinaryReadILb0EEEEvRT_
xlk:_Vector3_op_Inequality_m799191452
mRk:__ZN30dense_hashtable_const_iteratorINSt3__24pairIK10KeyWrapperIP11Il2CppClassES4_EES5_N6il2cpp8metadata16SZArrayClassHashEN14dense_hash_mapIS5_S4_SA_NS9_19SZArrayClassCompareENS0_9allocatorIS7_EEE9SelectKeyESC_SE_E30advance_past_empty_and_deletedEv
n0a:__Z24CalculateLightShadowFadeRK6CamerafffR8Vector4f
P6:__ZN19RuntimeSceneManagerD2Ev
Hei:__ZL55HeaderHandler_t324204131_CustomAttributesCacheGeneratorP21CustomAttributesCache
F_j:_ChannelData_get_CustomProperties_m1470957369
BJk:__ZNK15dense_hashtableINSt3__24pairIK10KeyWrapperIPK10Il2CppTypeEjEES6_N6il2cpp8metadata14Il2CppTypeHashEN14dense_hash_mapIS6_jSB_NSA_17Il2CppTypeCompareENS0_9allocatorIS8_EEE9SelectKeyESD_SF_E12test_deletedEj
Sna:__ZN6prcore17GetIntegerBlitterE13TextureFormatS0_N14ImageReference8BlitModeE
DDd:__ZN5physx10PxsContext20createContactManagerERKNS_24PxvManagerDescRigidRigidEPNS_18PxsMaterialManagerE
dHc:__ZN13BoxCollider2DD0Ev
FLh:_Enumerator_VerifyState_m3173176371_AdjustorThunk
QBd:__ZN5physx2Cm12DelegateTaskINS_7NpSceneEXadL_ZNS2_12executeSolveEPNS_10PxBaseTaskEEEED0Ev
JQc:__ZN5physx2GuL18gPCMHullPrefetchCBEjPKNS_6PxVec3E
y5c:__ZN5physx2Sc5Scene31removeActiveBreakableConstraintEPNS0_13ConstraintSimE
aDg:_Int64_ToString_m1275187741
Gdh:_TypeConverterAttribute__cctor_m506796812
KXe:_Encoding_get_IsReadOnly_m3729101432
Rgc:__ZN9BlobWrite14ReduceCopyImplERK14ReduceCopyDataj
Lvj:_ValueType_t3507792607_marshal_pinvoke_back
wWj:_Comparer_1_System_Collections_IComparer_Compare_m1790257529_gshared
Ibj:__Z37RuntimeInvoker_Enumerator_t3220004478PK10MethodInfoPvPS2_
QGh:_MethodInfo_get_ContainsGenericParameters_m572340060
SFc:__ZNK12b2WheelJoint10GetAnchorAEv
$Hd:__ZN5physx6shdfnd5ArrayINS_12PxActorShapeENS0_19ReflectionAllocatorIS2_EEE15growAndPushBackERKS2_
ePa:__ZN25MultiBlocksMemoryFileData17AdjustBlocksCountEj
iga:__ZNK22BuiltinResourceManager11GetResourceEPKN5Unity4TypeERKNSt3__212basic_stringIcNS4_11char_traitsIcEENS4_9allocatorIcEEEE
DEb:__ZNK11TimeManager26GetTypeInfoVirtualInternalEv
G4g:_TlsClientHello__ctor_m1699671541
ike:__ZN13TextRendering4Font8TransferI24GenerateTypeTreeTransferEEvRT_
sda:__ZN17CommonStringTableC2Ev
n0j:_Context_NotifyGlobalDynamicSinks_m2916447645
ejc:__Z27CullingGroup_CUSTOM_DisposeP12Il2CppObject
pTk:__ZN6il2cpp6icalls8mscorlib6SystemL23CheckWideningConversionEjjj
m8i:__Z48RuntimeInvoker_Void_t1841601450_Mark_t2724874473PK10MethodInfoPvPS2_
MJj:_GUILayoutEntry_ApplyStyleSettings_m371609721
mkd:__ZN5physx2Sc14ConstraintCore8setFlagsENS_7PxFlagsINS_16PxConstraintFlag4EnumEtEE
I$f:_Collection_1_Remove_m1798559666_gshared
Zm:_glStencilMask
j$k:__ZN6il2cpp2os10ThreadImpl16GetCurrentThreadEv
r6d:__ZNK5physx2Sc15ClothFabricCore20getNbParticleIndicesEv
ieb:__ZN15GUIEventManager10QueueEventERK10InputEvent
kLh:_Enumerator_System_Collections_IEnumerator_get_Current_m2010873149_gshared
lmg:_Resources_t2975512894_marshal_pinvoke_cleanup
Nwj:_AnimationEvent_get_messageOptions_m3547411650
K$h:__ZL88Type_t_CustomAttributesCacheGenerator_Type_MakeGenericType_m2765875033____typeArguments0P21CustomAttributesCache
nui:__ZL74SpriteState_t1353336012_CustomAttributesCacheGenerator_m_HighlightedSpriteP21CustomAttributesCache
nph:_RealProxy__ctor_m2505535530
q5k:_GC_push_conditional_with_exclusions
Btj:_UInt32_System_IConvertible_ToUInt16_m2798641702_AdjustorThunk
urh:_BinaryFormatter_get_DefaultSurrogateSelector_m219714691
Zy:__ZN21AnimationPosePlayableD0Ev
LX:__ZN11UnityEngine15CloudWebService10RestClientINS0_16WWWRestHeaderMapEE6SetUrlERK8UnityStr
tOd:__ZN5physx2Sq8AABBTree11shiftOriginERKNS_6PxVec3E
UAh:_ILGenerator_label_fixup_m1325994348
g1g:_MD4Managed_Encode_m2097839378
o2f:_Collection_1_System_Collections_IList_get_IsFixedSize_m3252091801_gshared
v6i:__Z57RuntimeInvoker_Boolean_t3825574718_LabelFixup_t4090909514PK10MethodInfoPvPS2_
tlg:_FloatTween_get_ignoreTimeScale_m4161298485_AdjustorThunk
rJh:_MonoProperty_GetOptionalCustomModifiers_m3827844355
tKh:__ZN16VirtFuncInvoker0IP18Stream_t3255436806E6InvokeEjPv
i7f:_ReadOnlyCollection_1_System_Collections_IList_get_IsFixedSize_m993752291_gshared
Q4c:__ZN5physx2Sc7BodySim6wakeUpEv
$J:__ZN11UnityEngine9Animation28GenericAnimationBindingCache25RegisterIAnimationBindingE11ClassIDTypeiP17IAnimationBinding
Gpg:__ZN21InterfaceFuncInvoker1IP19Graphic_t2426225576iE6InvokeEjP11Il2CppClassPvi
LPg:_SimpleCollator_GetSortKey_m2188419329
tDd:__ZN5physx6shdfnd8PoolBaseINS_2Gu30LargePersistentContactManifoldENS0_19ReflectionAllocatorIS3_EEE17releaseEmptySlabsEv
l5c:__ZN5physx2Sc21ConstraintInteraction7destroyEv
fvi:__ZL56LayoutElement_t2808691390_CustomAttributesCacheGeneratorP21CustomAttributesCache
tfj:_Scrollbar_Set_m244028386
yqc:__Z27Object_CUSTOM_DestroyObjectP12Il2CppObjectf
RRd:__ZN5physx13PxsSolverCoreD2Ev
Nll:__ZNSt3__211__money_putIwE8__formatEPwRS2_S3_jPKwS5_RKNS_5ctypeIwEEbRKNS_10money_base7patternEwwRKNS_12basic_stringIcNS_11char_traitsIcEENS_9allocatorIcEEEERKNSE_IwNSF_IwEENSH_IwEEEESQ_i
wcb:__ZN16MemoryFileSystem6ParentERK13FileEntryDataRNSt3__212basic_stringIcNS3_11char_traitsIcEENS3_9allocatorIcEEEE
$Fb:__ZN14PlayerSettings8TransferI18StreamedBinaryReadILb0EEEEvRT_
GFk:__ZN6il2cpp6icalls8mscorlib6System8MonoType16GetMethodsByNameEP20Il2CppReflectionTypeP12Il2CppStringibS5_
TFj:_AnimationPlayable_op_Implicit_m408821639
hAk:__ZN15dense_hashtableI10KeyWrapperIPK19Il2CppGenericMethodES4_N6il2cpp8metadata23Il2CppGenericMethodHashEN14dense_hash_setIS4_S7_NS6_26Il2CppGenericMethodCompareENSt3__29allocatorIS4_EEE8IdentityES9_SC_E4swapERSF_
ZEd:__ZNK5physx7NpScene16getNbConstraintsEv
Bbf:_LayoutGroup_SetProperty_TisAxis_t1431825778_m2174054513_gshared
Wqd:__ZN5physx7NpCloth14setWakeCounterEf
_tb:__ZN4PPtrI10GameObjectE8TransferI14SafeBinaryReadEEvRT_
cdj:_Mask_IsRaycastLocationValid_m62488857
eki:__ZL105Physics_t634932869_CustomAttributesCacheGenerator_Physics_Raycast_m2036777053____queryTriggerInteraction5P21CustomAttributesCache
Uwa:__ZNSt3__27__sort3IRNS_4lessIN22BuiltinResourceManager8ResourceEEEPS3_EEjT0_S7_S7_T_
MVj:_DefaultComparer_Compare_m3472472212_gshared
aGg:_MonoIO_GetLength_m2812344043
tse:_ps_hints_t2mask
hoi:__ZL68UsedByNativeCodeAttribute_t3212052468_CustomAttributesCacheGeneratorP21CustomAttributesCache
VAb:__ZN10BlendShape8TransferI19StreamedBinaryWriteILb0EEEEvRT_
gia:__ZL4WalkRK16TypeTreeIteratorR12CachedReaderPib
I7d:__ZNK5physx2Gu11HeightField17getReferenceCountEv
bkk:_Transform_IsChildOf_m10844547
fM:__Z32TransferEnumWithNameForceIntSizeI14SafeBinaryReadN10SampleClip8LoadTypeEEvRT_RT0_PKc17TransferMetaFlags
Lfa:__Z19GetTimeSinceStartupv
Oja:__ZN7Texture23VirtualRedirectTransferER17RemapPPtrTransfer
jSe:_SecurityFrame_get_Assembly_m2816566490
kGh:_FieldInfo_GetPseudoCustomAttributes_m2500972355
y0c:__ZN5physx3Scb5Scene10getPxSceneEv
Kxe:_TT_Load_Composite_Glyph
gmk:_NetFxCoreExtensions_CreateDelegate_m2492743074
Juk:__ZL25UnresolvedVirtualCall_161P12Il2CppObject22UILineInfo_t3621277874S1_PK10MethodInfo
I8a:__Z33MultiplyMatrixArrayWithBase4x4REFPK10Matrix4x4fS1_S1_PS_j
oMi:__Z51RuntimeInvoker_Boolean_t3825574718_Int64_t909078037PK10MethodInfoPvPS2_
fff:_Array_Sort_m2994254654
MUf:_List_1__ctor_m593058937_gshared
l1e:_Array_InternalArray__IEnumerable_GetEnumerator_TisColor32_t874517518_m2198639025_gshared
c2a:__ZN29RenderNodeQueuePrepareContextC2Ev
Z$b:__ZN9ShaderLab20SerializedSubProgram16TextureParameter8TransferI24GenerateTypeTreeTransferEEvRT_
loj:_Thread_set_Name_m1343706609
$9k:__ZN6il2cpp2os11MutexHandle4WaitEj
Wfc:__ZL34GetComponentsImplementationRecurseILb1ELi1ELi1EEbR10GameObjectbRK17CompareParametersRK39GetComponentsImplementation_ReturnValue
_9k:__ZN6il2cpp2os11MutexHandle4WaitEv
Fkf:_ArrayList_set_Capacity_m592558035
Hpa:__ZN6prcoreL17RemapGenericFloatI15TexFormatRGHalf18TexFormatARGBFloatEEvPKNS_9InnerInfoE
ZLg:_MonoEnumInfo_t2335995564_marshal_pinvoke_cleanup
Jha:__ZNK13RenderTexture13GetDataHeightEv
mCg:_Int64_System_IConvertible_ToDecimal_m3390697048_AdjustorThunk
KUa:__ZN13RenderManager23AddRemoveCamerasDelayedEv
jUa:_UNITY_png_write_pHYs
Oqa:__ZN23PreloadManagerOperation11GetPriorityEv
YDf:_Exception_get_InnerException_m3722561235
Dp:FUNCTION_TABLE_iiii
BRf:_List_1_GetEnumerator_m4053501645_gshared
Phe:__ZNK5Unity5Joint16GetCurrentForcesER8Vector3fS2_
K3j:__ZN21InterfaceFuncInvoker4IP17Match_t3164245899P17Regex_t1803876613P8String_tiiE6InvokeEjP11Il2CppClassPvS3_S5_ii
Xof:_Hashtable_Rehash_m2877670513
gUk:__ZN6il2cpp2vm8Liveness3EndEPv
b5a:__ZN13RenderTexture8SetWidthEi
Ztg:_InputField_Insert_m1593238693
Z4b:__ZNK28RectTransformPropertyBinding12SetPPtrValueERKN11UnityEngine9Animation10BoundCurveEi
iUb:__Z18Transfer_BlittableI18StreamedBinaryReadILb0EELb0EfEvRK29SerializationCommandArgumentsR31RuntimeSerializationCommandInfo
Mxe:_UNITY_FT_GlyphLoader_CheckSubGlyphs
BUi:__Z132RuntimeInvoker_Int32_t2071877448_Il2CppObject_Int32_t2071877448_Int32_t2071877448_Il2CppObject_Int32_t2071877448_Int32U26_t455636984PK10MethodInfoPvPS2_
VDk:__ZN6il2cpp2vm21ThreadPoolCompartment20SpawnNewWorkerThreadEv
v4e:_Array_InternalArray__ICollection_Add_TisCustomAttributeTypedArgument_t1498197914_m3260005285_gshared
Mpf:_SyncHashtable_GetObjectData_m3774367030
$Bg:_Int32_ToString_m1128850770
Izg:_Guid_GetHashCode_m1401300871
_nk:_ListPool_1_U3Cs_ListPoolU3Em__0_m1243609651_gshared
uvc:__Z42Register_UnityEngine_GUIStyle_set_fontSizev
M3h:__ZL61CallingConventions_t1097349142_CustomAttributesCacheGeneratorP21CustomAttributesCache
Vmd:__ZNK5physx9NpFactory11getNbShapesEv
Eng:_FontData__ctor_m3822008992
rMi:__Z140RuntimeInvoker_Boolean_t3825574718_Il2CppObject_Int32_t2071877448_Il2CppObject_SByte_t454417549_Int64U26_t763825331_ExceptionU26_t1467204777PK10MethodInfoPvPS2_
Prk:__ZL23UnresolvedVirtualCall_5P12Il2CppObjectsPK10MethodInfo
HF:__ZN4PPtrI6AvatarE8TransferI19StreamedBinaryWriteILb0EEEEvRT_
B4i:__Z42RuntimeInvoker_ScreenMatchMode_t1916789528PK10MethodInfoPvPS2_
u4:__ZN9ShaderLab16FastPropertyName4InitEPKc
zEc:__ZN11b2GearJointD0Ev
faa:__Z18PathToAbsolutePathRKNSt3__212basic_stringIcNS_11char_traitsIcEENS_9allocatorIcEEEE
vLk:__ZN15dense_hashtableINSt3__24pairIK10KeyWrapperINS1_IPK12PropertyInfoP11Il2CppClassEEEjEES9_17ReflectionMapHashIS8_EN14dense_hash_mapIS9_jSD_19ReflectionMapEqualsIS8_ENS0_9allocatorISB_EEE9SelectKeyESG_SI_E13clear_deletedER30dense_hashtable_const_iteratorISB_S9_SD_SK_SG_SI_E
j4b:__Z13RegisterClassIN2UI13RectTransformEEvv
hPg:_MSCompatUnicodeTable_ToWidthCompat_m2299599532
PNg:_NumberFormatter_get_IsFloatingSource_m2830957202
oAb:__ZN10VertexData8TransferI17RemapPPtrTransferEEvRT_
f5a:__ZN13RenderTexture9SetMipMapEb
_hl:__ZNKSt3__27num_getIwNS_19istreambuf_iteratorIwNS_11char_traitsIwEEEEE6do_getES4_S4_RNS_8ios_baseERjRl
cil:__ZNKSt3__27num_getIwNS_19istreambuf_iteratorIwNS_11char_traitsIwEEEEE6do_getES4_S4_RNS_8ios_baseERjRm
bhj:_ScrollRect_set_verticalScrollbarSpacing_m2356851539
Zhl:__ZNKSt3__27num_getIwNS_19istreambuf_iteratorIwNS_11char_traitsIwEEEEE6do_getES4_S4_RNS_8ios_baseERjRb
Zob:__Z18GetDirectorManagerv
gil:__ZNKSt3__27num_getIwNS_19istreambuf_iteratorIwNS_11char_traitsIwEEEEE6do_getES4_S4_RNS_8ios_baseERjRe
wOg:_OperatingSystem_GetObjectData_m2276196875
Ijb:__ZNK10TagManager26GetTypeInfoVirtualInternalEv
$hl:__ZNKSt3__27num_getIwNS_19istreambuf_iteratorIwNS_11char_traitsIwEEEEE6do_getES4_S4_RNS_8ios_baseERjRx
dil:__ZNKSt3__27num_getIwNS_19istreambuf_iteratorIwNS_11char_traitsIwEEEEE6do_getES4_S4_RNS_8ios_baseERjRy
IJi:_ResourceRequest_t2560315377_marshal_pinvoke_back
bpi:__ZL92PointerEventData_t1599784723_CustomAttributesCacheGenerator_U3CpointerDragU3Ek__BackingFieldP21CustomAttributesCache
Epc:__Z38Transform_CUSTOM_INTERNAL_get_rotationP12Il2CppObjectP11Quaternionf
ail:__ZNKSt3__27num_getIwNS_19istreambuf_iteratorIwNS_11char_traitsIwEEEEE6do_getES4_S4_RNS_8ios_baseERjRt
OPk:__ZNSt3__26vectorIN6il2cpp2vm17TypeNameParseInfoENS_9allocatorIS3_EEE8allocateEj
WKc:__ZN16b2StackAllocator4FreeEPv
N4h:__ZL66CriticalFinalizerObject_t1920899984_CustomAttributesCacheGeneratorP21CustomAttributesCache
dGa:__ZN7ApiGLES19UploadBufferSubDataEjN2gl12BufferTargetEllPKv
aPd:__ZN5physx2Sc5Scene17createClothSolverEv
KTe:_String_System_IConvertible_ToInt32_m1927223638
Q$e:_Array_InternalArray__ICollection_Remove_TisContentType_t1028629049_m3085152315_gshared
avd:__ZNK5physx15PxsParticleData16getMaxParticlesVEv
Svh:_CryptographicException__ctor_m406825529
OG:__ZN7mecanim12statemachine20StateMachineConstant8TransferI14SafeBinaryReadEEvRT_
cAj:_Canvas_set_sortingOrder_m2922819993
Joc:__Z40SpriteRenderer_CUSTOM_INTERNAL_get_colorP12Il2CppObjectP10ColorRGBAf
yUd:__ZN15MBP_PairManager17removeMarkedPairsEPK10MBP_ObjectPN5physx16PxsBroadPhaseMBPERK8BitArrayS8_
CCk:__ZNSt3__26__treeINS_12__value_typeIP11Il2CppClassS3_EENS_19__map_value_compareIS3_S4_NS_4lessIS3_EELb1EEENS_9allocatorIS4_EEE25__emplace_unique_key_argsIS3_JNS_4pairIS3_S3_EEEEENSD_INS_15__tree_iteratorIS4_PNS_11__tree_nodeIS4_PvEEiEEbEERKT_DpOT0_
PVe:_ASCIIEncoding__ctor_m4127831672
vOb:__Z19TransferField_ArrayI14SafeBinaryRead27Converter_SimpleNativeClassI8GUIStyleEEvRK23StaticTransferFieldInfoR31RuntimeSerializationCommandInfoRT0_
YJb:__ZN9TextAsset23VirtualRedirectTransferER19StreamedBinaryWriteILb0EE
ymj:_UTF8Encoding__ctor_m3336862259
T7k:__ZN6il2cpp5utils10MemoryPoolC2Ej
n2i:__Z54RuntimeInvoker_Boolean_t3825574718_HitInfo_t1761367055PK10MethodInfoPvPS2_
Tih:_X509Chain_GetAuthorityKeyIdentifier_m2607407678
P7k:__ZN6il2cpp5utils10MemoryPoolC2Ev
oQd:__ZN5physx21PxcUnimplementedSweepERKNS_11PxsCCDShapeES2_PKNS_12PxsRigidBodyES5_RKNS_11PxTransformES8_S8_S8_fRNS_6PxVec3ESA_RNS_10PxcNpCacheERNS_18PxcNpThreadContextEf
smd:__ZN5physx9NpPhysics33unregisterDeletionListenerObjectsERNS_18PxDeletionListenerEPKPKNS_6PxBaseEj
Usd:__ZNK5physx2Sc9ClothCore22getAngularInertiaScaleEv
Ajl:__ZNKSt3__28time_getIcNS_19istreambuf_iteratorIcNS_11char_traitsIcEEEEE13__get_weekdayERiRS4_S4_RjRKNS_5ctypeIcEE
Igg:_RaycastResult_set_gameObject_m1138581891_AdjustorThunk
GNk:__ZN14dense_hash_mapI10KeyWrapperINSt3__24pairIPK12PropertyInfoP11Il2CppClassEEEj17ReflectionMapHashIS8_E19ReflectionMapEqualsIS8_ENS1_9allocatorINS2_IKS9_jEEEEE15set_deleted_keyERSF_
$yj:_Bounds_get_extents_m4077324178_AdjustorThunk
qQi:__Z117RuntimeInvoker_Int32_t2071877448_Il2CppObject_Il2CppObject_Int32_t2071877448_Int32_t2071877448_BooleanU26_t3168250738PK10MethodInfoPvPS2_
Rdc:__ZN12InputManager10GetAxisRawERKNSt3__212basic_stringIcNS0_11char_traitsIcEENS0_9allocatorIcEEEE
uJ:__ZN19StreamedBinaryWriteILb0EE21TransferSTLStyleArrayI22OffsetPtrArrayTransferIN7mecanim8skeleton19SkeletonMaskElementEEEEvRT_17TransferMetaFlags
aed:__ZN5physx20NpRigidActorTemplateINS_18PxArticulationLinkEE12setActorFlagENS_11PxActorFlag4EnumEb
Taf:_Dictionary_2_Do_ICollectionCopyTo_TisKeyValuePair_2_t3716250094_m1740410536_gshared
V_k:__ZN6il2cpp2os10ThreadImplD2Ev
NVg:_RSAManaged_Dispose_m3018788098
TEc:__ZN12b2MouseJoint23InitVelocityConstraintsERK12b2SolverData
Vzc:__ZN8Gradient8TransferI9JSONWriteEEvRT_
c6g:_Context_get_ReceivedConnectionEnd_m3369356276
Qak:_X509CertificateEnumerator_MoveNext_m1422952050
cdh:_NameObjectCollectionBase_get_Count_m2353593692
eRk:__ZN15dense_hashtableINSt3__24pairIK10KeyWrapperIP11Il2CppClassES4_EES5_N6il2cpp8metadata16SZArrayClassHashEN14dense_hash_mapIS5_S4_SA_NS9_19SZArrayClassCompareENS0_9allocatorIS7_EEE9SelectKeyESC_SE_E9copy_fromERKSH_j
Mqi:__ZL73U3COnFinishSubmitU3Ec__Iterator0_t99135383_CustomAttributesCacheGeneratorP21CustomAttributesCache
qdb:__ZNK12TLSAllocatorI14StackAllocatorE22GetAllocatedMemorySizeEv
Qw:__ZN7mecanim6memory16ChainedAllocator8AllocateEjj
Mvf:_Convert_ToUInt32_m3394039268
Nec:__Z32GetSceneHierarchyPathDescriptivePK6Object
Kzb:__ZNSt3__26vectorI7SubMesh13stl_allocatorIS1_L18MemLabelIdentifier16ELi16EEEC2ERKS5_
tS:__ZNK7WeakPtrI20SoundChannelInstanceE10SharedData9GetRawPtrEv
qNa:__ZN12HandlerChain4NameEv
ln:FUNCTION_TABLE_fiiiiiifiiiiiif
rEb:__ZNSt3__26vectorI9InputAxisNS_9allocatorIS1_EEE10deallocateEv
N1d:__ZN5physx37setupFinalizeSolverConstraintsCoulombERNS_13PxcNpWorkUnitERKNS_2Gu13ContactBufferERKNS_27PxcCorrelationBufferCoulombERKNS_11PxTransformESB_bPhRKNS_13PxcSolverBodyESF_RKNS_17PxcSolverBodyDataESI_ffjffff
EAg:_Int16_Equals_m3925135434_AdjustorThunk
_N:__ZN12AudioManager8TransferI18StreamedBinaryReadILb1EEEEvRT_
iDe:__Z44Register_UnityEngine_CanvasRenderer_get_cullv
cOh:_Enumerator_Dispose_m2532362830_AdjustorThunk
u1h:__ZL60IHashCodeProvider_t1980576455_CustomAttributesCacheGeneratorP21CustomAttributesCache
LHf:_Enumerator_VerifyState_m1677639504_AdjustorThunk
Hbb:__Z29StdTemplateConversionFunctionIbbEbPvR14SafeBinaryRead
Q3g:_CipherSuiteCollection_get_Item_m280627160
zsf:_DateTime__ParseString_m2623687350
Foh:_SerializationInfoEnumerator_MoveNext_m1876990879
Spj:_TimeSpan_Duration_m4205681645
_8a:__ZN14UnityWebStream24UpdateAllUnityWebStreamsEv
zYf:_Collection_1_System_Collections_IList_get_IsReadOnly_m2329986891_gshared
FG:__ZN15SerializeTraitsINSt3__24pairIj8UnityStrEEE8TransferI14SafeBinaryReadEEvRS3_RT_
Y$h:__ZL60ObsoleteAttribute_t3878847927_CustomAttributesCacheGeneratorP21CustomAttributesCache
Ymh:_CostDelegate_BeginInvoke_m1628968398
V5e:_Array_InternalArray__ICollection_CopyTo_TisRaycastHit2D_t4063908774_m3837098618_gshared
zTd:__ZN5physx31ComputeCreatedDeletedPairsListsEPKjS1_jRPNS_17PxcBroadPhasePairERjS5_S4_S5_S5_RNS_14SapPairManagerE
Yra:__ZN18LoadSceneOperation21MustCompleteNextFrameEv
HQ:__ZNK12AudioManager16GetAudioListenerEv
THh:_MonoField_get_FieldType_m598011426
Mec:__ZNSt3__2plIcNS_11char_traitsIcEE13stl_allocatorIcL18MemLabelIdentifier1ELi16EEEENS_12basic_stringIT_T0_T1_EERKSA_SC_
yYf:_Collection_1_System_Collections_IList_get_IsFixedSize_m1624702704_gshared
ofb:__ZN18AssetBundleManager30CollectPreloadDataDependenciesER4PPtrI11AssetBundleEbR13dynamic_arrayIiLj4EE
shi:__ZL48Camera_t189460977_CustomAttributesCacheGeneratorP21CustomAttributesCache
Y8i:__Z73RuntimeInvoker_Void_t1841601450_Int32_t2071877448_RaycastResult_t21186376PK10MethodInfoPvPS2_
LSk:__ZNSt3__212basic_stringIcNS_11char_traitsIcEENS_9allocatorIcEEE6__initINS_11__wrap_iterIPcEEEENS_9enable_ifIXsr21__is_forward_iteratorIT_EE5valueEvE4typeESB_SB_
VGc:__ZNK11Rigidbody2D20GetAttachedCollidersER13dynamic_arrayIP10Collider2DLj4EE
BYd:__ZN5physx2Gu16pcmContactBoxBoxERKNS0_13GeometryUnionES3_RKNS_11PxTransformES6_RKfRNS0_5CacheERNS0_13ContactBufferE
gtg:_InputField_OnDisable_m1865339380
ytj:_UInt32_System_IConvertible_ToType_m747769316
ty:__ZN7mecanim9animation12GetHumanPoseERKNS0_18ClipMuscleConstantEPKNS0_10ValueDeltaERNS_5human9HumanPoseE
kLk:__ZN6il2cpp2vm10Reflection17GetPropertyObjectEP11Il2CppClassPK12PropertyInfo
Fxl:_glDeleteVertexArrays__wrapper
pTb:__Z29Transfer_Blittable_ArrayFieldI19StreamedBinaryWriteILb0EEjEvRT_R9ArrayInfoRK23StaticTransferFieldInfo
x1:__Z13GetFileSystemv
awa:__ZNK5Unity4Type21FindAllDerivedClassesER13dynamic_arrayIPKS0_Lj4EENS0_17TypeFilterOptionsE
UBb:__ZN14SafeBinaryRead8TransferIfEEvRT_PKc17TransferMetaFlags
GTb:__ZL12InvokeMethodI18StreamedBinaryReadILb0EEEvRK29SerializationCommandArgumentsR31RuntimeSerializationCommandInfo
jyg:_DaylightTime_get_Delta_m2316831491
dKc:__ZNSt3__27__sort5IR24RayHitsByDepthComparitorP12RaycastHit2DEEjT0_S5_S5_S5_S5_T_
Q_e:_Array_InternalArray__ICollection_Contains_TisUILineInfo_t3621277874_m1175659630_gshared
gpj:_WaitHandle_WaitOne_m370363697
Api:__ZL114PointerEventData_t1599784723_CustomAttributesCacheGenerator_PointerEventData_set_pointerCurrentRaycast_m2431897513P21CustomAttributesCache
Zkh:_FactoryCache_Lookup_m1681894361
Yfl:__ZNSt3__215basic_streambufIcNS_11char_traitsIcEEED2Ev
Xxf:_DateTime_Subtract_m698282245_AdjustorThunk
eWj:_DefaultComparer__ctor_m2470932885_gshared
V8d:__ZN5physx2Gu5RTree15exportExtraDataERNS_22PxSerializationContextE
cja:__Z23scripting_gchandle_freej
vXb:__Z29Transfer_Blittable_ArrayFieldI18StreamedBinaryReadILb1EE5RectTIfEEvRT_R9ArrayInfoRK23StaticTransferFieldInfo
qdi:__ZL79Convert_t2607082565_CustomAttributesCacheGenerator_Convert_ToUInt64_m1896191125P21CustomAttributesCache
PKe:_RIPEMD160Managed_Initialize_m3365407578
Wbc:__Z29GetTextureSizeAllowedMultiple13TextureFormat
Mll:__ZNSt3__211__money_putIwE13__gather_infoEbbRKNS_6localeERNS_10money_base7patternERwS8_RNS_12basic_stringIcNS_11char_traitsIcEENS_9allocatorIcEEEERNS9_IwNSA_IwEENSC_IwEEEESJ_Ri
Ceh:_IPAddress_HostToNetworkOrder_m1092199707
jOd:__ZNK5physx2Sq10AABBPruner7overlapERKNS0_9ShapeDataERNS0_14PrunerCallbackE
w0e:_SetPropertyUtility_SetStruct_TisSpriteState_t1353336012_m2898060836_gshared
OPe:_SecurityAttribute__ctor_m3425755778
S9b:__ZN21IntermediateRenderers3AddEP20IntermediateRenderer
bob:__ZN14RenderSettings23VirtualRedirectTransferER18StreamedBinaryReadILb1EE
uDd:__ZN5physx6shdfnd5ArrayIPvNS0_19ReflectionAllocatorINS_2Gu30LargePersistentContactManifoldEEEE4copyINS0_15InlineAllocatorILj256ES6_EEEEvRKNS1_IS2_T_EE
Rfk:_InvokableCall_1_add_Delegate_m3068046591_gshared
wg:_glCheckFramebufferStatus
nli:__ZL55TextGenerator_t647235000_CustomAttributesCacheGeneratorP21CustomAttributesCache
M1e:_Array_compare_TisInt32_t2071877448_m840310202_gshared
MTi:__Z57RuntimeInvoker_Il2CppObject_Il2CppObject_Byte_t3683104436PK10MethodInfoPvPS2_
kVj:_InternalEnumerator_1_System_Collections_IEnumerator_get_Current_m442726479_AdjustorThunk
vwh:_DESTransform_ECB_m2629024873
MTj:_InternalEnumerator_1_System_Collections_IEnumerator_get_Current_m790514740_AdjustorThunk
l4d:__ZN5physx2Cm12DelegateTaskINS_2Sc5SceneEXadL_ZNS3_19updateCCDSinglePassEPNS_10PxBaseTaskEEEE11runInternalEv
A$c:__ZN5physx6string9sprintf_sEPcjPKcz
au:__ZNSt3__26vectorI24CompressedAnimationCurve13stl_allocatorIS1_L18MemLabelIdentifier25ELi16EEE6resizeEj
Pbe:__ZThn8_N5physx19TriangleMeshBuilderD1Ev
xdl:_sift
Xqc:__Z19ConcatWithSeparatorRKNSt3__212basic_stringIcNS_11char_traitsIcEE13stl_allocatorIcL18MemLabelIdentifier1ELi16EEEES8_S8_
L$g:__ZN16VirtFuncInvoker2IbP21BigInteger_t925946153P12Il2CppObjectE6InvokeEjPvS1_S3_
FUc:__ZN5physx2Gu16intersectRayAABBERKNS_6PxVec3ES3_S3_S3_RfS4_
vwb:__ZN9Transform23VirtualRedirectTransferER17RemapPPtrTransfer
U6i:__Z87RuntimeInvoker_Int32_t2071877448_Playable_t3667545548_Playable_t3667545548_Il2CppObjectPK10MethodInfoPvPS2_
sQf:_List_1_AddCollection_m2221063383_gshared
Kx:__ZN21AnimationClipPlayable7SetTimeEd
dI:__ZN15SerializeTraitsINSt3__24pairI8StateKey10StateRangeEEE8TransferI24GenerateTypeTreeTransferEEvRS4_RT_
sKe:_RijndaelManaged_CreateDecryptor_m3253408643
P2e:_Array_InternalArray__IndexOf_TisByte_t3683104436_m3605266236_gshared
QAi:_GUIStyle_set_richText_m1853532836
W2f:_Collection_1_System_Collections_IList_Insert_m435904526_gshared
ATj:_InternalEnumerator_1_System_Collections_IEnumerator_get_Current_m1810411564_gshared
hyi:_GUISkin_get_horizontalScrollbarThumb_m4062590908
efj:_RaycastAllCallback_Invoke_m981876639
vhl:__ZNKSt3__26locale5__imp9use_facetEl
_Re:_UnicodeEncoding__ctor_m72484327
V1d:__ZN5physx30setupFinalizeSolverConstraintsERNS_13PxcNpWorkUnitERKNS_2Gu13ContactBufferERKNS_20PxcCorrelationBufferERKNS_11PxTransformESB_bPhRKNS_13PxcSolverBodyESF_RKNS_17PxcSolverBodyDataESI_ffffff
t_h:__ZL74Il2CppArray_CustomAttributesCacheGenerator_Array_GetUpperBound_m1352329707P21CustomAttributesCache
Oba:__ZN22BuiltinResourceManager16StaticInitializeEPv
ww:__ZN7mecanim4hand8HandPose8TransferI19StreamedBinaryWriteILb0EEEEvRT_
gjd:__ZN5physx7NpScene17releaseBatchQueryEPNS_12PxBatchQueryE
FOk:__ZN6il2cpp2gc9AllocatorIP12Il2CppThreadE10deallocateEPvj
b7f:_ReadOnlyCollection_1_System_Collections_IList_Contains_m1838328308_gshared
SAd:__ZN5physx20NpRigidActorTemplateINS_13PxRigidStaticEE11attachShapeERNS_7PxShapeE
ymk:_UnityEvent_1_GetDelegate_m2720691419_gshared
m1d:__ZN5physx26solveVBlockDefaultFrictionEPNS_13PxsSolverCoreEfjjPNS_13PxcSolverBodyEPNS_17PxcSolverBodyDataEjjPNS_25PxcArticulationSolverDescEjPNS_23PxcSolverConstraintDescEjS9_jRNS_6shdfnd5ArrayINS_24PxsConstraintBatchHeaderENSA_19ReflectionAllocatorISC_EEEESG_PNS_2Cm13SpatialVectorEPNS_25PxcThresholdStreamElementEjRj
guk:__ZL25UnresolvedVirtualCall_132P12Il2CppObjectiPK10MethodInfo
s6j:_Alternation_get_Alternatives_m1445219249
N5g:_ClientSessionInfo_SetContext_m2649357891
dcb:__ZNSt3__26__treeINS_12__value_typeINS_12basic_stringIcNS_11char_traitsIcEE13stl_allocatorIcL18MemLabelIdentifier54ELi16EEEEPN16MemoryFileSystem4NodeEEENS_19__map_value_compareIS8_SC_NS_4lessIS8_EELb1EEES5_ISC_LS6_54ELi16EEE12__find_equalIS8_EERPNS_16__tree_node_baseIPvEESO_RKT_
whd:__ZN5physx15NpActorTemplateINS_18PxArticulationLinkEE17resolveReferencesERNS_24PxDeserializationContextE
VNi:__Z69RuntimeInvoker_Boolean_t3825574718_Il2CppObject_DoubleU26_t1208767207PK10MethodInfoPvPS2_
ys:__ZN14AnimationEvent8TransferI14SafeBinaryReadEEvRT_
Hdg:_RaycasterManager_GetRaycasters_m1154876874
hbh:_SslStreamBase_InternalReadCallback_m2524917586
Yaa:__ZN8Remapper6RemoveEi
VMf:_List_1_CheckCollection_m2608305187_gshared
QKd:__ZN5physx19NpRigidBodyTemplateINS_18PxArticulationLinkEE9visualizeERNS_2Cm12RenderOutputEPNS_7NpSceneE
uSd:__ZN5physx11writeBack1DERKNS_23PxcSolverConstraintDescERNS_16PxcSolverContextERNS_17PxcSolverBodyDataES6_
Lrj:_Type_get_ContainsGenericParameters_m505913180
Lme:__ZL36CleanupTextRenderingScriptingClassesv
fQc:__ZThn4_N16RayRTreeCallbackILi0ELb0EED0Ev
T4a:__ZN15ReflectionProbe17UseRendererResultEP13ProbeRenderer
Nef:_Array_BinarySearch_m3270245097
Slc:__Z34Mesh_CUSTOM_SetArrayForChannelImplP12Il2CppObject30InternalScriptingShaderChannel34InternalScriptingVertexChannelTypeiP11Il2CppArrayi
lFg:_MonoIO_DeleteFile_m3273821223
Ylg:__ZN16VirtFuncInvoker0I17Color_t2020392075E6InvokeEjPv
TQg:_BigInteger_GenerateRandom_m2507308768
Nwf:_DateTime_System_IConvertible_ToDouble_m1431748426_AdjustorThunk
jsh:__ZN16VirtFuncInvoker0IdE6InvokeEjPv
X8i:__Z76RuntimeInvoker_Void_t1841601450_Int32_t2071877448_ContactPoint2D_t3659330976PK10MethodInfoPvPS2_
B_e:_Array_InternalArray__ICollection_Contains_TisUInt16_t986882611_m510319131_gshared
IJd:__ZNK5physx2Sc5Scene20getNbParticleSystemsEv
lAf:_Decimal_ToString_m541380585
Mlh:_RepeatContext_get_Previous_m808449037
gVi:__Z60RuntimeInvoker_DateTime_t693205669_Il2CppObject_Il2CppObjectPK10MethodInfoPvPS2_
mGh:_MemberFilter__ctor_m1775909550
VGk:_il2cpp_class_is_valuetype
pNd:__ZN5physx2Gu17GetGeomSweepFuncsEv
d7c:__ZN5physx6shdfnd8PoolBaseINS_15PxsArticulationENS0_16AlignedAllocatorILj64ENS0_9AllocatorEEEE17releaseEmptySlabsEv
rDf:_Enum_ToObject_m2601523252
Hrl:dynCall_viiffiii
Hah:_InternalAsyncResult_get_FromWrite_m2893408424
Ywk:__ZN6il2cpp2vm5Class15GetElementClassEP11Il2CppClass
Gvg:_U3CDelayedSetDirtyU3Ec__Iterator0_System_Collections_IEnumerator_get_Current_m851854792
JAf:_Delegate_CreateDelegate_m1706525923
unl:__ZNKSt3__25ctypeIwE10do_tolowerEPwPKw
xud:__ZN5physx22NpParticleBaseTemplateINS_15PxParticleFluidENS_15NpParticleFluidEE23setParticleReadDataFlagENS_22PxParticleReadDataFlag4EnumEb
smj:_UTF7Encoding_GetBytes_m3015176946
$mb:__ZN16GraphicsSettings8TransferI17RemapPPtrTransferEEvRT_
A$g:_BigInteger_op_LessThanOrEqual_m3528380540
xIg:_StreamReader__ctor_m2654332332
MAe:__ZN2UI6Canvas13UpdateBatchesEb
K8:__Z28scripting_method_is_instance21ScriptingMethodIl2Cpp
VZb:__ZNSt3__26vectorIN9ShaderLab20SerializedSubProgram14ConstantBufferENS_9allocatorIS3_EEE18__construct_at_endINS_11__wrap_iterIPS3_EEEENS_9enable_ifIXsr21__is_forward_iteratorIT_EE5valueEvE4typeESC_SC_j
spi:__ZL105PointerEventData_t1599784723_CustomAttributesCacheGenerator_PointerEventData_set_pointerEnter_m1440587006P21CustomAttributesCache
$Kf:_List_1_CheckCollection_m3968030679_gshared
Bek:_Predicate_1_BeginInvoke_m3556950370_gshared
$nd:__ZN5physx2Gu5Debug9visualizeERKNS_13PxBoxGeometryERNS_2Cm12RenderOutputERKNS5_8Matrix34ERKNS_9PxBounds3Eyfj
KYe:_StringBuilder_ToString_m617673931
$xa:__ZNK13GfxDeviceGLES12GetWireframeEv
HCk:__ZN15dense_hashtableINSt3__24pairIK10KeyWrapperIPK19Il2CppGenericMethodEPK26Il2CppGenericMethodIndicesEES6_N6il2cpp8metadata23Il2CppGenericMethodHashEN14dense_hash_mapIS6_SA_SE_NSD_26Il2CppGenericMethodCompareENS0_9allocatorISB_EEE9SelectKeyESG_SI_E4findERS7_
COc:__ZN5physx6shdfnd5ArrayIPKvNS0_19ReflectionAllocatorIS3_EEE6resizeEjRKS3_
K7f:_ReadOnlyCollection_1_System_Collections_ICollection_get_IsSynchronized_m3127987432_gshared
pza:__ZN9GfxDevice18AllocRenderSurfaceEb
$1d:__ZN5physx31setupFinalizeSolverConstraints4EPNS_21PxcSolverContact4DescERNS_18PxcNpThreadContextEPhffRKNS_6shdfnd3aos5Vec4VES9_S9_S9_
IFd:__ZN5physx7NpScene5flushEb
I6j:_AnchorInfo_get_IsComplete_m1247624133
Tmg:_Dropdown_Show_m324374589
t6:__ZL27CleanupCoreScriptingClassesv
pVh:__ZN16VirtFuncInvoker1Ii38CustomAttributeNamedArgument_t94157543E6InvokeEjPvS0_
jPc:__ZN5physx2Gu13GeometryUnion3setERKNS_10PxGeometryE
uZc:__ZThn8_N5physx3Cct17CapsuleController15getPxControllerEv
Gpk:_GenericComparer_1__ctor_m3575096182_gshared
$fg:_RaycastResult_get_isValid_m2482925612
Hlc:__Z26AnimationCurve_CUSTOM_InitP12Il2CppObjectP11Il2CppArray
QCc:__ZNK14b2PolygonShape5CloneEP16b2BlockAllocator
LMk:__ZN6il2cpp2vm10Reflection7IsEventEP12Il2CppObject
sCk:__ZNSt3__26__treeINS_12__value_typeIPFvvEPK10MethodInfoEENS_19__map_value_compareIS3_S7_NS_4lessIS3_EELb1EEENS_9allocatorIS7_EEE16__insert_node_atEPNS_16__tree_node_baseIPvEERSI_SI_
z7:__ZN17PersistentManager26GetStreamNameSpaceInternalEi
oM:__ZN4FMOD6System11createSoundEPKcjP22FMOD_CREATESOUNDEXINFOPPNS_5SoundE
g7f:_ReadOnlyCollection_1_System_Collections_ICollection_get_IsSynchronized_m4056631538_gshared
Lo:FUNCTION_TABLE_iiifiiii
m$g:__ZN16VirtFuncInvoker1IP21BigInteger_t925946153iE6InvokeEjPvi
w1i:__Z66RuntimeInvoker_Void_t1841601450_Int32_t2071877448_Rect_t3681755626PK10MethodInfoPvPS2_
SEi:_Object_Destroy_m4145850038
Uda:__ZNSt3__26__treeINS_12__value_typeINS_12basic_stringIcNS_11char_traitsIcEENS_9allocatorIcEEEEiEENS_19__map_value_compareIS7_S8_NS_4lessIS7_EELb1EEENS5_IS8_EEE7destroyEPNS_11__tree_nodeIS8_PvEE
oQk:__ZN6il2cpp2vm4Type14IsSystemDBNullEPK10Il2CppType
ygc:__ZN9Scripting28CreateEngineScriptableObjectEP12Il2CppObject
_ee:__ZThn128_N5physx7profile8ZoneImplINS_28PxProfileNameProviderForwardEED1Ev
f5:__ZN9ShaderLab19CommonPropertyNames13StaticCleanupEPv
jhj:_ScrollRect_UpdateBounds_m3266596336
FOd:__ZN5physx2Sq17AABBTreeUpdateMap10invalidateEjjRNS0_8AABBTreeE
RTa:_unity_z_zcfree
Hcj:_LayoutUtility_GetFlexibleWidth_m1731978987
o1d:__ZN5physx28solveParallelDefaultFrictionERNS_18PxsDynamicsContextEjjPNS_13PxcSolverBodyEPNS_17PxcSolverBodyDataEjjPNS_25PxcArticulationSolverDescEjPNS_23PxcSolverConstraintDescEjS9_jPiSA_SA_SA_SA_SA_PNS_25PxcThresholdStreamElementEjSA_PNS_2Cm13SpatialVectorEPKPNS_11PxsBodyCoreERNSD_10BitMapBaseINS_6shdfnd9AllocatorEEEPKPNS_15PxsArticulationEjPViRNSL_5ArrayINS_24PxsConstraintBatchHeaderENSL_19ReflectionAllocatorISW_EEEES10_RNSV_IjNSX_IjEEEES13_PPNS_12PxsRigidBodyEj
hwl:_glStencilOpSeparate__wrapper
gcc:__ZN4Mesh5SetUvEiPKfjj
xsa:__ZN7Texture13SetAnisoLimitENS_20AnisotropicFilteringE
Nsa:__ZN28LightProbeProxyVolumeManager25UpdateSHCoeffsTextureDataER21LightProbeProxyVolume
UNa:__Z18CreateDecompressor15CompressionType18MemLabelIdentifier
GU:__ZN11AudioModule16SetListenerPauseEb
yJi:_Renderer_set_sortingOrder_m809829562
pi:_emscripten_glCompressedTexSubImage2D
vHa:__ZN13GfxDeviceGLES22MemoryBarrierImmediateEyN2gl17MemoryBarrierTypeE
uLk:__ZNK15dense_hashtableINSt3__24pairIK10KeyWrapperINS1_IPK12PropertyInfoP11Il2CppClassEEEjEES9_17ReflectionMapHashIS8_EN14dense_hash_mapIS9_jSD_19ReflectionMapEqualsIS8_ENS0_9allocatorISB_EEE9SelectKeyESG_SI_E12test_deletedEj
PWc:__ZN5physx6shdfnd5ArrayIjNS0_19ReflectionAllocatorIjEEE8recreateEj
zUk:__ZN6il2cpp6icalls8mscorlib6System4Type18internal_from_nameEP12Il2CppStringbb
Wpa:__ZN6prcoreL26RemapGenericFloatToIntegerI18TexFormatARGBFloat17TexFormatARGB8888EEvPKNS_9InnerInfoE
J2k:__ZN6il2cpp6icalls8mscorlib6System10Reflection9MonoField16GetValueInternalEP21Il2CppReflectionFieldP12Il2CppObject
r3b:__ZN6Object27GetOffsetOfInstanceIdMemberEv
Tve:_cff_ps_has_glyph_names
lgk:_InvokableCall_1__ctor_m2837611051_gshared
Ube:__ZN5physx15writeWordBufferEPKtjbRNS_14PxOutputStreamE
Gok:_Fading_fadeIn_m3703960498
kNh:_Transform_1_EndInvoke_m1025924012_gshared
r_h:__ZL81Il2CppArray_CustomAttributesCacheGenerator_Array_GetValue_m3550694941____indices0P21CustomAttributesCache
G8f:_ReadOnlyCollection_1_System_Collections_Generic_ICollectionU3CTU3E_get_IsReadOnly_m2873538493_gshared
s4j:_PatternCompiler_EmitPosition_m3013268572
vkh:_X509SubjectKeyIdentifierExtension__ctor_m1109455121
j1f:_Collection_1_SetItem_m2707773254_gshared
Bsk:__ZL24UnresolvedVirtualCall_45P12Il2CppObject19DateTime_t693205669PK10MethodInfo
lpg:_Graphic_CreateColorFromAlpha_m2614574534
nZe:_UnicodeEncoding_GetHashCode_m2443440683
Gvc:__Z44Register_UnityEngine_GUIStyle_SetDefaultFontv
lDh:_GenericTypeParameterBuilder_GetPropertyImpl_m3566422383
S_k:__GLOBAL__sub_I_ThreadImpl_cpp
PWb:__Z18Transfer_BlittableI18StreamedBinaryReadILb1EELb1EiEvRK29SerializationCommandArgumentsR31RuntimeSerializationCommandInfo
DD:__ZN9BlobWrite8TransferI22OffsetPtrArrayTransferIKN4math7_float3EEEEvRT_PKc17TransferMetaFlags
qOe:_TripleDES_IsWeakKey_m483013953
iOh:_Enumerator__ctor_m3819430617_AdjustorThunk
S4c:__ZN5physx2Sc7BodySim37checkSleepReadinessBesidesWakeCounterEv
NWb:__Z18Transfer_BlittableI18StreamedBinaryReadILb1EELb1EsEvRK29SerializationCommandArgumentsR31RuntimeSerializationCommandInfo
bMk:__ZN15dense_hashtableINSt3__24pairIK10KeyWrapperINS1_IPK9EventInfoP11Il2CppClassEEEjEES9_17ReflectionMapHashIS8_EN14dense_hash_mapIS9_jSD_19ReflectionMapEqualsIS8_ENS0_9allocatorISB_EEE9SelectKeyESG_SI_E13clear_deletedER30dense_hashtable_const_iteratorISB_S9_SD_SK_SG_SI_E
YA:__ZN26AnimatorControllerPlayable17IsMultithreadableEv
iwf:__ZN16VirtFuncInvoker0IP27NumberFormatInfo_t104580544E6InvokeEjPv
SSe:_Single_System_IConvertible_ToSByte_m3757385387
q6i:__Z51RuntimeInvoker_Boolean_t3825574718_Slot_t2022531261PK10MethodInfoPvPS2_
pGg:_StreamAsyncResult_SetComplete_m2141125667
Csa:__ZL21SetAnisoLimitEnumImplN7Texture20AnisotropicFilteringEb
hEe:__ZN22BaseUnityConnectClient17OnEnterStateReadyEv
Fxd:__ZNK5physx22NpParticleBaseTemplateINS_16PxParticleSystemENS_16NpParticleSystemEE15getMaxParticlesEv
wid:__ZN5physx2Sc16ArticulationCore14setWakeCounterEf
SCd:__ZN5physx2Sc10NPhaseCore24createTriggerInteractionERNS0_8ShapeSimES3_NS_7PxFlagsINS_10PxPairFlag4EnumEtEE
uxc:__ZN8JSONRead18TransferStringDataI8UnityStrEEvRT_
HPa:__ZN15dense_hashtableINSt3__24pairIKNS0_12basic_stringIcNS0_11char_traitsIcEE13stl_allocatorIcL18MemLabelIdentifier54ELi16EEEEP20ArchiveStorageReaderEES8_11djb2_hash_tIS8_EN14dense_hash_mapIS8_SB_SE_NS0_8equal_toIS8_EES5_ISC_LS6_54ELi16EEE9SelectKeyESH_SI_E13set_empty_keyERKSC_
SSc:__Z19sweepConvex_BoxGeomRKN5physx10PxGeometryERKNS_11PxTransformERKNS_20PxConvexMeshGeometryES5_RKNS_6PxVec3EfRNS_10PxSweepHitENS_7PxFlagsINS_9PxHitFlag4EnumEtEEf
Nkl:__ZNKSt3__210moneypunctIcLb1EE14do_frac_digitsEv
sPc:__ZN5physx2Gu9ContainerD2Ev
kCi:_Keyframe_get_tangentMode_m1869200796_AdjustorThunk
alc:__Z29Input_CUSTOM_GetMouseButtonUpi
iRc:__ZN5physx2Gu12selectNormalEhff
eGk:__ZN6il2cpp6icalls8mscorlib6System8MonoType16InternalGetEventEP20Il2CppReflectionTypeP12Il2CppStringi
Ctj:_UInt32_System_IConvertible_ToUInt32_m1257480358_AdjustorThunk
Nvf:_Convert_ToUInt32_m3085255294
Cpe:_UNITY_tt_face_load_maxp
llc:__Z46Input_CUSTOM_INTERNAL_set_compositionCursorPosRK13Vector2fIcall
kz:__ZN7mecanim5human12FullBodyMaskEv
fwd:__ZN5physx3Scb14ParticleSystem16releaseParticlesEjRKNS_16PxStrideIteratorIKjEE
ibi:__ZL98Activator_t1850728717_CustomAttributesCacheGenerator_Activator_CreateInstance_m1465989661____args1P21CustomAttributesCache
C4:__ZN19ShaderPropertySheet11ComputeHashEv
yCi:__ZN23InterfaceActionInvoker4IiP18Object_t1021602117P8String_tP24ObjectU5BU5D_t3614634134E6InvokeEjP11Il2CppClassPviS1_S3_S5_
SId:__ZN5physx2Sc5Scene21processLostTouchPairsEv
MDc:__ZN12b2EPCollider24ComputePolygonSeparationEv
$q:__ZN4PPtrI6ObjectE8TransferI18StreamedBinaryReadILb1EEEEvRT_
Tkg:_ColorTween_get_tweenMode_m2919867230_AdjustorThunk
M6e:_Array_InternalArray__Insert_TisUInt16_t986882611_m2263078_gshared
Fjg:_CanvasScaler_HandleScaleWithScreenSize_m80056230
Yuh:_SByte_System_IConvertible_ToUInt64_m2174352876_AdjustorThunk
nFk:__ZNK6il2cpp5utils10functional6FilterINSt3__212basic_stringIcNS3_11char_traitsIcEENS3_9allocatorIcEEEENS0_11StringUtils21CaseSensitiveComparerEEclIPKcEEbRKT_
Js:__ZN7mecanim9animation18ClipMuscleConstant8TransferI14SafeBinaryReadEEvRT_
yDh:_GenericTypeParameterBuilder_get_AssemblyQualifiedName_m902593295
hXd:__ZN5physx22PxcContactConvexConvexERKNS_2Gu13GeometryUnionES3_RKNS_11PxTransformES6_RKfRNS_10PxcNpCacheERNS0_13ContactBufferE
gmj:_UTF7Encoding_InternalGetBytes_m2772055844
zWh:_EqualityComparer_1__ctor_m831468288_gshared
AQc:__ZNK5physx2Gu11ConvexHullV12HillClimbingERKNS_6shdfnd3aos5Vec3VE
gLb:__ZL29CanTransferTypeAsNestedObjectI18TransferField_InfoEbRKT_
LCd:__ZNK5physx2Sc17ParticleSystemSim7getCoreEv
tPg:_SimpleCollator__cctor_m2693747668
eAf:_Decimal_CompareTo_m2454501434_AdjustorThunk
O7:__ZN14SafeBinaryReadD2Ev
jsj:_UInt16_System_IConvertible_ToChar_m4055364664
Vvd:__ZN5physx2Sc18ParticleSystemCore10setDampingEf
b4b:__Z13RegisterClassI7TextureEvv
M7j:_ExpressionCollection_OnValidate_m1703610065
mHj:_Playable_INTERNAL_CALL_GetPlayStateInternal_m3560305748
Lx:__ZNK21AnimationClipPlayable7GetTimeEv
Bub:__ZN8Gradient8TransferI18StreamedBinaryReadILb1EEEEvRT_
INh:_Enumerator_Dispose_m2369319718_AdjustorThunk
Mci:__ZL79Convert_t2607082565_CustomAttributesCacheGenerator_Convert_ToUInt16_m3991499696P21CustomAttributesCache
C1c:__ZN5physx2Sc10NPhaseCore16deleteFilterPairEPNS0_10FilterPairE
qvc:__Z45Register_UnityEngine_GUIStyle_SetFontInternalv
OIc:__ZN19CollisionListener2DD0Ev
jGg:__ZN16VirtFuncInvoker5IP12Il2CppObjectP22ByteU5BU5D_t3397334013iiP24AsyncCallback_t163412349S1_E6InvokeEjPvS3_iiS5_S1_
OVf:_Enumerator_Dispose_m1520016780_AdjustorThunk
Ugb:__ZN15dense_hashtableINSt3__24pairIKNS0_12basic_stringIcNS0_11char_traitsIcEENS0_9allocatorIcEEEES7_EES7_11djb2_hash_tIS7_EN14dense_hash_mapIS7_S7_SB_NS0_8equal_toIS7_EE13stl_allocatorIS9_L18MemLabelIdentifier54ELi16EEE9SelectKeyESE_SH_ED2Ev
CUk:__ZN6il2cpp6icalls8mscorlib6System4Type15MakeGenericTypeEP20Il2CppReflectionTypeP11Il2CppArray
Dge:_PxCreateBasePhysics
Kj:_SDL_PauseAudio
_Gk:_il2cpp_class_from_type
tff:_Array_Sort_m2323017822
d5k:_GC_clear_mark_bit
Mfj:_Scrollbar_UpdateDrag_m3839695926
Vwi:_GUILayoutUtility__cctor_m2957755459
Gyj:_AudioConfigurationChangeHandler_EndInvoke_m2237100787
C5c:__ZN5physx2Sc5Scene28addActiveBreakableConstraintEPNS0_13ConstraintSimE
e5:__ZN9ShaderLab19CommonPropertyNames16StaticInitializeEPv
Bkd:__ZN5physx6shdfnd8PoolBaseINS_16NpParticleSystemENS0_19ReflectionAllocatorIS2_EEE15disposeElementsEv
Lwa:__ZN17ShaderPassContext8CopyFromERKS_
jra:__ZN13MemoryManager31DisallowAllocationsOnThisThreadEv
hF:__ZN7mecanim9animation18CreateAvatarOutputEPKNS0_14AvatarConstantEbbRNS_6memory9AllocatorE
ufe:__ZN5physx7profile11EventBufferINS_24PxDefaultContextProviderENS_6shdfnd6MutexTINS0_26WrapperReflectionAllocatorIhEEEENS0_14ScopedLockImplIS7_EENS_24PxProfileNullEventFilterEE10eventValueEtyx
Xvh:_CspParameters__ctor_m2546931874
$R:__ZN11AudioSource23VirtualRedirectTransferER24GenerateTypeTreeTransfer
BUc:__ZN5physx2Gu11getBoxEdgesEv
txb:__ZN14Texture2DArray23VirtualRedirectTransferER14SafeBinaryRead
z$a:__ZNK6Camera21CalculateCanDoShadowsEv
qHd:__ZNK5physx2Sc5Scene17getBroadPhaseCapsERNS_16PxBroadPhaseCapsE
oSh:_Dictionary_2_make_pair_m2631942124_gshared
ohd:__ZN5physx9NpFactory14onActorReleaseEPNS_7PxActorE
yzk:__ZN14dense_hash_mapI10KeyWrapperINSt3__212basic_stringIcNS1_11char_traitsIcEENS1_9allocatorIcEEEEEP11Il2CppClassN6il2cpp5utils11StringUtils12StringHasherIS7_EENS1_8equal_toIS8_EENS5_INS1_4pairIKS8_SA_EEEEEC2EjRKSF_RKSH_
tpg:_Graphic__cctor_m1643894470
x1k:__ZN6il2cpp2os6Thread12SetStackSizeEj
eih:_X509ChainElementEnumerator_get_Current_m2232618221
E7c:__ZN5physx2Sc5Actor15onElementAttachERNS0_7ElementE
SXf:_Collection_1_Clear_m3860339101_gshared
rIb:__ZNK20ArchiveStorageReader15HasStreamBlocksEv
Hcc:__ZNK8Renderer16IsVisibleInSceneEv
G0i:__Z44RuntimeInvoker_AnimatorStateInfo_t2577870592PK10MethodInfoPvPS2_
dhj:_ScrollRect_set_onValueChanged_m3957749575
X1:__Z13VFormatBufferPciPKcz
Gvd:__ZN5physx2Sc18ParticleSystemCore23setSimulationFilterDataERKNS_12PxFilterDataE
NUb:__Z18Transfer_BlittableI18StreamedBinaryReadILb0EELb1EhEvRK29SerializationCommandArgumentsR31RuntimeSerializationCommandInfo
p5h:__ZL90SafeHandle_t2733794115_CustomAttributesCacheGenerator_SafeHandle_get_IsInvalid_m3910183075P21CustomAttributesCache
mrg:_Image_GenerateSimpleSprite_m4275440988
SDj:_Display_get_systemHeight_m3377672024
_sj:_UInt16_ToString_m3280699191
rmk:_UnityEvent_1_GetDelegate_m2566156550_gshared
_pa:__ZN6prcoreL27StretchGenericFloatBilinearI15TexFormatRFloatEEvPKNS_9InnerInfoE
zNd:__ZN5physx6shdfnd8internal8HashBaseINS0_4PairIKNS_2Sq13PrunerPayloadEjEES5_NS0_4HashIS5_EENS1_11HashMapBaseIS5_jS9_NS0_9AllocatorEE6GetKeyESB_Lb1EE15reserveInternalEj
k6h:__ZL62IDynamicMessageSink_t3056162262_CustomAttributesCacheGeneratorP21CustomAttributesCache
OOi:__Z33RuntimeInvoker_UInt32_t2149682021PK10MethodInfoPvPS2_
sNi:__Z130RuntimeInvoker_Int32_t2071877448_Il2CppObject_Int32_t2071877448_Int32_t2071877448_Il2CppObject_Int32_t2071877448_Int32_t2071877448PK10MethodInfoPvPS2_
B0e:_Array_InternalArray__IEnumerable_GetEnumerator_TisBoolean_t3825574718_m798244337_gshared
uSf:_List_1_CopyTo_m158925060_gshared
Ujb:__ZN4core20StringStorageDefaultIcE6assignERKS1_
tSi:__Z102RuntimeInvoker_Il2CppObject_Int32_t2071877448_Int32_t2071877448_Il2CppObject_Il2CppObject_Il2CppObjectPK10MethodInfoPvPS2_
vJb:__ZN39AssetBundleLoadFromStreamAsyncOperationC2ERKNSt3__212basic_stringIcNS0_11char_traitsIcEENS0_9allocatorIcEEEE
v2e:_Array_IndexOf_TisCustomAttributeNamedArgument_t94157543_m745056346_gshared
zra:__Z33scripting_unity_engine_object_newP11Il2CppClassP6Object
jDk:__ZN6il2cpp2vm13MetadataCache28GetFieldDefaultValueForFieldEPK9FieldInfo
dWj:_DefaultComparer_Compare_m3277849110_gshared
KKj:_ArrayReadOnlyList_1_ReadOnlyError_m2289309720_gshared
Pz:__ZN27AnimationLayerMixerPlayableD2Ev
AEk:__ZN6il2cpp2vm8basepathEPKc
kRd:__ZN5physx2Gu22gjkRelativePenetrationINS0_9TriangleVENS0_8CapsuleVEEEjRKT_RKT0_RKNS_6shdfnd3aos15PsMatTransformVERKNSB_6FloatVERNSB_5Vec3VESJ_SJ_RSF_PhSL_Rh
p9:__ZNSt3__212basic_stringIcNS_11char_traitsIcEE13stl_allocatorIcL18MemLabelIdentifier1ELi16EEE9push_backEc
aUh:_DefaultComparer_GetHashCode_m320514092_gshared
H1g:_PKCS1_Verify_v15_m478274703
nO:__ZN12AudioManager39HandlePendingAudioConfigurationCallbackEv
wra:__ZNK8Material16MarkDependenciesER27GarbageCollectorThreadState
M6a:__Z20RequiredComponentsOfP11Il2CppClass
LHj:_GenericMixerPlayable_InternalCreate_m559491731
Jk:_emscripten_glIsFramebuffer
yIa:__ZNK13TranslateGLES9GetFormatE13TextureFormat17TextureColorSpace
uyb:__ZN12_GLOBAL__N_16qAtan2Eff
Hhl:__ZNSt3__215__num_get_floatIfEET_PKcS3_Rj
Wuf:_Convert_ToInt64_m954367741
Mk:_JS_Sound_SetLoopPoints
xkf:_ArrayList__ctor_m1467563650
AS:__ZN12AudioManager17ShouldSourcePauseEb
e8k:__ZN6il2cpp2vm26MetadataAllocGenericMethodEv
xok:_Buff_Deactivate_m2344047724
YJa:__ZN19ConstantBuffersGLES12RecordRenderEv
bNd:__ZN5physx13ActorAABBTaskD2Ev
rrb:__ZN18AsyncUploadManager22UploadStreamingTextureEP28FileTextureUploadInstruction
Szc:__ZN9JSONWrite8TransferI10RectOffsetEEvRT_PKc17TransferMetaFlags
cFa:__ZN4crnd12symbol_codec11decode_bitsEj
spl:__ZNSt3__212basic_stringIwNS_11char_traitsIwEENS_9allocatorIwEEE7reserveEj
NDc:__ZN15b2CircleContact8EvaluateEP10b2ManifoldRK11b2TransformS4_
B9e:_Array_Sort_TisRaycastResult_t21186376_TisRaycastResult_t21186376_m38820193_gshared
bxj:_Animator_ResetTriggerString_m1445965342
Orj:_Type_GetGenericTypeDefinition_m2658530753
o9b:__ZN21FixedBehaviourManagerD0Ev
Fki:__ZL55RaycastHit2D_t4063908774_CustomAttributesCacheGeneratorP21CustomAttributesCache
wFg:_StreamReader__ctor_m3454466728
izc:__ZL17Transfer_GUIStyleI9JSONWriteLb0EEvRK29SerializationCommandArgumentsR31RuntimeSerializationCommandInfo
fCa:__ZNK18GfxFramebufferGLES15GetSamplesCountEv
r_b:__ZNSt3__26vectorIN9ShaderLab20SerializedSubProgram15MatrixParameterENS_9allocatorIS3_EEE26__swap_out_circular_bufferERNS_14__split_bufferIS3_RS5_EE
skk:_Vector2_get_Item_m2792130561
lra:__Z16MarkDependenciesR27GarbageCollectorThreadStatej
Oil:__ZNSt3__27num_putIwNS_19ostreambuf_iteratorIwNS_11char_traitsIwEEEEED0Ev
Yjh:_X509ChainElementEnumerator_Reset_m3832280427
voi:__ZL75EventSystem_t3466835263_CustomAttributesCacheGenerator_U3CU3Ef__mgU24cache0P21CustomAttributesCache
sNg:_MulticastDelegate_RemoveImpl_m2024746777
Ojg:_CanvasUpdateRegistry_ParentCount_m2367607495
mNg:_MulticastDelegate_Equals_m3064081489
i4i:__Z54RuntimeInvoker_Void_t1841601450_ColorBlock_t2652774230PK10MethodInfoPvPS2_
vZg:_Activator_CreateInstance_m1465989661
X4:__ZNK9Transform11GetPositionEv
gkd:__ZN5physx12NpConstraint8requiresERNS_23PxProcessPxBaseCallbackE
E$j:__ZN21InterfaceFuncInvoker1IP8String_tS1_E6InvokeEjP11Il2CppClassPvS1_
yHj:_Playable_INTERNAL_CALL_GetDurationInternal_m2061318387
nYa:__ZN23SharedMeshRenderingData18UnloadVertexStreamEi
Dlk:_Vector4_set_Item_m3077071044
Iog:__ZN16VirtFuncInvoker0IP19Material_t193706927E6InvokeEjPv
u_c:__ZN5physx3Cct13HandleManager3AddEPv
R9b:__ZN31CanvasBatchIntermediateRenderer11AddSubBatchERK16DrawBuffersRangePK19ShaderPropertySheet
Wpi:__ZL104PointerEventData_t1599784723_CustomAttributesCacheGenerator_PointerEventData_set_scrollDelta_m4002219844P21CustomAttributesCache
s8b:__ZN19RenderEventsContextC2Ei
SV:__Z6simd4fRKf
wgk:_InvokableCall_3_Find_m3470456112_gshared
O5e:_Array_InternalArray__ICollection_CopyTo_TisColor32_t874517518_m379086718_gshared
Fjj:_Slider_ClampValue_m2851810895
nl:_emscripten_glEnable
Gxi:_GUISkin_set_font_m4009958323
qmk:_UnityEvent_1_FindMethod_Impl_m3813546_gshared
gZk:__ZN6il2cpp2gc16GarbageCollector29RegisterFinalizerForNewObjectEP12Il2CppObject
Pjb:__ZN10TagManager23VirtualRedirectTransferER14SafeBinaryRead
s6d:__ZNK5physx2Sc15ClothFabricCore9getNbSetsEv
NZj:_MarshalAsAttribute__ctor_m1892084128
Yoe:_UNITY_FT_Init_Class_ft_grays_raster
g_i:__Z53RuntimeInvoker_Void_t1841601450_Vector3U26_t425862308PK10MethodInfoPvPS2_
H2a:__Z15InitLightMeshesv
dbi:__ZL97WaitHandle_t677569169_CustomAttributesCacheGenerator_WaitHandle_t677569169____Handle_PropertyInfoP21CustomAttributesCache
xGd:__ZNK5physx7NpScene26getNbContactDataBlocksUsedEv
gGf:_KeyValuePair_2_ToString_m1391611625_AdjustorThunk
jo:FUNCTION_TABLE_iifiii
MYk:__ZNK10KeyWrapperIP12Il2CppObjectEeqERKS2_
eWc:__ZN5physx2Gu29computeCapsule_HeightFieldMTDERKNS_21PxHeightFieldGeometryERKNS_11PxTransformERNS0_8CapsuleVEffbjRNS_10PxSweepHitE
WBd:__ZNK5physx2Cm12DelegateTaskINS_7NpSceneEXadL_ZNS2_14executeCollideEPNS_10PxBaseTaskEEEE7getNameEv
L7d:__ZN5physx2Gu11HeightField15exportExtraDataERNS_22PxSerializationContextE
lvb:__ZN15QualitySettings8TransferI19StreamedBinaryWriteILb0EEEEvRT_
nMf:_List_1_System_Collections_Generic_IEnumerableU3CTU3E_GetEnumerator_m1503548298_gshared
QSb:__Z18Transfer_BlittableI19StreamedBinaryWriteILb0EELb1E8Vector2fEvRK29SerializationCommandArgumentsR31RuntimeSerializationCommandInfo
Tte:_cf2_arrstack_init
xwk:__ZN30dense_hashtable_const_iteratorINSt3__24pairIK10KeyWrapperIPK22Il2CppGenericParameterEP11Il2CppClassEES6_N6il2cpp5utils11PointerHashIS4_EEN14dense_hash_mapIS6_S9_SE_NS0_8equal_toIS6_EENS0_9allocatorISA_EEE9SelectKeyESH_SJ_EppEv
V4h:__ZL65ClassInterfaceAttribute_t910653559_CustomAttributesCacheGeneratorP21CustomAttributesCache
BXj:__ZN16VirtFuncInvoker2Ii19Vector2_t2243707579S0_E6InvokeEjPvS0_S0_
J$:__Z15CleanLogHandler7LogTypePKcz
F0b:__ZN9ShaderLab19SerializedSubShader8TransferI19StreamedBinaryWriteILb0EEEEvRT_
Cmd:__ZN5physx10NpMaterialC2ERKNS_2Sc12MaterialCoreE
yT:__ZN14AudioBehaviour15ThreadedCleanupEv
c_d:__ZN5physx9PxTaskMgr10resolveRowEjb
rK:__ZN10HumanTrait12CleanupClassEv
HKb:__ZN6Camera17RemoveImageFilterERK11ImageFilter
VGa:__ZNSt3__218__insertion_sort_3IR25ValueParameterArraySorterPN20GpuProgramParameters14ValueParameterEEEvT0_S6_T_
snf:_CaseInsensitiveHashCodeProvider_AreEqual_m2456617355
Dfh:_WebHeaderCollection__ctor_m4088938710
Bcj:_LayoutUtility_GetLayoutProperty_m4052007472
pgk:_InvokableCall_1_Invoke_m3239892614_gshared
Xre:_Horizontal_Sweep_Init
pXh:_EqualityComparer_1_get_Default_m1806515335_gshared
ztk:__ZL24UnresolvedVirtualCall_97P12Il2CppObjectS0_iS0_iPK10MethodInfo
ell:__ZNKSt3__210moneypunctIwLb1EE14do_curr_symbolEv
Ikc:__Z40Renderer_Set_Custom_PropSortingLayerNameP12Il2CppObjectP12Il2CppString
j6g:_Context_set_WriteSequenceNumber_m3356252710
O5d:__ZNK5physx13NpClothFabric13getRestvaluesEPfj
vSk:__ZN6il2cpp6icalls8mscorlib6System9ThreadingL20GetSerializedCultureERPhRj
vTc:__ZN5physx2Gu16_gjkLocalRayCastINS0_9TriangleVENS0_11ConvexHullVEEEbRT_RT0_RKNS_6shdfnd3aos6FloatVERKNS9_5Vec3VESF_RSA_RSD_SH_f
Jx:__ZNK8Playable11GetDurationEv
EPf:_List_1_Find_m928286154_gshared
$x:__ZN17AnimationPlayable28ComputeNeedsBindingRebuildedEv
cll:__ZNKSt3__210moneypunctIwLb1EE16do_thousands_sepEv
N5c:__ZN5physx6shdfnd8PoolBaseINS_2Cm5BlockIPvLj32EEENS0_19ReflectionAllocatorIS5_EEE17releaseEmptySlabsEv
PVj:_DefaultComparer__ctor_m2859550749_gshared
Jwj:_AnimationEvent_get_functionName_m4178006856
pTd:__ZN5physx23PxsBroadPhaseContextSap21batchUpdateFewUpdatesEjRPNS_17PxcBroadPhasePairERjS4_
LWc:__ZN5physx3Cct17getSceneTimestampEPKNS0_30InternalCBData_FindTouchedGeomE
Mbd:__ZN5physx14NpArticulation12applyImpulseEPNS_18PxArticulationLinkERKNS_24PxArticulationDriveCacheERKNS_6PxVec3ES8_
Fhh:_X509ExtensionCollection__ctor_m1324282194
vFi:_Physics_Raycast_m2874007225
cGe:__ZN18UnityConnectClient33OnPlayerSessionStateChangedStaticEPS_jyy
kK:__ZN25RuntimeAnimatorController12CleanupClassEv
_0h:__ZL74CaseInsensitiveHashCodeProvider_t2307530285_CustomAttributesCacheGeneratorP21CustomAttributesCache
Uuj:_UIntPtr__ctor_m3900568171_AdjustorThunk
NLj:_InternalEnumerator_1_get_Current_m1943362081_gshared
ICa:__ZN7ApiGLES4LoadE16GfxDeviceLevelGL
Osb:__ZN18StreamedBinaryReadILb0EE21TransferSTLStyleArrayI13dynamic_arrayI31EnlightenSystemAtlasInformationLj8EEEEvRT_17TransferMetaFlags
Lld:__ZN5physx9NpPhysics15createAggregateEjb
XEa:__ZN4crnd12crn_unpacker22decode_color_endpointsEv
s5f:_ReadOnlyCollection_1_System_Collections_IList_Clear_m3006875897_gshared
oJf:_Enumerator_System_Collections_IEnumerator_get_Current_m3866069145_gshared
EFi:_Physics_Raycast_m2994111303
HQg:_PreviousInfo_t581002487_marshal_pinvoke_cleanup
bil:__ZNKSt3__27num_getIwNS_19istreambuf_iteratorIwNS_11char_traitsIwEEEEE6do_getES4_S4_RNS_8ios_baseERjS8_
jga:__ZN8Material11SetPassFastEPN9ShaderLab4PassER17ShaderPassContextP6Shaderib
lig:_AspectRatioFitter_UpdateRect_m3782072749
r9a:__ZNK13ScreenManager13GetLockCursorEv
kGe:__ZN11UnityEngine7Connect20BasePersistentValues10SaveValuesER9JSONWrite
Gkc:__Z31Renderer_Set_Custom_PropEnabledP12Il2CppObjecth
BHi:_Rect_get_max_m96665935_AdjustorThunk
RCb:__ZN14SafeBinaryRead21TransferSTLStyleArrayINSt3__26vectorI17SubstanceEnumItemNS1_9allocatorIS3_EEEEEEvRT_17TransferMetaFlags
Jeg:_ExecuteEvents_get_pointerDownHandler_m1172742772
VZd:__ZN5physx9PxTaskMgr12addReferenceEj
cKc:__ZNSt3__27__sort4IR24RayHitsByDepthComparitorP12RaycastHit2DEEjT0_S5_S5_S5_T_
tjh:_X509CertificateEnumerator_System_Collections_IEnumerator_MoveNext_m3708362145
f_a:__Z12SetupLODFadeR9GfxDeviceR17ShaderPassContextf
IGc:__ZN26b2PolygonAndCapsuleContact6CreateEP9b2FixtureiS1_iP16b2BlockAllocator
u2a:__ZL24CollectForwardObjectsJobP27CollectForwardObjectsHeader
UXj:_Enumerator_System_Collections_IDictionaryEnumerator_get_Entry_m345330700_gshared
u8h:__ZL53HMACSHA256_t2622794722_CustomAttributesCacheGeneratorP21CustomAttributesCache
FVa:__Z13IsNodeVisibleRK9SceneNodeRK4AABBRK22SceneCullingParameters
Bnl:__ZNSt3__27codecvtIDic11__mbstate_tED0Ev
WW:__ZN11UnityEngine15CloudWebService16SessionContainer7RestoreERK8UnityStrPvy
TFh:_EventInfo__ctor_m1190141300
CMj:_InternalEnumerator_1_MoveNext_m3585886944_gshared
oDe:__Z57RectTransformUtility_CUSTOM_INTERNAL_CALL_PixelAdjustRectP12Il2CppObjectS0_R5RectTIfE
arh:_DelayedFixupRecord_FixupImpl_m4249966635
TBl:_emscripten_glStencilMask__wrapper
bne:__ZZ29InitializeTextRenderingModulevEN40CleanUpTextRenderingGarbageCollectstruct7ForwardEv
rRg:_BigInteger_op_Implicit_m4032862257
c9:__ZN11TypeManager19ClassNameToTypeInfoEPKcb
dRg:_BigInteger_ToString_m3837784224
DXa:__ZN15RenderNodeQueue7CleanupEv
RPa:__ZNK17ArchiveFileSystem8PositionERK13FileEntryData
M$c:__ZN16NovodexAllocator8allocateEjPKcS1_i
LBf:_DllNotFoundException__ctor_m267198482
Jgl:__ZNSt3__215basic_streambufIcNS_11char_traitsIcEEEC2Ev
Osi:__ZL81U3CMouseDragOutsideRectU3Ec__Iterator1_t2599668326_CustomAttributesCacheGeneratorP21CustomAttributesCache
mnj:_NativeEventCalls_CreateEvent_internal_m1605829321
P9e:_Array_Sort_TisUIVertex_t1204258818_TisUIVertex_t1204258818_m1327748421_gshared
Vmi:__ZL73RuntimePlatform_t1869584967_CustomAttributesCacheGenerator_MetroPlayerX64P21CustomAttributesCache
Xrk:__ZL24UnresolvedVirtualCall_13P12Il2CppObjectaPK10MethodInfo
GNi:__Z65RuntimeInvoker_Int32_t2071877448_Il2CppObject_Int32U26_t455636984PK10MethodInfoPvPS2_
q2a:__ZN9ShaderLab10GrabPassesD2Ev
zzi:_GUIStyle_set_font_m312124587
Cxb:__ZN14Texture2DArray13UploadTextureEv
u4i:__Z69RuntimeInvoker_TextGenerationSettings_t2543476768_Vector2_t2243707579PK10MethodInfoPvPS2_
qSe:_SecurityFrame_t1002202659_marshal_pinvoke
kre:_tt_cmap14_done
asa:__ZN18AwakeFromLoadQueue25RegisterObjectInstanceIDsEv
pce:__ZN5physx21PxProfileNameProviderD2Ev
Nhf:_Buffer_BlockCopy_m1586717258
DAk:__ZN15dense_hashtableI10KeyWrapperIPK17Il2CppGenericInstES4_N6il2cpp8metadata21Il2CppGenericInstHashEN14dense_hash_setIS4_S7_NS6_24Il2CppGenericInstCompareENSt3__29allocatorIS4_EEE8IdentityES9_SC_E12maybe_shrinkEv
U7h:__ZL93X509Certificate_t283079845_CustomAttributesCacheGenerator_X509Certificate_GetName_m2354987368P21CustomAttributesCache
N_h:__ZL65Il2CppArray_CustomAttributesCacheGenerator_Array_Copy_m1969461849P21CustomAttributesCache
Wke:__ZN20TextRenderingPrivate19NativeTextGenerator15InsertCharacterEiPj
iHd:__ZN5physx2Sc5Scene22removeBroadPhaseRegionEj
Y_i:__Z52RuntimeInvoker_Void_t1841601450_ColorU26_t3402129837PK10MethodInfoPvPS2_
M_c:__ZN5physx2Cm12RenderBuffer5clearEv
gFf:_CompareInfo_GetSortKey_m3691382873
Wsd:__ZNK5physx2Sc9ClothCore21getStiffnessFrequencyEv
FFc:__ZN11b2RopeJoint24SolveVelocityConstraintsERK12b2SolverData
_yf:_DBNull_ToString_m3228904745
QMa:__ZN14GfxDeviceStats15SetScreenParamsEiiiiii
Jfh:_WebHeaderCollection_AddWithoutValidate_m1479880592
SMe:_SHA1Managed_HashCore_m2658295635
hXi:__Z80RuntimeInvoker_Void_t1841601450_Int32_t2071877448_Int32_t2071877448_Il2CppObjectPK10MethodInfoPvPS2_
APd:__ZN5physx13PxsCCDContext14postCCDAdvanceEPNS_10PxBaseTaskE
mZk:__ZNK15dense_hashtableINSt3__24pairIK10KeyWrapperIP12Il2CppObjectEN6il2cpp2gc9CachedCCWEEES5_NS7_5utils11PointerHashIS3_EEN14dense_hash_mapIS5_S9_SD_NS0_8equal_toIS5_EENS0_9allocatorISA_EEE9SelectKeyESG_SI_E13find_positionERS6_
Y1g:_RC4_get_IV_m506011366
Ack:_X509Crl__ctor_m2469408229
ySb:__Z18Transfer_BlittableI19StreamedBinaryWriteILb0EELb0EyEvRK29SerializationCommandArgumentsR31RuntimeSerializationCommandInfo
h5h:__ZL82SafeHandle_t2733794115_CustomAttributesCacheGenerator_SafeHandle_Close_m1146946803P21CustomAttributesCache
fYj:_Enumerator_get_CurrentValue_m3562053380_AdjustorThunk
Bkh:_X509SubjectKeyIdentifierExtension_CopyFrom_m136762226
N4:__Z12MurmurHash2APKvij
lHf:_Enumerator_System_Collections_IEnumerator_Reset_m610822832_AdjustorThunk
$$g:_ASN1_get_Length_m778823697
$Uk:__ZN6il2cpp6icalls8mscorlib6System2IO6MonoIO20GetFileSystemEntriesEP12Il2CppStringS6_iiPi
Hmc:__Z41MonoBehaviour_Set_Custom_PropUseGUILayoutP12Il2CppObjecth
Rle:_UNITY_FT_Open_Face
xxl:_glGenRenderbuffers__wrapper
lzj:_Bounds_ToString_m1966597703
$Rg:_BigInteger_op_Division_m1581119694
vYb:__ZN16ScriptingManagerD0Ev
clj:_Text_get_layoutPriority_m1088242691
e0k:__ZNK15dense_hashtableINSt3__24pairIK10KeyWrapperIP14Il2CppIUnknownEjEES5_N6il2cpp5utils11PointerHashIS3_EEN14dense_hash_mapIS5_jSB_NS0_8equal_toIS5_EENS0_9allocatorIS7_EEE9SelectKeyESE_SG_E12test_deletedERK24dense_hashtable_iteratorIS7_S5_SB_SI_SE_SG_E
Dsh:_CallbackHandler_Invoke_m1498072969
Cwh:_DSACryptoServiceProvider__ctor_m701823690
QVd:__ZNK5physx10BPWorkTask7getNameEv
Nwi:_Mathf_Clamp_m2354025655
Azh:_CustomAttributeData_GetCustomAttributes_m2421330738
Whd:__ZN5physx2Sc8ShapeSim16onResetFilteringEv
Pqj:_Type_get_IsEnum_m313908919
Xic:__Z44Register_UnityEngine_Component_get_transformv
HSf:_List_1_Reverse_m3395936565_gshared
gkc:__Z39GameObject_CUSTOM_FindGameObjectWithTagP12Il2CppString
$Yf:_Collection_1_System_Collections_ICollection_CopyTo_m1335644572_gshared
Nq:__ZN4PPtrI9TransformE8TransferI18StreamedBinaryReadILb1EEEEvRT_
CQf:_List_1_CheckMatch_m2830747427_gshared
x5c:__ZN5physx2Sc16ActorInteractionD2Ev
ZMa:__ZN17ArchiveFileSystem12MountArchiveEPKcS1_
sBf:_StackFrame_GetMethod_m72881026
MXk:__ZN15dense_hashtableI10KeyWrapperIP18Il2CppGenericClassES3_N6il2cpp8metadata22Il2CppGenericClassHashEN14dense_hash_setIS3_S6_NS5_25Il2CppGenericClassCompareENSt3__29allocatorIS3_EEE8IdentityES8_SB_E15set_deleted_keyERKS3_
DAc:__Z18Transfer_BlittableI9JSONWriteLb1E8Vector4fEvRK29SerializationCommandArgumentsR31RuntimeSerializationCommandInfo
w6:__Z11RequireTypePKcS0_S0_
wgl:__ZThn8_NSt3__214basic_iostreamIcNS_11char_traitsIcEEED0Ev
RKh:_Enumerator_System_Collections_IEnumerator_Reset_m70453843_gshared
Cid:__ZN5physx2Sc16ArticulationCore26setExternalDriveIterationsEj
Wkk:_Vector3_get_Item_m3616014016
iui:__ZL59Slider_t297367283_CustomAttributesCacheGenerator_m_MinValueP21CustomAttributesCache
eAa:__ZN9GfxDevice15ImmediateVertexEfff
M3b:__Z13RegisterClassI8MaterialEvv
k9h:__ZL51Evidence_t1407710183_CustomAttributesCacheGeneratorP21CustomAttributesCache
Vyd:__ZN5physx14NpRigidDynamic10clearForceENS_11PxForceMode4EnumE
vmb:__ZN16GraphicsSettings13AwakeFromLoadE17AwakeFromLoadMode
lEf:_FieldAccessException__ctor_m3893881490
H1i:__Z82RuntimeInvoker_Int32_t2071877448_Rect_t3681755626_Il2CppObject_Vector2_t2243707579PK10MethodInfoPvPS2_
xq:__ZN6Object13AwakeFromLoadE17AwakeFromLoadMode
Uxa:__ZN13GfxDeviceGLES15SetStencilStateEPK18DeviceStencilStatei
Fze:__ZN2UI11CanvasGroup8TransferI18StreamedBinaryReadILb1EEEEvRT_
zdl:_cycle
tik:_TextGenerator_Populate_m4139823822
pgi:__ZL72PKCS12_t1362584795_CustomAttributesCacheGenerator_U3CU3Ef__switchU24map5P21CustomAttributesCache
de:_emscripten_glUniform1iv
alj:_Text_get_preferredHeight_m452532789
xJc:__ZN15b2DistanceProxy3SetEPK7b2Shapei
ITe:_String_System_IConvertible_ToDouble_m3860911722
ecb:__ZN16MemoryFileSystemD2Ev
wQh:_Dictionary_2_System_Collections_Generic_ICollectionU3CSystem_Collections_Generic_KeyValuePairU3CTKeyU2CTValueU3EU3E_Contains_m842343255_gshared
p0g:_ARC4Managed__ctor_m2922048522
gle:__Z17dynamic_pptr_castIP9Texture2D7TextureET_RK4PPtrIT0_E
By:__ZN7mecanim14ValueArrayLoopERKNS_10ValueArrayES2_RS0_fRKNS_14ValueArrayMaskE
f6f:_ReadOnlyCollection_1_System_Collections_IList_set_Item_m1272038804_gshared
OLj:_InternalEnumerator_1_System_Collections_IEnumerator_get_Current_m1931522460_AdjustorThunk
YIa:__ZN14DrawBufferGLESI12VertexBuffer27VertexBufferUsageMapperGLESE12EnsureBufferEj
KPe:_SecurityPermission_IsEmpty_m1869313067
aca:__ZN13RuntimeStaticI23MeshVertexFormatManagerE13StaticDestroyEPv
xIa:__ZN7ApiGLES15TextureSubImageEj16TextureDimensionN2gl9TexFormatEiiiiiiiiPKv
zic:__Z37Register_UnityEngine_Camera_get_depthv
qVg:_EncryptedPrivateKeyInfo_get_Salt_m2734354394
Uvb:__ZN12ImmediatePtrI9TransformE8TransferI18StreamedBinaryReadILb1EEEEvRT_
hzj:_Bounds_SetMinMax_m1523110422
F8f:_ReadOnlyCollection_1_System_Collections_Generic_IListU3CTU3E_set_Item_m1918537449_gshared
nYf:_Collection_1_System_Collections_ICollection_CopyTo_m3896480607_gshared
mfg:_PointerEventData_set_position_m794507622
XUd:__ZNK5physx16PxsBroadPhaseMBP18getNumDeletedPairsEv
wee:__ZN5physx7profile8ZoneImplINS_28PxProfileNameProviderForwardEE10startEventEty
dea:__ZN15dense_hashtableINSt3__24pairIKPKcPK4RTTIEES3_N11TypeManager23ConstCharPtrHashFunctorEN14dense_hash_mapIS3_S7_SA_NS9_19ConstCharPtrEqualToE13stl_allocatorIS8_L18MemLabelIdentifier6ELi16EEE9SelectKeyESC_SF_E12resize_deltaEjj
UPd:__ZN5physx10PxsCCDPair17sweepAdvanceToToiEfb
e3b:__ZN15ApplicationInfo16GetInstallerNameEv
Jbb:__Z23ConvertIntegerToTypePtrItEbPvR14SafeBinaryRead
SE:__ZN7mecanim5human29HumanGetGoalOrientationOffsetENS0_4GoalE
ue:_emscripten_glStencilFunc
GSi:__Z101RuntimeInvoker_Void_t1841601450_Il2CppObject_Il2CppObject_Il2CppObject_Il2CppObject_Int32_t2071877448PK10MethodInfoPvPS2_
Ygd:__ZN5physx6shdfnd8PoolBaseINS_2Cm5BlockIhLj384EEENS0_19ReflectionAllocatorIS4_EEE17releaseEmptySlabsEv
V3d:__ZN5physx16PxsIslandManager11freeBuffersEv
Qrk:__ZL23UnresolvedVirtualCall_6P12Il2CppObjectiPK10MethodInfo
l7:__ZN18AwakeFromLoadQueueD2Ev
KIh:_MonoMethod_MakeGenericMethod_impl_m2063853616
H9c:__ZN5physx2Cm12DelegateTaskINS_2Sc17ParticleSystemSimEXadL_ZNS3_21prepareCollisionInputEPNS_10PxBaseTaskEEEE11runInternalEv
rSe:__Z46il2cpp_codegen_get_marshal_directive_exceptionPKc
I1b:__ZN9ShaderLab20SerializedSubProgram14AddMatrixParamEPKcii15ShaderParamTypei
Ae:_glGetActiveUniformBlockName
qsh:__ZN16VirtFuncInvoker0I18Decimal_t724701077E6InvokeEjPv
$ng:_FontData_set_verticalOverflow_m4211463083
f$h:__ZL65Il2CppArray_CustomAttributesCacheGenerator_Array_Sort_m2090966156P21CustomAttributesCache
Ozg:_Guid_AppendByte_m2890893073
u0d:__ZL28removeBrokenEdgesFromIslandsPKjjS0_jS0_RKN5physx11NodeManagerERNS1_11EdgeManagerERNS1_13IslandManagerERNS1_2Cm10BitMapBaseINS1_6shdfnd9AllocatorEEEPSD_
Zif:_Char_System_IConvertible_ToType_m3106771703_AdjustorThunk
Bmh:_Interval_Intersects_m3480157390_AdjustorThunk
Clc:__Z39Quaternion_CUSTOM_INTERNAL_CALL_InverseRK11QuaternionfRS_
xZj:_GCHandle_Alloc_m1063472408
kP:__ZN4FMOD7Channel20set3DConeOrientationEP11FMOD_VECTOR
jqi:__ZL86StandaloneInputModule_t70867863_CustomAttributesCacheGenerator_m_InputActionsPerSecondP21CustomAttributesCache
Xn:FUNCTION_TABLE_iiifii
HXj:_Comparer_1__ctor_m4052560291_gshared
gli:__ZL54SkeletonBone_t345082847_CustomAttributesCacheGeneratorP21CustomAttributesCache
Kvh:_CryptoConfig_CreateFromName_m391442950
uXk:__ZN6il2cpp2vm12GenericClass11SetupEventsEP11Il2CppClass
sxe:_tt_delta_interpolate
dre:_tt_cmap12_get_info
dqf:_SortedList__ctor_m3698381356
oaj:__Z31RuntimeInvoker_Slot_t2022531261PK10MethodInfoPvPS2_
aJg:_StreamWriter_LowLevelWrite_m4205372900
srk:__ZN6il2cpp6icalls8mscorlib6System7Decimal14decimalCompareEP19il2cpp_decimal_reprS5_
ecd:__ZN5physx26PxcFsComputeJointLoadsSimdERKNS_9PxcFsDataEPKNS_12PxcFsInertiaEPNS_6shdfnd3aos6Mat33VEPKfjjNS_21PxcFsScratchAllocatorE
UGh:_Module__ctor_m3853650010
Knf:_CollectionBase_System_Collections_IList_get_Item_m2370387510
Kil:__ZNSt3__29__num_putIcE23__widen_and_group_floatEPcS2_S2_S2_RS2_S3_RKNS_6localeE
NBd:__ZN5physx6shdfnd8SyncImpl7getSizeEv
h7h:__ZL59RemotingException_t109604560_CustomAttributesCacheGeneratorP21CustomAttributesCache
F1:__Z15CreateDirectoryRKNSt3__212basic_stringIcNS_11char_traitsIcEENS_9allocatorIcEEEE
una:__ZNSt3__26__treeINS_12__value_typeIN9ShaderLab16FastPropertyNameE10ColorRGBAfEENS_19__map_value_compareIS3_S5_NS_4lessIS3_EELb1EEENS_9allocatorIS5_EEE12__find_equalIS3_EERPNS_16__tree_node_baseIPvEENS_21__tree_const_iteratorIS5_PNS_11__tree_nodeIS5_SF_EEiEESI_RKT_
Nyl:_glCopyTexImage2D__wrapper
pai:__ZL88UTF7Encoding_t741406939_CustomAttributesCacheGenerator_UTF7Encoding_GetBytes_m3015176946P21CustomAttributesCache
Pug:_LayoutElement__ctor_m789941073
Loi:__ZL77ExecuteEvents_t1693084770_CustomAttributesCacheGenerator_U3CU3Ef__mgU24cache9P21CustomAttributesCache
Hzj:_Camera_FireOnPreCull_m1679634170
y4h:__ZL68TargetInvocationException_t4098620458_CustomAttributesCacheGeneratorP21CustomAttributesCache
kei:__ZL56RankException_t1539875949_CustomAttributesCacheGeneratorP21CustomAttributesCache
vYc:__ZN5physx11PxHitBufferINS_12PxRaycastHitEED0Ev
ixg:_NumberFormatter_CountTrailingZeros_m2398864634
AYg:___Il2CppComDelegate_t3311706788_create_ccw
wpa:__ZN6prcoreL17RemapGenericFloatI14TexFormatRHalf15TexFormatRFloatEEvPKNS_9InnerInfoE
s2a:__Z16ShouldUseShadowsb
Qbh:_TlsStream_SetLength_m1460039587
nsk:__ZL24UnresolvedVirtualCall_31P12Il2CppObjectiS0_S0_PK10MethodInfo
KRc:__ZN5physx2Gu24contactSphereHeightFieldERKNS0_13GeometryUnionES3_RKNS_11PxTransformES6_RKfRNS0_5CacheERNS0_13ContactBufferE
Q7i:__Z55RuntimeInvoker_Int32_t2071877448_UICharInfo_t3056636800PK10MethodInfoPvPS2_
QFa:__ZN7ApiGLES10DrawArraysE16GfxPrimitiveTypejjj
BEj:_Event_PopEvent_m1952528237
UNc:__ZN5physx3Cct13BoxController15getPxControllerEv
WM:__ZN10SampleClip13LoadBaseSoundEv
dUc:__ZN5physx2Gu22gjkRelativePenetrationINS0_17ShrunkConvexHullVES2_EEjRKT_RKT0_RKNS_6shdfnd3aos15PsMatTransformVERKNSA_6FloatVERNSA_5Vec3VESI_SI_RSE_PhSK_Rh
$Ai:_GUIStyleState__ctor_m2708667747
eRi:__Z62RuntimeInvoker_Il2CppObject_Int32_t2071877448_SByte_t454417549PK10MethodInfoPvPS2_
qw:__ZN7mecanim9animation4Clip8TransferI19StreamedBinaryWriteILb0EEEEvRT_
Z0f:_Collection_1_Contains_m643401393_gshared
T4d:__ZN5physx2Sc19ParticlePacketShapeC2ERNS0_17ParticleSystemSimEjPNS_16PxvParticleShapeE
Cna:__ZN22DeviceMVPMatricesStateC2ER9GfxDevice
l6j:_Regex_IsMatch_m1286520424
Nld:__ZN5physx9NpPhysics18createTriangleMeshERNS_13PxInputStreamE
lo:FUNCTION_TABLE_iiiiifiiiif
BVi:__Z48RuntimeInvoker_Int64_t909078037_Int64_t909078037PK10MethodInfoPvPS2_
ATe:_String__ctor_m372528291
Yda:__ZN6Object16StaticInitializeEv
O0d:__ZN5physx2Cm12DelegateTaskINS_2Sc5SceneEXadL_ZNS3_14updateDynamicsEPNS_10PxBaseTaskEEEED0Ev
bOk:__ZN6il2cpp2vm10Reflection12HasAttributeEP9FieldInfoP11Il2CppClass
Jra:__ZNSt3__26__treeIiNS_4lessIiEE13stl_allocatorIiL18MemLabelIdentifier1ELi16EEE7destroyEPNS_11__tree_nodeIiPvEE
Fc:invoke_viiifi
xpi:__ZL104PointerEventData_t1599784723_CustomAttributesCacheGenerator_PointerEventData_get_pointerDrag_m2740415629P21CustomAttributesCache
rki:__ZL79Physics_t634932869_CustomAttributesCacheGenerator_Physics_RaycastAll_m233036521P21CustomAttributesCache
aMg:_LongComparer_Compare_m3981323622
_Oi:__Z64RuntimeInvoker_UInt64_t2909196914_Il2CppObject_Int32_t2071877448PK10MethodInfoPvPS2_
f9d:__ZN5physx6shdfnd5ArrayIPNS_7PxActorENS0_19ReflectionAllocatorIS3_EEE8recreateEj
Yvi:__ZL109LayoutUtility_t4076838048_CustomAttributesCacheGenerator_LayoutUtility_U3CGetFlexibleHeightU3Em__7_m947156537P21CustomAttributesCache
DJc:__ZNSt3__27__sort4IRN15Cast2DQueryBase14FixtureContactEPS2_EEjT0_S5_S5_S5_T_
Rjj:_Slider_FindSelectableOnUp_m15474611
Nva:__ZNK11AssetBundle14GetPreloadDataEiR13dynamic_arrayIiLj4EE
zWg:_EncryptedData_get_EncryptedContent_m2732115576
Kf:_JS_Sound_SetPosition
J5j:_Assertion_set_FalseExpression_m1781616372
xkh:_X509SubjectKeyIdentifierExtension_FromHexChars_m2515150420
Dta:__ZNK9Texture3D26CanReuploadDataToGfxDeviceEv
JCk:__ZL13GetSharedInstPK17Il2CppGenericInst
O$h:__ZL51IReflect_t3412036974_CustomAttributesCacheGeneratorP21CustomAttributesCache
qhg:_StandaloneInputModule_SendSubmitEventToSelectedObject_m3421155293
r_j:_AppDomainLevelActivator__ctor_m230071814
fCj:_Component_GetComponentsInChildren_m908027537
wEe:__ZN22BaseUnityConnectClient17SaveSessionValuesEv
X1j:_CallContextRemotingData_Clone_m2226242476
n7:__Z63ThreadAndSerializationSafeCheckSetMonoBehaviourBeingTransferredP13MonoBehaviour
jpd:__ZNK5physx7NpCloth14getNbParticlesEv
I1c:__ZN5physx2Sc10NPhaseCore24releaseShapeInstancePairEPNS0_19ShapeInstancePairLLEjj
x2a:__Z24SetupActiveLightsContextR21ActiveLightingContextRK12ActiveLightsRK11CullResultsP14ShadowMapCacheRK10MinMaxAABB
mRh:_Dictionary_2_System_Collections_Generic_ICollectionU3CSystem_Collections_Generic_KeyValuePairU3CTKeyU2CTValueU3EU3E_Contains_m3400497673_gshared
Goc:__Z38Sprite_CUSTOM_INTERNAL_get_textureRectP12Il2CppObjectP5RectTIfE
Wyf:_DBNull_System_IConvertible_ToUInt32_m2681284284
uBi:_HumanBone_set_boneName_m2410239828_AdjustorThunk
vlb:__ZN6Camera8TransferI24GenerateTypeTreeTransferEEvRT_
bWh:_EqualityComparer_1__cctor_m416314417_gshared
Oa:invoke_iiiiiiif
Ia:invoke_iiiiiiii
cJb:__ZN24RingBufferMemoryFileData16ConsumeReadBytesEy
sTd:__ZN5physx21SapPostUpdateWorkTaskD0Ev
eOa:__ZN15dense_hashtableINSt3__24pairIKNS0_12basic_stringIcNS0_11char_traitsIcEE13stl_allocatorIcL18MemLabelIdentifier54ELi16EEEEP20ArchiveStorageReaderEES8_11djb2_hash_tIS8_EN14dense_hash_mapIS8_SB_SE_NS0_8equal_toIS8_EES5_ISC_LS6_54ELi16EEE9SelectKeyESH_SI_E12maybe_shrinkEv
YDi:_Mesh_GetUVChannel_m364477864
Qih:_X509ChainElementCollection_Contains_m3599995067
YBl:b120
Fhd:__ZN5physx7NpActor18releaseConstraintsERNS_12PxRigidActorE
S_c:__ZN5physx6shdfnd5ArrayINS_11PxDebugLineENS0_19ReflectionAllocatorIS2_EEE8recreateEj
xCl:b125
wCl:b124
zCl:b127
yCl:b126
BCl:b129
Unc:__Z52Register_UnityEngine_RectTransform_INTERNAL_get_rectv
FLi:__Z53RuntimeInvoker_Il2CppObject_Il2CppObject_Il2CppObjectPK10MethodInfoPvPS2_
Gxd:__ZNK5physx22NpParticleBaseTemplateINS_16PxParticleSystemENS_16NpParticleSystemEE20getMaxMotionDistanceEv
Vpg:_GridLayoutGroup_set_spacing_m118889422
NRf:_List_1_ToArray_m2390522926_gshared
q5h:__ZL70TypeLibImportClassAttribute_t2390314680_CustomAttributesCacheGeneratorP21CustomAttributesCache
Kga:__ZN19RenderBufferManager13GetTempBufferEii17DepthBufferFormat19RenderTextureFormatj22RenderTextureReadWrite14VRTextureUsagei
cGb:__ZN18StreamedBinaryReadILb0EE21TransferSTLStyleArrayI13dynamic_arrayI16SplashScreenLogoLj4EEEEvRT_17TransferMetaFlags
rJk:__ZNK15dense_hashtableINSt3__24pairIK10KeyWrapperINS1_IPK9FieldInfoP11Il2CppClassEEEjEES9_17ReflectionMapHashIS8_EN14dense_hash_mapIS9_jSD_19ReflectionMapEqualsIS8_ENS0_9allocatorISB_EEE9SelectKeyESG_SI_E12test_deletedERK24dense_hashtable_iteratorISB_S9_SD_SK_SG_SI_E
yzd:__ZNK5physx14NpRigidDynamic25getContactReportThresholdEv
cTe:_Single_CompareTo_m2081476257
z$e:_Array_InternalArray__ICollection_Remove_TisX509ChainStatus_t4278378721_m4127982424_gshared
Kic:__Z47Register_UnityEngine_Camera_get_allCamerasCountv
Rtd:__ZN5physx22NpParticleBaseTemplateINS_15PxParticleFluidENS_15NpParticleFluidEE16releaseParticlesEv
XCc:__ZN14b2CapsuleShapeD2Ev
zEe:__ZN22BaseUnityConnectClient20StartEventDispatcherEv
qcc:__ZNSt3__26vectorIj13stl_allocatorIjL18MemLabelIdentifier1ELi16EEE6assignIPKtEENS_9enable_ifIXaasr21__is_forward_iteratorIT_EE5valuesr16is_constructibleIjNS_15iterator_traitsIS9_E9referenceEEE5valueEvE4typeES9_S9_
hD:__ZN7mecanim9animation16EvaluateAvatarIKEPKNS0_14AvatarConstantEPKNS0_11AvatarInputEPNS0_12AvatarOutputEPNS0_12AvatarMemoryEPNS0_15AvatarWorkspaceEb
zGa:__ZL25ProgramUniformMatrix4x3fvPK7ApiGLESjiihPKv
abb:__Z29StdTemplateConversionFunctionIsiEbPvR14SafeBinaryRead
v0d:__Z22updateIslandsToProcessRKN5physx2Cm10BitMapBaseINS_6shdfnd9AllocatorEEEPKjRKNS_11NodeManagerERS4_
fVh:_EqualityComparer_1_System_Collections_IEqualityComparer_Equals_m3376587337_gshared
I$h:__ZL68Type_t_CustomAttributesCacheGenerator_Type_GetConstructor_m835344477P21CustomAttributesCache
wSa:__ZN12InputManager13InputEndFrameEv
Kpf:_SyncHashtable__ctor_m2029869827
BFk:__ZNSt3__26__treeIP11Il2CppClassNS_4lessIS2_EENS_9allocatorIS2_EEE25__emplace_unique_key_argsIS2_JRKS2_EEENS_4pairINS_15__tree_iteratorIS2_PNS_11__tree_nodeIS2_PvEEiEEbEERKT_DpOT0_
SNk:__ZN15dense_hashtableINSt3__24pairIK10KeyWrapperINS1_IPK9FieldInfoP11Il2CppClassEEEjEES9_17ReflectionMapHashIS8_EN14dense_hash_mapIS9_jSD_19ReflectionMapEqualsIS8_ENS0_9allocatorISB_EEE9SelectKeyESG_SI_EC2EjRKSD_RKSG_RKSK_
IOk:__ZN6il2cpp2vm6Thread5SetupEP12Il2CppThread
qHj:_Playables_SetPlayStateValidated_m770460097
_Pd:__ZN5physx35PxcSweepEstimateAnyShapeHeightfieldERKNS_11PxsCCDShapeES2_PKNS_12PxsRigidBodyES5_RKNS_11PxTransformES8_f
U9f:_ReadOnlyCollection_1_System_Collections_IList_Remove_m2200089035_gshared
l$c:__ZN5physx3Cct13BoxControllerC2ERKNS_16PxControllerDescERNS_9PxPhysicsEPNS_7PxSceneE
iYf:_Collection_1_CheckWritable_m2756357359_gshared
Nel:___munmap
isg:_InputField_get_characterLimit_m2386380888
Vqi:__ZL68ColorBlock_t2652774230_CustomAttributesCacheGenerator_m_PressedColorP21CustomAttributesCache
Iuf:_Convert_ToInt64_m1722087499
a1a:__ZN22RenderingCommandBuffer24PostExecuteCommandBufferER17ShaderPassContextP13RenderTexture
Cg:_localtime_r
BUe:__ZN16VirtFuncInvoker3IbP8String_tS1_iE6InvokeEjPvS1_S1_i
OZi:__Z80RuntimeInvoker_Il2CppObject_Ray_t2469606224_Single_t2076509932_Int32_t2071877448PK10MethodInfoPvPS2_
lbi:__ZL81AppDomain_t2719102437_CustomAttributesCacheGenerator_assembly_resolve_in_progressP21CustomAttributesCache
c5h:__ZL65InterfaceTypeAttribute_t4113096249_CustomAttributesCacheGeneratorP21CustomAttributesCache
lth:_CallbackHandler_EndInvoke_m2406225629
Fg:_strftime
Vga:__ZN7Texture33SetStoredColorSpaceNoDirtyNoApplyE17TextureColorSpace
d2:__ZN12FileAccessorD2Ev
xma:__ZN10ColorRGBAf8TransferI18StreamedBinaryReadILb0EEEEvRT_
Zyb:__ZN14VertexDataInfoC2Ev
gEf:_Exception_GetObjectData_m2653827630
blk:_Vector3_Equals_m2692262876_AdjustorThunk
VOj:_InternalEnumerator_1_get_Current_m2415979394_gshared
p7g:_TlsClientHello_Update_m1723542631
vWb:__ZL17Transfer_GUIStyleI18StreamedBinaryReadILb1EELb1EEvRK29SerializationCommandArgumentsR31RuntimeSerializationCommandInfo
Pgj:_ScrollRect_SetDirtyCaching_m1491302821
WFk:__ZN6il2cpp6icalls8mscorlib6SystemL9IsPrivateEPK12PropertyInfo
eQd:__ZNK5physx18PxcConvexTriangles16getPolygonNormalEj
Czh:_CustomAttributeData_GetCustomAttributes_m3258419955
p5:__ZN9shadertag10InitializeEv
Nfe:__ZN5physx24NpPtrTableStorageManager8canReuseEjj
iXe:_EncoderFallback__ctor_m1639180960
GVj:_InternalEnumerator_1_MoveNext_m1441038493_gshared
ivb:__ZN15QualitySettings14QualitySetting8TransferI24GenerateTypeTreeTransferEEvRT_
B5e:_Array_InternalArray__ICollection_CopyTo_TisParameterModifier_t1820634920_m4127516211_gshared
bSe:_DecoderReplacementFallback__ctor_m2344783488
ULh:_Enumerator_System_Collections_IDictionaryEnumerator_get_Key_m467957770_AdjustorThunk
oEd:__ZN5physx2Sc27ConstraintProjectionManager33processConstraintForGroupBuildingEPNS0_13ConstraintSimERNS0_20ScratchAllocatorListIS3_Lj64EEE
uu:__ZN17AnimationCurveTplI8Vector3fE8TransferI18StreamedBinaryReadILb1EEEEvRT_
yog:_GraphicRegistry_UnregisterGraphicForCanvas_m820096873
dye:__Z28Font_Get_Custom_PropMaterialP12Il2CppObject
f8k:__ZN6il2cpp6icalls8mscorlib6System9Threading16NativeEventCalls19ResetEvent_internalE12Il2CppIntPtr
Boi:__ZL65EventTrigger_t1967201810_CustomAttributesCacheGenerator_delegatesP21CustomAttributesCache
zZf:_Collection_1_Remove_m4136193368_gshared
Juf:_Decimal__ctor_m1770144563
beg:_EventTrigger_OnPointerUp_m2791622548
Yij:_Shadow_set_useGraphicAlpha_m141905402
Bbc:__ZN22BlockMemoryCacheWriter14LockCacheBlockEjPPhS1_
y1k:__ZN6il2cpp2os6Thread10RunWrapperEPv
gsc:__ZNSt3__218__insertion_sort_3IRPFbPKN5IMGUI9GUIWindowES4_EPPS2_EEvT0_SA_T_
pqk:_GenericEqualityComparer_1_Equals_m1109000020_gshared
Ewd:__ZN5physx22NpParticleBaseTemplateINS_15PxParticleFluidENS_15NpParticleFluidEED2Ev
Uli:__ZL61GUISkin_t1436893342_CustomAttributesCacheGenerator_m_textAreaP21CustomAttributesCache
tCd:__ZN5physx2Cm29ConstraintImmediateVisualizer19visualizeDoubleConeERKNS_11PxTransformEfb
sxc:__Z22TransferField_NonArrayI8JSONRead27Converter_SimpleNativeClassI8GUIStyleEEvRK23StaticTransferFieldInfoR31RuntimeSerializationCommandInfoRT0_
yJk:__ZN15dense_hashtableINSt3__24pairIK10KeyWrapperIPK10Il2CppTypeEjEES6_N6il2cpp8metadata14Il2CppTypeHashEN14dense_hash_mapIS6_jSB_NSA_17Il2CppTypeCompareENS0_9allocatorIS8_EEE9SelectKeyESD_SF_E12resize_deltaEjj
FOc:__ZN5physx6shdfnd5ArrayINS_13PxExtendedBoxENS0_19ReflectionAllocatorIS2_EEE8recreateEj
IVd:__ZN5physx20ProcessBPResultsTask11runInternalEv
S5c:__ZN5physx6shdfnd5ArrayIPvNS0_19ReflectionAllocatorINS_2Cm5BlockIS2_Lj16EEEEEE4copyINS0_15InlineAllocatorILj256ES7_EEEEvRKNS1_IS2_T_EE
kh:_llvm_eh_typeid_for
u9b:__Z13RegisterClassI10GameObjectEvv
o1h:__ZL53HashValues_t2390200547_CustomAttributesCacheGeneratorP21CustomAttributesCache
zhh:_X509BasicConstraintsExtension_get_PathLengthConstraint_m3004531343
R2h:__ZL125GenericTypeParameterBuilder_t1370236603_CustomAttributesCacheGenerator_GenericTypeParameterBuilder_GetConstructors_m103067670P21CustomAttributesCache
WEd:__ZN5physx7NpScene19getActiveTransformsERjh
v2d:__ZN5physx6shdfnd5ArrayIPKNS_24PxsIndexedContactManagerENS0_19ReflectionAllocatorIS4_EEE8recreateEj
hLg:_MissingMemberException__ctor_m4277447068
aKh:_StrongNameKeyPair_System_Runtime_Serialization_ISerializable_GetObjectData_m1693082120
$0a:__ZNK19RenderEventsContext25PostExecuteCommandBuffersEiR17ShaderPassContextP13RenderTextureP19ProfilerInformationi
wLa:__ZN9GfxDevice14EndBufferWriteEP9GfxBufferj
xpk:_EqualityComparer_1__ctor_m3155445483_gshared
m0k:__ZN6il2cpp2vm6Method8GetParamEPK10MethodInfoj
HCg:_Int64_CompareTo_m1953686218
Mpk:_GenericComparer_1__ctor_m221205314_gshared
WUk:__ZN6il2cpp6icalls8mscorlib6System2IO6MonoIO4ReadE12Il2CppIntPtrP11Il2CppArrayiiPi
tBl:_glBindVertexArray__wrapper
Dbe:__ZN5physx6shdfnd5ArrayINS_11RTreeNodeNQENS0_19ReflectionAllocatorIS2_EEE19resizeUninitializedEj
E2c:__ZNK5physx2Sc16InteractionScene18getLLIslandManagerEv
ywh:_DSA_Create_m3450041777
wla:__ZN8Material8TransferI14SafeBinaryReadEEvRT_
DPd:__ZN5physx17PxcNpMemBlockPool34acquireExceptionalConstraintMemoryEj
aqb:__ZN12CubemapArray17UploadToGfxDeviceEv
Jpa:__ZN6prcoreL17RemapGenericFloatI15TexFormatRGHalf17TexFormatRGBAHalfEEvPKNS_9InnerInfoE
kIf:_Enumerator_System_Collections_IEnumerator_Reset_m2200349770_gshared
V1f:_Collection_1_get_Item_m3791221403_gshared
E8h:__ZL54PaddingMode_t3032142640_CustomAttributesCacheGeneratorP21CustomAttributesCache
H5i:__Z75RuntimeInvoker_Void_t1841601450_ConstraintU26_t2775779428_Int32_t2071877448PK10MethodInfoPvPS2_
PQd:__ZN5physxL23PxcSweepConvexTrianglesERKNS_11PxsCCDShapeES2_RKNS_11PxTransformES5_S5_S5_fRNS_6PxVec3ES7_RNS_10PxcNpCacheERNS_18PxcNpThreadContextERKNS_2Cm23FastVertex2ShapeScalingERNS_2Gu9TriangleVEf
nnd:__ZNK5physx7NpShape16getPlaneGeometryERNS_15PxPlaneGeometryE
mih:_X509Chain_CheckRevocationOnChain_m2441901351
aOe:_SymmetricAlgorithm_CreateDecryptor_m4240570785
Nbe:__ZN5physx27InternalTriangleMeshBuilder14fillRemapTableEv
lN:__ZN11AudioSource4StopEb
dad:__ZN5physx6shdfnd8PoolBaseINS_13NpRigidStaticENS0_19ReflectionAllocatorIS2_EEE17releaseEmptySlabsEv
fOb:__ZN14SafeBinaryRead21TransferSTLStyleArrayI13dynamic_arrayI10Matrix4x4fLj4EEEEvRT_17TransferMetaFlags
_1f:_Collection_1_CheckWritable_m732350052_gshared
_hf:_Byte_System_IConvertible_ToDecimal_m1036493607
bbi:__ZL47Timer_t791717973_CustomAttributesCacheGeneratorP21CustomAttributesCache
Qfa:__Z25GetSplashScreenBackgroundRK5RectTIfE
aNj:_InternalEnumerator_1_System_Collections_IEnumerator_get_Current_m1679297177_gshared
asi:__ZL65Image_t2042527209_CustomAttributesCacheGenerator_m_PreserveAspectP21CustomAttributesCache
$Vj:_DefaultComparer_Compare_m1247109616_gshared
pKh:_ResourceManager__ctor_m498829021
HKa:__ZN18GlslGpuProgramGLESD2Ev
Hee:__ZThn116_NK5physx7profile8ZoneImplINS_28PxProfileNameProviderForwardEE10hasClientsEv
YYd:__ZN5physx2Gu20pcmContactCapsuleBoxERKNS0_13GeometryUnionES3_RKNS_11PxTransformES6_RKfRNS0_5CacheERNS0_13ContactBufferE
Esh:_SerializationCallbacks__ctor_m722356782
lxc:__ZN10Matrix4x4f8TransferI8JSONReadEEvRT_
J7b:__ZN22GenericPropertyBinding8RegisterEPKc11ClassIDTypePFfPvEPFvS3_fE
e9:__ZN14dense_hash_mapIPKcPK4RTTIN11TypeManager23ConstCharPtrHashFunctorENS5_19ConstCharPtrEqualToE13stl_allocatorINSt3__24pairIKS1_S4_EEL18MemLabelIdentifier6ELi16EEE5beginEv
ibg:_Comparison_1_Invoke_m2255009434_gshared
ABf:_StackTrace__ctor_m772333217
bcj:__Z93RuntimeInvoker_Il2CppObject_Vector2_t2243707579_Vector2_t2243707579_Il2CppObject_Il2CppObjectPK10MethodInfoPvPS2_
a7:__ZN17PersistentManager18ReadObjectThreadedEi
OBa:__ZN25TransformFeedbackSkinning31CleanupTransformFeedbackShadersEv
e7k:__ZN6il2cpp6icalls8mscorlib6System7Runtime16CompilerServices14RuntimeHelpers15InitializeArrayEP11Il2CppArray12Il2CppIntPtr
sQj:_InternalEnumerator_1_System_Collections_IEnumerator_get_Current_m2851415307_gshared
Yke:__ZNK20TextRenderingPrivate8FontImpl19GetCharacterAdvanceEjijfPj
ial:__ZN6il2cpp6icalls8mscorlib4Mono8Security12Cryptography18KeyPairPersistence16_IsUserProtectedEP12Il2CppString
L8g:__ZN16VirtFuncInvoker1IP28HandshakeMessage_t3938752374hE6InvokeEjPvh
Q7f:_ReadOnlyCollection_1_Contains_m3936562733_gshared
Kdh:_DefaultUriParser__ctor_m4218024811
bBh:_DerivedType_GetField_m3960169619
xzf:_Decimal_System_IConvertible_ToInt16_m3159038792_AdjustorThunk
uAb:__ZN10VertexData8TransferI18StreamedBinaryReadILb0EEEEvRT_
T9c:__ZN5physx2Sc5Scene9addStaticERNS0_10StaticCoreEPKPvjj
$gc:__Z39DeleteLastPathNameComponentWithAnySlashRKNSt3__212basic_stringIcNS_11char_traitsIcEENS_9allocatorIcEEEE
cXg:_PKCS12_GetExistingParameters_m2413397265
m0f:_Collection_1_ClearItems_m4268731177_gshared
Z8a:__ZN14PreloadManager16UpdatePreloadingEv
Fkb:__ZN12BaseRendererD2Ev
oak:_X509CertificateCollection__ctor_m858704242
Ikl:__ZNKSt3__210moneypunctIcLb1EE16do_thousands_sepEv
kJf:_Enumerator__ctor_m425576865_AdjustorThunk
DLd:__ZN5physx2Sc5Scene9addShapesEPKPvjjRNS0_8RigidSimEPNS_12PxsRigidBodyERPNS0_8ShapeSimEPNS_9PxBounds3E
jQi:__Z148RuntimeInvoker_Int32_t2071877448_Il2CppObject_Int32_t2071877448_Int32_t2071877448_Il2CppObject_Int32_t2071877448_Int32_t2071877448_Int32_t2071877448PK10MethodInfoPvPS2_
R9f:_ReadOnlyCollection_1_System_Collections_IList_Contains_m1545447998_gshared
OXd:__ZN5physx23PxcPCMContactConvexMeshERKNS_2Gu13GeometryUnionES3_RKNS_11PxTransformES6_RKfRNS_10PxcNpCacheERNS0_13ContactBufferE
Sdb:__ZNK21UnityDefaultAllocatorI17LowLevelAllocatorE8ContainsEPKv
SDk:__ZNSt3__213__vector_baseI6pollfdNS_9allocatorIS1_EEED2Ev
G5g:_ClientSessionInfo_get_Id_m3046630969
_ci:__ZL78Convert_t2607082565_CustomAttributesCacheGenerator_Convert_ToUInt32_m759656532P21CustomAttributesCache
ti:_emscripten_get_main_loop_timing
bFg:_DirectoryInfo__ctor_m3750996792
Lig:_BaseMeshEffect_ModifyMesh_m2134816219
C8e:_Array_qsort_TisVector2_t2243707579_m3527759534_gshared
hvb:__ZN24GenerateTypeTreeTransfer21TransferSTLStyleArrayINSt3__26vectorIN15QualitySettings14QualitySettingENS1_9allocatorIS4_EEEEEEvRT_17TransferMetaFlags
aDb:__ZNSt3__26vectorI14SubstanceInputNS_9allocatorIS1_EEE8__appendEj
JJi:_ResourceRequest_t2560315377_marshal_pinvoke_cleanup
XRf:_List_1_System_Collections_Generic_IEnumerableU3CTU3E_GetEnumerator_m166627113_gshared
oEb:__ZNSt3__26vectorI9InputAxisNS_9allocatorIS1_EEE6resizeEj
SPe:_SecurityElement_IsValidAttributeValue_m483287146
JWe:_Decoder_set_Fallback_m1780632169
gq:getTempRet0
YXd:__ZN5physx2Gu33MultiplePersistentContactManifold24addManifoldContactPointsEPNS0_21MeshPersistentContactEjPPNS0_15PCMContactPatchEjRKNS_6shdfnd3aos6FloatVESB_h
USi:__Z114RuntimeInvoker_Void_t1841601450_Il2CppObject_Il2CppObject_Int32_t2071877448_Il2CppObject_Il2CppObject_Il2CppObjectPK10MethodInfoPvPS2_
Tyh:_AssemblyTitleAttribute__ctor_m1696431446
urg:_Image_AddQuad_m1603575622
T1g:_PrivateKeyInfo_RemoveLeadingZero_m3396807048
G3f:_ReadOnlyCollection_1_System_Collections_Generic_ICollectionU3CTU3E_get_IsReadOnly_m1251192075_gshared
QYg:__ZThn4_N6il2cpp2vm13ComObjectBaseI34__Il2CppComDelegate_t3311706788CCW18Il2CppIInspectableNS0_7details6ComNilES5_S5_S5_S5_S5_S5_E7ReleaseEv
KKf:_List_1_GrowIfNeeded_m185971996_gshared
pSk:__ZN6il2cpp6icalls8mscorlib6System9ThreadingL21lookup_cached_cultureEP12Il2CppThreadi
uqj:__ZN16VirtFuncInvoker1IP24DaylightTime_t3800227331iE6InvokeEjPvi
t3a:__ZN18DeferredRenderLoopD2Ev
jDh:_GenericTypeParameterBuilder_GetMethods_m1243855818
V9:__ZNK16TypeTreeIterator4NameEv
C1:__ZN15FileSystemEntry3SetEPKc
R2d:__ZN5physx6shdfnd5ArrayIPNS_13PxcNpMemBlockENS0_19ReflectionAllocatorIS3_EEE6resizeEjRKS3_
fVj:_InternalEnumerator_1__ctor_m2808001655_gshared
mJe:_MACTripleDES__ctor_m884945242
Czd:__ZN5physx14NpRigidDynamic8requiresERNS_23PxProcessPxBaseCallbackE
VO:__ZN20SoundChannelInstance15ParameterBuffer5ApplyEPN4FMOD7ChannelE
Isk:__ZL24UnresolvedVirtualCall_52P12Il2CppObjectPK10MethodInfo
iBb:__ZN23SharedMeshRenderingDataD0Ev
Vke:__ZN20TextRenderingPrivate19NativeTextGenerator9InsertTabEv
a_h:__ZL73Enum_t2459695545_CustomAttributesCacheGenerator_Enum_ToObject_m1688724857P21CustomAttributesCache
oHi:_Rect_set_y_m4294916608
eBk:__ZN15dense_hashtableINSt3__24pairIK10KeyWrapperI13dynamic_arrayIPK10Il2CppTypeLj4EEEPFvvEEES8_N6il2cpp8metadata19Il2CppSignatureHashEN14dense_hash_mapIS8_SB_SF_NSE_22Il2CppSignatureCompareENS0_9allocatorISC_EEE9SelectKeyESH_SJ_E16reset_thresholdsEv
nee:__ZN5physx7profile8ZoneImplINS_28PxProfileNameProviderForwardEE21setProfileZoneManagerEPNS_20PxProfileZoneManagerE
MEe:__ZN11UnityEngine15PlatformWrapper24GetRuntimePlatformStringEv
bj:_glIsEnabled
FYb:__ZN15CacheWriterBaseD2Ev
NYc:__ZN5physx3Cct17CapsuleController15setFootPositionERKNS_14PxExtendedVec3E
jWc:__ZN5physx2Gu33PCMCapsuleVsMeshContactGeneration13generateEEMTDERKNS_6shdfnd3aos5Vec3VES6_RKNS3_6FloatVES6_jS6_S6_PNS0_21MeshPersistentContactERj
Ajd:__ZN18MultiQueryCallbackIN5physx10PxSweepHitEED0Ev
aEb:__ZN12InputManager23VirtualRedirectTransferER18StreamedBinaryReadILb1EE
fj:_emscripten_glDrawElementsInstanced
fZf:_Collection_1_System_Collections_IList_IndexOf_m51140022_gshared
s0g:_ARC4Managed_Dispose_m4102232694
M0g:_HMAC_Initialize_m3052649104
a8a:__ZN18JobBatchDispatcherD2Ev
vvb:__ZN9Transform17MainThreadCleanupEv
W5k:_GC_clear_hdr_marks
ewl:_glScissor__wrapper
oCl:_emscripten_glCreateShader__wrapper
Yrg:_InputField_get_caretSelectPositionInternal_m3523572533
vte:_cff_fd_select_get
J4h:__ZL73CompilationRelaxationsAttribute_t238494011_CustomAttributesCacheGeneratorP21CustomAttributesCache
C8i:__Z74RuntimeInvoker_Void_t1841601450_Int32_t2071877448_KeyValuePair_2_t38854645PK10MethodInfoPvPS2_
aL:__Z13RegisterClassI18AnimatorControllerEvv
uVa:__ZL54CombineLocalShadowCasterCullignIndexListsAndDestroyJobP25LocalShadowCullingJobData
$kj:_Text_get_minHeight_m1562513104
ANe:_SHA512Managed_processBlock_m3220567420
Zch:_NameObjectCollectionBase_get_Keys_m446053925
pj:_emscripten_glGetShaderiv
dNh:_Transform_1__ctor_m353209818_gshared
tRa:__ZZ23InitPlayerLoopCallbacksvEN41EarlyUpdateUpdateAllUnityWebStreamsstruct7ForwardEv
XP:__ZN4FMOD6System10getVersionEPj
M3d:__ZN5physx2Sc7BodySim10sleepCheckEffb
bNk:__ZN15dense_hashtableINSt3__24pairIK10KeyWrapperIPK10Il2CppTypeEjEES6_N6il2cpp8metadata14Il2CppTypeHashEN14dense_hash_mapIS6_jSB_NSA_17Il2CppTypeCompareENS0_9allocatorIS8_EEE9SelectKeyESD_SF_E15set_deleted_keyERKS8_
i4b:__ZN5Unity9Component7PRODUCEE18MemLabelIdentifier18ObjectCreationMode
Dmi:__ZL96RemoteSettings_t392466225_CustomAttributesCacheGenerator_RemoteSettings_CallOnUpdate_m1624968574P21CustomAttributesCache
p3e:_Array_InternalArray__IndexOf_TisSByte_t454417549_m1427585061_gshared
IMi:__Z75RuntimeInvoker_Byte_t3683104436_Il2CppObject_Int32_t2071877448_Il2CppObjectPK10MethodInfoPvPS2_
Mye:__ZN2UI6Canvas23VirtualRedirectTransferER24GenerateTypeTreeTransfer
Qrf:_Decimal_u64_m3991988111
bmk:_YieldInstruction_t3462875981_marshal_pinvoke
Nek:_Predicate_1_BeginInvoke_m2959352225_gshared
Iak:_X509Certificate_Parse_m1764345628
H8b:__ZN8GUILayer17RemoveFromManagerEv
rje:__ZN13TextRendering4Font13AwakeFromLoadE17AwakeFromLoadMode
pnj:__ZN16VirtFuncInvoker0I8IntPtr_tE6InvokeEjPv
_Fe:__ZThn564_N18UnityConnectClient18OnAdsIdRequestDoneERK8UnityStrbS2_
Tya:__ZN9GfxDevice21ReleaseSharedMeshDataEP14SharedMeshData
tYg:_SmallXmlParser_Peek_m2814840810
YAj:_CanvasRenderer_get_absoluteDepth_m4243141
hFb:__ZNSt3__27__sort5IRNS_6__lessINS_4pairIPKN5Unity4TypeE7Hash128EES8_EEPS8_EEjT0_SC_SC_SC_SC_T_
iqf:_Enumerator_Reset_m466659019
quk:__ZL25UnresolvedVirtualCall_142P12Il2CppObjectssPK10MethodInfo
qfl:_vprintf
Lgk:_UnityAction_1_EndInvoke_m2822290096_gshared
XYk:__ZNK15dense_hashtableINSt3__24pairIK10KeyWrapperIP12Il2CppObjectEN6il2cpp2gc9CachedCCWEEES5_NS7_5utils11PointerHashIS3_EEN14dense_hash_mapIS5_S9_SD_NS0_8equal_toIS5_EENS0_9allocatorISA_EEE9SelectKeyESG_SI_E10test_emptyEj
b5k:_GC_unreachable_finalize_mark_proc
$6j:_BalancingGroup_set_Balance_m3452171919
wK:__ZZN8Animator15InitializeClassEvEN31FunctorImpl_389kDidDeleteMotion4CallEPviR11MessageData
Ag:___syscall192
Mfg:_PointerEventData_set_worldNormal_m2025727441
z6k:_maybe_finalize
EHe:__ZN20HardwareInfoReporter18ReportHardwareInfoEv
Mnc:__Z43RectTransform_CUSTOM_INTERNAL_get_anchorMaxP12Il2CppObjectP13Vector2fIcall
Lya:__ZN9GfxDevice38ScheduleDynamicVBOGeometryJobsInternalEPFvP25DynamicVBOGeometryJobDatajEPFvS1_ES1_j16GfxPrimitiveTypeP21DynamicVBOChunkHandle
C$a:__Z16SyncFenceNoClearRK8JobFence
ila:__ZN8Material28UpdateHashesOnPropertyChangeEN9ShaderLab16FastPropertyNameE
Aoc:__Z53Register_UnityEngine_SortingLayer_GetLayerValueFromIDv
nbb:__Z29StdTemplateConversionFunctionIhhEbPvR14SafeBinaryRead
WWh:_EqualityComparer_1_System_Collections_IEqualityComparer_Equals_m349194518_gshared
pnf:_CaseInsensitiveComparer_Compare_m1192858479
NMb:__Z18Transfer_BlittableI14SafeBinaryReadLb1E8Vector4fEvRK29SerializationCommandArgumentsR31RuntimeSerializationCommandInfo
pIg:_StreamAsyncResult_set_Done_m4272090534
Mvg:_LayoutRebuilder_Clear_m2390054824
p$f:_Collection_1_System_Collections_IList_Insert_m2968289909_gshared
mzh:_Default_SelectMethod_m622251293
eS:__ZN11AudioSource12AddToManagerEv
Zw:__ZN8Animator23VirtualRedirectTransferER19StreamedBinaryWriteILb0EE
M1j:_AsyncResult_get_NextSink_m1172723924
UVk:__ZN6il2cpp2vm5Image13ClassFromNameEPK11Il2CppImagePKcS6_
Trl:dynCall_vdddddd
O$b:__ZN24GenerateTypeTreeTransfer21TransferSTLStyleArrayINSt3__26vectorIN9ShaderLab14SerializedPassENS1_9allocatorIS4_EEEEEEvRT_17TransferMetaFlags
j6c:__ZN5physx6shdfnd8internal8HashBaseIPNS_2Sc13ConstraintSimES5_NS0_4HashIS5_EENS1_11HashSetBaseIS5_S7_NS0_9AllocatorELb1EE6GetKeyES9_Lb1EE6createERKS5_Rb
Z5:__ZL32MarkLevelGameManagerDependenciesR27GarbageCollectorThreadState
eYi:__Z49RuntimeInvoker_Void_t1841601450_UInt16_t986882611PK10MethodInfoPvPS2_
ZAa:__ZNK13GfxDeviceGLES26HasActiveRandomWriteTargetEv
saj:__Z37RuntimeInvoker_ILTokenInfo_t149559338PK10MethodInfoPvPS2_
_dd:__ZNK5physx15NpActorTemplateINS_18PxArticulationLinkEE7getNameEv
Ywl:_glGetActiveUniformsiv__wrapper
vcj:__Z50RuntimeInvoker_Il2CppObject_ColorTween_t3438117476PK10MethodInfoPvPS2_
hOc:__ZNK5physx3Cct10Controller16getInternalStateERNS_17PxControllerStateE
gXi:__Z59RuntimeInvoker_Il2CppObject_Double_t4078015681_Il2CppObjectPK10MethodInfoPvPS2_
Mr:__Z20AnimationEventToMonoRK14AnimationEventR18MonoAnimationEvent
rZi:__Z83RuntimeInvoker_Void_t1841601450_Il2CppObject_Il2CppObject_Il2CppObject_Il2CppObjectPK10MethodInfoPvPS2_
O6:__ZNK15dense_hashtableINSt3__24pairIKiiEEi21InstanceIDHashFunctorN14dense_hash_mapIiiS4_NS0_8equal_toIiEE13stl_allocatorIS3_L18MemLabelIdentifier1ELi16EEE9SelectKeyES7_SA_E13find_positionERS2_
Wdj:_Navigation_get_selectOnLeft_m3980387574_AdjustorThunk
sDj:_CustomYieldInstruction_get_Current_m1743233962
ZXk:__ZN30dense_hashtable_const_iteratorI10KeyWrapperIP18Il2CppGenericClassES3_N6il2cpp8metadata22Il2CppGenericClassHashEN14dense_hash_setIS3_S6_NS5_25Il2CppGenericClassCompareENSt3__29allocatorIS3_EEE8IdentityES8_SB_E30advance_past_empty_and_deletedEv
DKd:__ZN5physx10PxsContext15setScratchBlockEPvj
Mni:__ZL74UnityEventBase_t828812576_CustomAttributesCacheGenerator_m_PersistentCallsP21CustomAttributesCache
VSh:_DefaultComparer__ctor_m2265472997_gshared
UGj:_CustomAnimationPlayable_op_Implicit_m3677069457
SBb:__ZN4PPtrI6SpriteE8TransferI14SafeBinaryReadEEvRT_
g1c:__ZN5physx2Cm27getDynamicGlobalPoseAlignedERKNS_11PxTransformES3_S3_RS1_
ESi:__Z45RuntimeInvoker_Il2CppObject_IntPtr_t_IntPtr_tPK10MethodInfoPvPS2_
S_b:__ZNSt3__26vectorIN9ShaderLab14SerializedPassENS_9allocatorIS2_EEE8__appendEj
u9d:__ZN5physx6shdfnd5ArrayIPvNS0_19ReflectionAllocatorIN17PxcPoolMallocData10PoolData32EEEE15growAndPushBackERKS2_
g6g:_Context_get_SupportedCiphers_m2172827298
ZFc:__ZN12b2WheelJoint24SolveVelocityConstraintsERK12b2SolverData
sQi:__Z170RuntimeInvoker_Int32_t2071877448_Il2CppObject_Int32_t2071877448_Int32_t2071877448_Il2CppObject_Int16_t4041245914_Int32_t2071877448_SByte_t454417549_ContextU26_t3131521781PK10MethodInfoPvPS2_
xrb:__ZN9Texture2D23VirtualRedirectTransferER18StreamedBinaryReadILb0EE
hIc:__ZN10Collider2D8TransferI24GenerateTypeTreeTransferEEvRT_
QRe:__ZN16VirtFuncInvoker0IP23CompareInfo_t2310920157E6InvokeEjPv
jCf:_Double_System_IConvertible_ToUInt16_m286326038_AdjustorThunk
wqh:_TypeInfo__ctor_m1475908211
mkb:__ZNSt3__26__treeINS_12__value_typeIN4core12basic_stringIcNS2_20StringStorageDefaultIcEEEEjEENS_19__map_value_compareIS6_S7_NS_4lessIS6_EELb1EEE13stl_allocatorIS7_L18MemLabelIdentifier6ELi16EEE7destroyEPNS_11__tree_nodeIS7_PvEE
nih:_X509Chain_WrapUp_m1072032285
cck:_X509CertificateEnumerator_System_Collections_IEnumerator_MoveNext_m1448966539
xqe:_get_sfnt_table
Vcf:_Object_FindObjectOfType_TisIl2CppObject_m2967490724_gshared
XYf:_Collection_1_IsSynchronized_m3261594010_gshared
zTa:_unity_z_tr_stored_block
QLi:__Z46RuntimeInvoker_Single_t2076509932_Il2CppObjectPK10MethodInfoPvPS2_
wSe:_SecuritySafeCriticalAttribute__ctor_m2508714287
uBk:__ZN13dynamic_arrayIPK10Il2CppTypeLj4EE10reallocateEPS2_j
O1e:_Array_compare_TisIl2CppObject_m1481822507_gshared
Ege:__ZN5physx2Gu20registerHeightFieldsEv
zea:__ZN15dense_hashtableINSt3__24pairIKNS0_12basic_stringIcNS0_11char_traitsIcEE13stl_allocatorIcL18MemLabelIdentifier54ELi16EEEEP11AssetBundleEES8_11djb2_hash_tIS8_EN14dense_hash_mapIS8_SB_SE_NS0_8equal_toIS8_EENS0_9allocatorISC_EEE9SelectKeyESH_SJ_E13set_empty_keyERKSC_
gwh:_DES_get_Key_m2584608215
dWa:__ZL22ScheduleSceneNodesJobsP25ScheduleSceneNodesJobDataj
JXk:__ZN15dense_hashtableI10KeyWrapperIP18Il2CppGenericClassES3_N6il2cpp8metadata22Il2CppGenericClassHashEN14dense_hash_setIS3_S6_NS5_25Il2CppGenericClassCompareENSt3__29allocatorIS3_EEE8IdentityES8_SB_ED2Ev
gTd:__ZN5physx22concludeContactCoulombERKNS_23PxcSolverConstraintDescERNS_16PxcSolverContextE
fl:_emscripten_set_canvas_size
__h:__ZL65Il2CppArray_CustomAttributesCacheGenerator_Array_Sort_m3645766612P21CustomAttributesCache
Aud:__ZNK5physx15NpParticleFluid12getStiffnessEv
Hof:_Hashtable__ctor_m741952536
zXj:_Comparer_1__cctor_m2253684996_gshared
A_b:__ZNSt3__26vectorIN9ShaderLab20SerializedSubProgramENS_9allocatorIS2_EEE8__appendEj
X_:__ZN20DynamicHeapAllocatorI17LowLevelAllocatorE8AllocateEji
F_a:__ZN20DynamicPropertySheet15SetVectorQueuedERKN9ShaderLab16FastPropertyNameERK8Vector4fN19ShaderPropertySheet8SetFlagsE
gVe:_String_Format_m1263743648
nyj:_DefaultExecutionOrder_get_order_m1561221759
C7f:_ReadOnlyCollection_1_System_Collections_IEnumerable_GetEnumerator_m4248982967_gshared
gD:__ZN7mecanim9animation22EvaluateAvatarRetargetEPKNS0_14AvatarConstantEPKNS0_11AvatarInputEPNS0_12AvatarOutputEPNS0_12AvatarMemoryEPNS0_15AvatarWorkspaceEb
Wvg:_LayoutRebuilder_GetHashCode_m2745108660
Gyk:__ZN15dense_hashtableINSt3__24pairIK10KeyWrapperIPK19Il2CppGenericMethodEPK26Il2CppGenericMethodIndicesEES6_N6il2cpp8metadata23Il2CppGenericMethodHashEN14dense_hash_mapIS6_SA_SE_NSD_26Il2CppGenericMethodCompareENS0_9allocatorISB_EEE9SelectKeyESG_SI_E14squash_deletedEv
wzc:__ZL26Transfer_SimpleNativeClassI9JSONWrite10RectOffsetLb0EEvRK29SerializationCommandArgumentsR31RuntimeSerializationCommandInfo
v5k:_GC_push_conditional
kEa:__ZN17GenericDynamicVBO10AllocateVBEjR21DynamicVBOChunkHandle
iMf:_List_1_get_Item_m1547593893_gshared
d8i:__Z70RuntimeInvoker_Void_t1841601450_CustomAttributeNamedArgument_t94157543PK10MethodInfoPvPS2_
OEg:_Path_GetPathRoot_m1269357080
mXd:__ZL27PxcTestFacesSepAxesBackfaceRKN5physx2Gu13PolygonalDataES3_RKNS_2Cm8Matrix34ES7_RKNS4_23FastVertex2ShapeScalingESA_S7_RKNS_6PxVec3ERfRSB_RjPjSG_fSD_
Edg:_EventSystem_SetSelectedGameObject_m2211816110
pNh:_Transform_1__ctor_m4161450529_gshared
El:_glMapBufferRange
lrb:__ZN9Texture2D8TransferI18StreamedBinaryReadILb0EEEEvRT_
$kc:__Z31Input_CUSTOM_GetMouseButtonDowni
d$h:__ZL65Il2CppArray_CustomAttributesCacheGenerator_Array_Sort_m1730553742P21CustomAttributesCache
Npd:__ZNK5physx7NpCloth23getExternalAccelerationEv
FYa:__ZNK9Transform16GetLocalPositionEv
EMb:__Z19scripting_array_newP11Il2CppClassjj
Vva:__ZN13LoadOperation19IntegrateTimeSlicedEi
Oub:__ZNK15QualitySettings26GetTypeInfoVirtualInternalEv
bmh:_InterpreterFactory__ctor_m3331468903
GUd:__ZN5physx16PxsBroadPhaseMBP9updatePPUEPNS_10PxBaseTaskE
LXg:_X501__cctor_m3795360380
kBa:__ZN13GfxDeviceGLES22DispatchComputeProgramE12ObjectHandleI18ComputeProgram_TagPvE15ComputeBufferIDj
Ual:__ZN6il2cpp8metadata25Il2CppGenericClassCompare7CompareERK10KeyWrapperIP18Il2CppGenericClassES7_
FAi:_GUIStyle_set_contentOffset_m2138084868
es:__ZNK13AnimationClip15GetAverageSpeedEv
Buf:_Convert_ToInt32_m2297793940
Iua:__Z17TransformAABBSlowRK4AABBRK10Matrix4x4fRS_
jsb:__ZN15SerializeTraitsI13dynamic_arrayI7Hash128Lj8EEE19ResizeSTLStyleArrayERS2_i18MemLabelIdentifier
w9i:__Z96RuntimeInvoker_Void_t1841601450_Vector2U5BU5DU26_t1595685398_Int32_t2071877448_Int32_t2071877448PK10MethodInfoPvPS2_
$hh:_X509Chain_Build_m1140429528
tZb:__ZN9ShaderLab21SerializedShaderState8TransferI14SafeBinaryReadEEvRT_
vX:__ZTv0_n12_NSt3__219basic_ostringstreamIcNS_11char_traitsIcEENS_9allocatorIcEEED1Ev
Cfl:_ftruncate
yMe:_RSAPKCS1SignatureFormatter_SetKey_m2365816458
$me:__ZN13RuntimeStaticINSt3__26vectorIPN20TextRenderingPrivate17TextMeshGeneratorENS0_9allocatorIS4_EEEEE13StaticDestroyEPv
FAg:_Int16_GetHashCode_m304503362_AdjustorThunk
sue:_cf2_stack_pushInt
RF:__ZN7mecanim9animation20DestroyLayerConstantEPNS0_13LayerConstantERNS_6memory9AllocatorE
Jwd:__ZN5physx6shdfnd8PoolBaseINS_16NpParticleSystemENS0_19ReflectionAllocatorIS2_EEE12allocateSlabEv
b_d:__ZN5physx9PxTaskMgr12dispatchTaskEjb
tdj:_MaskableGraphic_SetClipRect_m3871029457
Veg:_ExecuteEvents_get_cancelHandler_m1964324668
Gyl:b89
Fyl:b88
Mli:__ZL70GUISettings_t622856320_CustomAttributesCacheGenerator_m_SelectionColorP21CustomAttributesCache
vyl:b81
uyl:b80
xyl:b83
D9:__ZN18ResourceImageGroup7CleanupEv
Cyl:b85
W3c:__ZN5physx2Gu36closestPtPointTetrahedronTesselationEPNS_6shdfnd3aos5Vec3VES4_S4_RjRS3_S6_
Eyl:b87
Dyl:b86
zv:__ZN11Quaternionf8TransferI24GenerateTypeTreeTransferEEvRT_
BXd:__ZN5physx25PxcPCMContactSphereConvexERKNS_2Gu13GeometryUnionES3_RKNS_11PxTransformES6_RKfRNS_10PxcNpCacheERNS0_13ContactBufferE
mlj:_ToggleGroup_RegisterToggle_m3118973598
R1g:_PrivateKeyInfo_Decode_m1053025782
Tjh:_X509ChainElementCollection_System_Collections_ICollection_CopyTo_m1467895312
c5d:__ZN5physx2Cm18DelegateFanoutTaskINS_2Sc5SceneEXadL_ZNS3_20particlePostShapeGenEPNS_10PxBaseTaskEEEED0Ev
MWg:_PKCS12_Decrypt_m2457743414
qpb:__ZN8Playable19SetOutputConnectionEPS_i
rm:_glDeleteShader
$Df:_Exception_GetType_m3898489832
Epa:__ZN6prcoreL17RemapGenericFloatI15TexFormatRGHalf16TexFormatRGFloatEEvPKNS_9InnerInfoE
Fkd:__ZN5physx6shdfnd8PoolBaseINS_10NpMaterialENS0_19ReflectionAllocatorIS2_EEE15disposeElementsEv
YVf:_Stack_1_Peek_m1548778538_gshared
a3f:_Collection_1_System_Collections_IList_get_Item_m1995028750_gshared
oRa:__ZZ23InitPlayerLoopCallbacksvEN38EarlyUpdateExecuteMainThreadJobsstruct7ForwardEv
Jlk:_Vector4_Dot_m2285943745
wqa:__ZN19RuntimeSceneManager9LoadSceneERK8UnityStrS2_S2_RK9UnityGUIDiNS_11LoadingModeE
Ffc:__Z27scripting_add_internal_callPKcPKv
P6e:_Array_InternalArray__Insert_TisUriScheme_t1876590943_m2728325409_gshared
Zli:__ZL72GUISkin_t1436893342_CustomAttributesCacheGenerator_m_verticalSliderThumbP21CustomAttributesCache
FYk:__GLOBAL__sub_I_GarbageCollector_cpp
K4:__Z17GetPlayerSettingsv
APc:__ZL21ContactReductionAllInRN5physx2Gu13ContactBufferEjjRKNS_7PxMat33EPKNS_6PxVec3EPKh
c5i:__Z65RuntimeInvoker_KeyValuePair_2_t38854645_Il2CppObject_Il2CppObjectPK10MethodInfoPvPS2_
ID:__ZN34BlobWriteTransferSTLStyleArrayImplI22OffsetPtrArrayTransferIiEEclERS1_17TransferMetaFlagsR9BlobWrite
pck:_X509Store_CheckStore_m1027496478
X6i:__Z87RuntimeInvoker_Int32_t2071877448_UIVertex_t1204258818_UIVertex_t1204258818_Il2CppObjectPK10MethodInfoPvPS2_
d4h:__ZL82MethodBase_t904190842_CustomAttributesCacheGenerator_MethodBase_Invoke_m1075809207P21CustomAttributesCache
zNj:_InternalEnumerator_1_MoveNext_m1994485778_AdjustorThunk
u0i:__Z133RuntimeInvoker_Boolean_t3825574718_Vector3U26_t425862308_Vector3U26_t425862308_Single_t2076509932_Int32_t2071877448_Int32_t2071877448PK10MethodInfoPvPS2_
hri:__ZL62DropdownItem_t4139978805_CustomAttributesCacheGenerator_m_TextP21CustomAttributesCache
ewc:__Z33EmitSerializationCommandsForFieldI8JSONReadEvR18TransferField_InfoR32SerializationCommandQueueBuilderRP20AllowNameConversions
Xb:invoke_vffff
gIf:_Enumerator_MoveNext_m1706162224_gshared
Rol:__ZNSt3__212basic_stringIcNS_11char_traitsIcEENS_9allocatorIcEEEC2ERKS5_jjRKS4_
iOa:__ZN15dense_hashtableINSt3__24pairIKNS0_12basic_stringIcNS0_11char_traitsIcEE13stl_allocatorIcL18MemLabelIdentifier54ELi16EEEEP20ArchiveStorageReaderEES8_11djb2_hash_tIS8_EN14dense_hash_mapIS8_SB_SE_NS0_8equal_toIS8_EES5_ISC_LS6_54ELi16EEE9SelectKeyESH_SI_E5clearEv
UUe:_String_Contains_m4017059963
daf:_Array_swap_TisCustomAttributeNamedArgument_t94157543_TisCustomAttributeNamedArgument_t94157543_m3600072996_gshared
KVj:_DefaultComparer_Compare_m1606207039_gshared
aBe:__ZN2UI14CanvasRenderer12SyncMaterialENS0_8SyncFlagE
Nnl:__ZNSt3__26locale5__imp7installINS_7codecvtIDsc11__mbstate_tEEEEvPT_
f3g:_CipherSuite_get_ExchangeAlgorithmType_m3219223789
W9k:__ZN6il2cpp2vm9Parameter30GetDefaultParameterValueObjectEPK10MethodInfoPK13ParameterInfoPb
C7e:_Array_InternalArray__set_Item_TisLabelData_t3712112744_m2253365137_gshared
mHh:_MonoCMethod_get_Attributes_m3914742834
X7:__Z26scripting_object_get_classP12Il2CppObject
pEi:_MonoBehaviour_Invoke_m666563676
FAh:_ConstructorBuilder_get_DeclaringType_m4264602248
Zt:__ZNSt3__26vectorIhNS_9allocatorIhEEE8__appendEj
bAf:_Decimal_decimalDiv_m900036616
hJg:_StringReader__ctor_m643998729
FPa:__ZN14dense_hash_mapINSt3__212basic_stringIcNS0_11char_traitsIcEE13stl_allocatorIcL18MemLabelIdentifier54ELi16EEEEP20ArchiveStorageReader11djb2_hash_tIS7_ENS0_8equal_toIS7_EES4_INS0_4pairIKS7_S9_EELS5_54ELi16EEE13set_empty_keyERSF_
Led:__ZN5physx19NpRigidBodyTemplateINS_18PxArticulationLinkEE16setRigidBodyFlagENS_15PxRigidBodyFlag4EnumEb
xWi:__Z75RuntimeInvoker_DateTime_t693205669_DateTime_t693205669_TimeSpan_t3430258949PK10MethodInfoPvPS2_
p_a:__ZN14qsort_internal31_FindAndMovePivotToLastPositionIP17RODataReplacementi19ROSorterReplacementEEvT_S4_T0_T1_
lw:__ZN14AnimationEvent8TransferI19StreamedBinaryWriteILb0EEEEvRT_
lv:__ZN7mecanim9animation9DenseClip8TransferI24GenerateTypeTreeTransferEEvRT_
oqe:_UNITY_tt_face_done_kern
cgl:__ZNSt3__215basic_streambufIcNS_11char_traitsIcEEE4syncEv
_$j:_Context_get_DefaultContext_m2211922324
JCb:__ZN14SafeBinaryRead21TransferSTLStyleArrayINSt3__26vectorI14SubstanceInputNS1_9allocatorIS3_EEEEEEvRT_17TransferMetaFlags
Euc:__Z59GUIStyle_CUSTOM_Internal_GetNumCharactersThatFitWithinWidth13Il2Cpp_IntPtrP12Il2CppStringf
xKa:__Z4TrimRKNSt3__212basic_stringIcNS_11char_traitsIcEENS_9allocatorIcEEEES7_
RDb:__ZNSt3__26__treeINS_12__value_typeIjP25SubstanceRawTextureSharedEENS_19__map_value_compareIjS4_NS_4lessIjEELb1EEE13stl_allocatorIS4_L18MemLabelIdentifier77ELi16EEE7destroyEPNS_11__tree_nodeIS4_PvEE
g2g:_RSAManaged_GetPaddedValue_m2972141669
Ehj:_ScrollRect_OnDrag_m1424848249
D7g:_TlsServerCertificate_ProcessAsSsl3_m277089231
h1e:_Array_InternalArray__IEnumerable_GetEnumerator_TisUInt16_t986882611_m3665860884_gshared
efa:__Z19scripting_gc_enablev
D6j:_AnchorInfo__ctor_m617409099
wfe:__ZN5physx7profile11EventBufferINS_24PxDefaultContextProviderENS_6shdfnd6MutexTINS0_26WrapperReflectionAllocatorIhEEEENS0_14ScopedLockImplIS7_EENS_24PxProfileNullEventFilterEE9stopEventEty
Fab:__Z29StdTemplateConversionFunctionIihEbPvR14SafeBinaryRead
kDh:_GenericTypeParameterBuilder_GetMethodImpl_m528545634
WCe:__Z55Register_UnityEngine_CanvasRenderer_DisableRectClippingv
Fmh:_Interval_CompareTo_m2909556284_AdjustorThunk
Uyb:__ZN14SafeBinaryRead21TransferSTLStyleArrayI13dynamic_arrayI11ColorRGBA32Lj4EEEEvRT_17TransferMetaFlags
Okl:__ZNKSt3__210moneypunctIcLb1EE13do_pos_formatEv
o9i:__Z97RuntimeInvoker_Void_t1841601450_PlayableU5BU5DU26_t2309105347_Int32_t2071877448_Int32_t2071877448PK10MethodInfoPvPS2_
dej:_Navigation_t1571958496_marshal_pinvoke
zlh:_Interpreter_GetLastDefined_m2450713313
Qkl:__ZNSt3__210moneypunctIwLb0EED2Ev
T5j:_Parser_ParseAssertionType_m3316669790
wij:_Selectable_get_isPointerDown_m774209881
e_h:__ZL73Enum_t2459695545_CustomAttributesCacheGenerator_Enum_ToObject_m2460371738P21CustomAttributesCache
usl:dynCall_viiiifii
nGi:_Plane_get_distance_m1834776091_AdjustorThunk
Z6:__Z20GetPersistentManagerv
Fxe:_UNITY_TT_Set_Var_Design
Z$j:_Context_Finalize_m1386439645
Jea:__ZN21SystemInfoStringCache16StaticInitializeEPv
D3g:_TlsStream__ctor_m4117943603
xCd:__ZN5physx2Cm20visualizeLinearLimitERNS0_12RenderOutputEfRKNS_11PxTransformES5_fb
B2c:__ZN5physx2Sc7BodySim18internalWakeUpBaseEf
H0k:__ZN6il2cpp2gc16GarbageCollector23MakeDescriptorForObjectEPji
l9:__ZNSt3__212basic_stringIcNS_11char_traitsIcEE13stl_allocatorIcL18MemLabelIdentifier1ELi16EEE21__grow_by_and_replaceEjjjjjjPKc
QJh:_ParameterModifier_t1820634920_marshal_pinvoke
nKb:__ZNK13MonoBehaviour7GetNameEv
g7i:__Z104RuntimeInvoker_Int32_t2071877448_Il2CppObject_UICharInfo_t3056636800_Int32_t2071877448_Int32_t2071877448PK10MethodInfoPvPS2_
dUk:__ZN13dynamic_arrayIP12Il2CppObjectLj4EE9push_backEv
qra:__ZN19ScriptingInvocation28AdjustArgumentsToMatchMethodEv
dcg:_AbstractEventData_Use_m1797212290
pbi:__ZL56AppDomainSetup_t611332832_CustomAttributesCacheGeneratorP21CustomAttributesCache
j0i:__Z76RuntimeInvoker_Boolean_t3825574718_Ray_t2469606224_RaycastHitU26_t1969197280PK10MethodInfoPvPS2_
aQk:__ZN6il2cpp2vm4Type19GetGenericParameterEPK10Il2CppType
sNj:_InternalEnumerator_1__ctor_m439810834_AdjustorThunk
wCe:__Z51Register_UnityEngine_CanvasGroup_get_blocksRaycastsv
nUj:_InternalEnumerator_1_get_Current_m2826780083_gshared
YAd:__ZN5physx20NpRigidActorTemplateINS_13PxRigidStaticEE15exportExtraDataERNS_22PxSerializationContextE
XBl:b119
U$k:__ZNK15dense_hashtableINSt3__24pairIK10KeyWrapperIP14Il2CppIUnknownEjEES5_N6il2cpp5utils11PointerHashIS3_EEN14dense_hash_mapIS5_jSB_NS0_8equal_toIS5_EENS0_9allocatorIS7_EEE9SelectKeyESE_SG_E12test_deletedEj
rea:__ZN14dense_hash_mapINSt3__212basic_stringIcNS0_11char_traitsIcEE13stl_allocatorIcL18MemLabelIdentifier54ELi16EEEEP11AssetBundle11djb2_hash_tIS7_ENS0_8equal_toIS7_EENS0_9allocatorINS0_4pairIKS7_S9_EEEEE13set_empty_keyERSG_
Vvi:__ZL105LayoutUtility_t4076838048_CustomAttributesCacheGenerator_LayoutUtility_U3CGetMinHeightU3Em__4_m1769295917P21CustomAttributesCache
L6d:__ZN5physx13BigConvexData5VLoadERNS_13PxInputStreamE
eHi:_RaycastHit2D_get_collider_m2568504212
qVj:_InternalEnumerator_1__ctor_m2782443954_AdjustorThunk
Td:_glBeginQuery
Yxh:_Assembly_GetCustomAttributes_m95309865
Iwi:_GUILayoutUtility_INTERNAL_CALL_Internal_GetWindowRect_m3236664463
$H:__ZN18AnimatorController19TransferRuntimeDataI24GenerateTypeTreeTransferEEvRT_
J3k:__ZN6il2cpp2vmL9ends_withEPKcS2_
NMd:__ZN5physx11NodeManager6resizeEj
AMc:__ZN10Effector2D25CheckEffectorColliderMaskEP10Collider2DS1_
q0g:_RC4__ctor_m1585026462
M0:__ZN20LocalFileSystemPosix10ToAbsoluteEPKc
Mpg:_GridLayoutGroup__ctor_m1099847132
aRj:_InternalEnumerator_1_get_Current_m2286118957_AdjustorThunk
bLd:__ZN5physx2Sc5Scene24setContactModifyCallbackEPNS_23PxContactModifyCallbackE
Frf:_Convert_ToBoolean_m48997236
kGd:__ZNK5physx7NpScene28getSceneQueryStaticTimestampEv
hq:__ZN6Object17MainThreadCleanupEv
ulf:_ArrayListWrapper_set_Capacity_m2792463350
Thh:_X509Certificate2_ImportPkcs12_m3993877002
jel:_getcwd
NYe:_StringBuilder_Append_m1128243247
EGc:__ZN16b2CapsuleContact6CreateEP9b2FixtureiS1_iP16b2BlockAllocator
E6j:_AnchorInfo_get_Offset_m142119297
Bdb:__ZN25ThreadsafeLinearAllocatorD2Ev
IGg:_FileStream_Seek_m950719389
mOd:__ZN5physx2Sq10AABBPruner11preallocateEj
zyi:_GUISkin_get_settings_m626844463
nca:__ZN21BillboardBatchManager16StaticInitializeEPv
Dyi:_Object_get_name_m2079638459
YAl:b117
o3:__ZN12_GLOBAL__N_138ArchiveRedirectFileSystemStaticDestroyEPv
Lfk:_InvokableCall_1_add_Delegate_m3048312905_gshared
SDf:_EventHandler_Invoke_m1137722757
NAl:_emscripten_glLoadIdentity__wrapper
LDd:__ZN5physx2Sc19ShapeInstancePairLLC2ERNS0_8ShapeSimES3_RNS0_9ActorPairENS_7PxFlagsINS_10PxPairFlag4EnumEtEE
JMg:_MonoType_IsSubclassOf_m2211166238
fTk:__ZN6il2cpp6icalls8mscorlib6System5Array9GetLengthEP11Il2CppArrayi
iKh:_TypeFilter_EndInvoke_m997625354
Cv:__ZN13AnimationClip15QuaternionCurve8TransferI18StreamedBinaryReadILb0EEEEvRT_
NZf:_Collection_1_System_Collections_ICollection_CopyTo_m2859266050_gshared
Y5:__ZN19RuntimeSceneManagerC2Ev
iy:__ZN7mecanim14ValueArrayCopyEPKNS_10ValueArrayEPS0_PKNS_14ValueArrayMaskE
yWj:_Comparer_1__ctor_m2876014041_gshared
e6k:_GC_continue_reclaim
slf:_ArrayListWrapper_get_Count_m2207944952
Ujh:_X509ChainElementCollection_System_Collections_IEnumerable_GetEnumerator_m2559704689
jgi:__ZL86BigInteger_t925946153_CustomAttributesCacheGenerator_BigInteger_op_Implicit_m622924526P21CustomAttributesCache
dri:__ZL59Dropdown_t1985816271_CustomAttributesCacheGenerator_m_ValueP21CustomAttributesCache
fmh:_InterpreterFactory_set_Gap_m2761943153
hhh:_PublicKey_get_Key_m126090744
Ala:__ZNSt3__26vectorINS_4pairIiiEENS_9allocatorIS2_EEE6insertENS_11__wrap_iterIPKS2_EERS7_
Ple:__ZNSt3__23mapIN20TextRenderingPrivate7FontRefEP11FT_FaceRec_NS_4lessIS2_EENS_9allocatorINS_4pairIKS2_S4_EEEEEixERS9_
SNa:__ZN17ArchiveFileSystem10AddStorageEP20ArchiveStorageReader
Red:__ZN5physx19NpRigidBodyTemplateINS_18PxArticulationLinkEE27setMaxDepenetrationVelocityEf
wsd:__ZN5physx2Sc9ClothCore16setStretchConfigENS_22PxClothFabricPhaseType4EnumERKNS_20PxClothStretchConfigE
KBj:_Color_Equals_m661618137
$$f:__ZN21InterfaceFuncInvoker1Ib22UILineInfo_t3621277874E6InvokeEjP11Il2CppClassPvS0_
PGd:__ZN5physx15PxsParticleData13onOriginShiftERKNS_6PxVec3E
FEc:__ZNK12b2MotorJoint16GetReactionForceEf
HIa:__ZN12_GLOBAL__N_112UploadFormatE13TextureFormat
WUh:_EqualityComparer_1_System_Collections_IEqualityComparer_GetHashCode_m1203798961_gshared
Zwk:__ZN6il2cpp2vm5Class15GetEnumBaseTypeEP11Il2CppClass
_Eg:_DirectoryNotFoundException__ctor_m3713860966
gXj:_Comparer_1_get_Default_m4282764954_gshared
NFi:_Physics_Raycast_m2009151399
URk:__ZN15dense_hashtableINSt3__24pairIK10KeyWrapperINS1_IP11Il2CppClassjEEES4_EES6_N6il2cpp8metadata14ArrayClassHashEN14dense_hash_mapIS6_S4_SB_NSA_17ArrayClassCompareENS0_9allocatorIS8_EEE9SelectKeyESD_SF_E12resize_deltaEjj
Dqb:__ZNK9Texture2D16GetNpotTexelSizeEv
VNj:_InternalEnumerator_1__ctor_m245588437_gshared
KH:__ZN18StreamedBinaryReadILb1EE21TransferSTLStyleArrayI22OffsetPtrArrayTransferI9OffsetPtrIN7mecanim12statemachine21SelectorStateConstantEEEEEvRT_17TransferMetaFlags
Kkh:_Capture_get_Text_m3472127896
Tcj:_Mask_get_rectTransform_m3304369086
Xik:_TooltipAttribute__ctor_m2640804852
Ezk:__ZNK10KeyWrapperINSt3__212basic_stringIcNS0_11char_traitsIcEENS0_9allocatorIcEEEEEeqERKS7_
Mhe:__ZN13dynamic_arrayItLj2EE6insertEPtPKtS3_
EYi:__Z35RuntimeInvoker_Category_t1984577050PK10MethodInfoPvPS2_
TSh:_DefaultComparer_GetHashCode_m4073394827_gshared
pEa:__ZN9GfxDevice22GetDefaultVertexBufferE26GfxDefaultVertexBufferTypej
v6f:_ReadOnlyCollection_1_System_Collections_ICollection_CopyTo_m1129689124_gshared
Bel:___fseeko_unlocked
H4i:__Z162RuntimeInvoker_Void_t1841601450_Il2CppObject_Int32_t2071877448_SByte_t454417549_SByte_t454417549_SingleU26_t4173844468_SingleU26_t4173844468_SingleU26_t4173844468PK10MethodInfoPvPS2_
SXk:__ZN15dense_hashtableI10KeyWrapperIP18Il2CppGenericClassES3_N6il2cpp8metadata22Il2CppGenericClassHashEN14dense_hash_setIS3_S6_NS5_25Il2CppGenericClassCompareENSt3__29allocatorIS3_EEE8IdentityES8_SB_E5clearEv
UFb:__ZN18StreamedBinaryReadILb1EE21TransferSTLStyleArrayI13dynamic_arrayI16SplashScreenLogoLj4EEEEvRT_17TransferMetaFlags
K1f:_Collection_1_Contains_m1999290510_gshared
W_c:__ZN5physx3Cct17CapsuleControllerC2ERKNS_16PxControllerDescERNS_9PxPhysicsEPNS_7PxSceneE
vzb:__ZN14SafeBinaryRead21TransferSTLStyleArrayINSt3__26vectorI17BlendShapeChannelNS1_9allocatorIS3_EEEEEEvRT_17TransferMetaFlags
Kfa:__Z17BeginSplashScreenv
TCj:_ControllerColliderHit_get_moveDirection_m3053186297
zll:__ZNSt3__212basic_stringIwNS_11char_traitsIwEENS_9allocatorIwEEE6appendIPwEENS_9enable_ifIXaasr21__is_forward_iteratorIT_EE5valuesr38__libcpp_string_gets_noexcept_iteratorIS9_EE5valueERS5_E4typeES9_S9_
D0b:__ZN9ShaderLab16SerializedShader8TransferI19StreamedBinaryWriteILb0EEEEvRT_
P9i:__Z55RuntimeInvoker_LabelFixup_t4090909514_Int32_t2071877448PK10MethodInfoPvPS2_
eF:__ZN7mecanim9animation18CreateAvatarMemoryEPKNS0_14AvatarConstantERNS_6memory9AllocatorE
brf:_Stack_Pop_m3788808882
iYj:_Enumerator_VerifyCurrent_m4246196125_AdjustorThunk
ARh:_Dictionary_2_pick_value_m3484897877_gshared
cyf:_DateTime_op_Equality_m1867073872
_D:__ZN7mecanim8skeleton16SkeletonPoseCopyIN4math4trsXENS2_7affineXEEEvPKNS0_13SkeletonPoseTIT_EEPNS5_IT0_EE
rSb:__Z18Transfer_BlittableI19StreamedBinaryWriteILb0EELb0EaEvRK29SerializationCommandArgumentsR31RuntimeSerializationCommandInfo
YDa:__ZN18GfxFramebufferGLES18GetFramebufferNameERK20GfxRenderTargetSetup
P5k:_GC_print_block_list
vPk:__ZN6il2cpp2vm14TypeNameParser12ParseVersionERKNSt3__212basic_stringIcNS2_11char_traitsIcEENS2_9allocatorIcEEEERtSB_SB_SB_
XGj:_CustomAnimationPlayable_OnSetPlayState_m1903832042
Geg:__ZN23InterfaceActionInvoker1IP25AxisEventData_t1524870173E6InvokeEjP11Il2CppClassPvS1_
SUk:__ZN6il2cpp6icalls8mscorlib6System2IO6MonoIO11GetFileTypeE12Il2CppIntPtrPi
etc:__Z30Event_Get_Custom_PropCharacterP12Il2CppObject
tuk:__ZL25UnresolvedVirtualCall_145P12Il2CppObject22ColorBlock_t2652774230S1_PK10MethodInfo
fXc:__ZN5physx6shdfnd5ArrayINS_12PxDebugPointENS0_19ReflectionAllocatorIS2_EEE15growAndPushBackERKS2_
_vl:_glGetFramebufferAttachmentParameteriv__wrapper
NPe:_SecurityElement_GetAttribute_m4288291176
wUj:_InternalEnumerator_1_System_Collections_IEnumerator_get_Current_m2389982234_gshared
A9j:_UriParser_get_DefaultPort_m1377931533
cnk:_IndexedSet_1_get_Count_m2839545138_gshared
pua:__ZN14SafeBinaryRead20TransferTypelessDataEjPvi
M4h:__ZL66StringFreezingAttribute_t2691375565_CustomAttributesCacheGeneratorP21CustomAttributesCache
XBc:__ZN9rapidjson13GenericReaderINS_4UTF8IcEES2_13JSONAllocatorE10ParseFalseILj1ENS_25GenericInsituStringStreamIS2_EENS_15GenericDocumentIS2_S3_S3_EEEEvRT0_RT1_
pRf:_List_1_AddCollection_m3284813601_gshared
sfb:__ZN33AssetBundleLoadFromAsyncOperation7PerformEv
Cui:__ZL102ToggleGroup_t1030026315_CustomAttributesCacheGenerator_ToggleGroup_U3CActiveTogglesU3Em__1_m4052653494P21CustomAttributesCache
D_i:__Z69RuntimeInvoker_Single_t2076509932_Int32_t2071877448_Int32_t2071877448PK10MethodInfoPvPS2_
I4:__Z19GetActiveColorSpacev
iVh:_EqualityComparer_1__cctor_m1672307556_gshared
woh:_SoapTypeAttribute_get_IsInteropXmlElement_m2941294827
Hpe:_UNITY_tt_face_load_kern
UIf:_Enumerator_System_Collections_IEnumerator_get_Current_m3542273247_gshared
Djf:_Char_System_IConvertible_ToUInt32_m1557991717_AdjustorThunk
zVe:_Encoding_get_UTF8Unmarked_m628720656
exg:_NumberFormatter_RoundBits_m1545255255
s5:__Z6StrCmpPKcS0_
kTj:_InternalEnumerator_1_MoveNext_m2906956792_gshared
rkb:__ZN18StreamedBinaryReadILb1EE21TransferSTLStyleArrayINSt3__26vectorI17SortingLayerEntryNS2_9allocatorIS4_EEEEEEvRT_17TransferMetaFlags
Y1b:__Z21CheckGpuProgramUsable20ShaderGpuProgramType
Owk:__ZNK15dense_hashtableINSt3__24pairIK10KeyWrapperIPK22Il2CppGenericParameterEP11Il2CppClassEES6_N6il2cpp5utils11PointerHashIS4_EEN14dense_hash_mapIS6_S9_SE_NS0_8equal_toIS6_EENS0_9allocatorISA_EEE9SelectKeyESH_SJ_E13find_positionERS7_
I6i:__Z55RuntimeInvoker_Boolean_t3825574718_Keyframe_t1449471340PK10MethodInfoPvPS2_
Wyh:_Binder__cctor_m3736115807
z_a:__ZN13BatchRenderer5FlushEv
qql:__ZNKSt8bad_cast4whatEv
dhd:__ZN5physx6shdfnd5ArrayIPvNS0_19ReflectionAllocatorINS_2Cm5BlockIhLj128EEEEEE4copyINS0_15InlineAllocatorILj256ES7_EEEEvRKNS1_IS2_T_EE
Wff:_Attribute_GetHashCode_m2653962112
Mke:__ZN20TextRenderingPrivate19NativeTextGenerator5SetupEv
O1j:_AsyncResult_GetReplyMessage_m262842621
I1a:__ZNK15SharedLightData24GetFinalShadowResolutionEv
iHf:_Enumerator__ctor_m3021143890_AdjustorThunk
Lkd:__ZN5physx6shdfnd8PoolBaseINS_16NpConnectorArrayENS0_19ReflectionAllocatorIS2_EEE15disposeElementsEv
bGb:__ZN12AspectRatios8TransferI18StreamedBinaryReadILb0EEEEvRT_
_he:__ZN14PhysicsManager19CreatePvdConnectionEv
H0h:__ZL66X509ExtensionCollection_t1640144839_CustomAttributesCacheGeneratorP21CustomAttributesCache
E9b:__ZN10GameObject14CopyPropertiesERS_
hvc:__Z44Register_UnityEngine_GUIStyle_get_fixedWidthv
PLe:_RSACryptoServiceProvider_Common_m2581564813
c$k:__ZNSt3__214__split_bufferIN6il2cpp2os10ThreadImpl10APCRequestERNS_9allocatorIS4_EEEC2EjjS7_
H7:__ZN14SafeBinaryRead4InitERK16TypeTreeIteratorii24TransferInstructionFlags18MemLabelIdentifier
VKj:_ArrayReadOnlyList_1_GetEnumerator_m634288642_gshared
u9a:__ZNK13ScreenManager12IsFullScreenEv
$el:_rand
lKk:__ZN15dense_hashtableINSt3__24pairIK10KeyWrapperINS1_IPK10MethodInfoP11Il2CppClassEEEjEES9_17ReflectionMapHashIS8_EN14dense_hash_mapIS9_jSD_19ReflectionMapEqualsIS8_ENS0_9allocatorISB_EEE9SelectKeyESG_SI_E12maybe_shrinkEv
VVi:__Z51RuntimeInvoker_UInt32_t2149682021_Int16_t4041245914PK10MethodInfoPvPS2_
qNj:_InternalEnumerator_1_get_Current_m2345377791_AdjustorThunk
Ujd:__ZNK5physx12NpConstraint9getActorsERPNS_12PxRigidActorES3_
TC:__ZN11UnityEngine9Animation33SetGenericTransformPropertyValuesERKNS0_30AnimatorGenericBindingConstantERKN7mecanim10ValueArrayEP9Transform
gnl:__ZNKSt3__28numpunctIwE16do_decimal_pointEv
cag:_ReadOnlyCollection_1_GetEnumerator_m2481390116_gshared
SNb:__ZN14SafeBinaryRead21TransferSTLStyleArrayINSt3__26vectorI17AnimationCurveTplIfE13stl_allocatorIS4_L18MemLabelIdentifier1ELi16EEEEEEvRT_17TransferMetaFlags
Qhc:__Z60Register_UnityEngine_AsyncOperation_set_allowSceneActivationv
o9d:__ZN5physx6shdfnd8PoolBaseIN17PxcPoolMallocData10PoolData16ENS0_19ReflectionAllocatorIS3_EEE15disposeElementsEv
kdj:_CullStateChangedEvent__ctor_m4025397477
uhl:__ZNSt3__26locale2id5__getEv
Mrh:_ObjectManager_RegisterObject_m872610295
KVa:__Z22PrepareOptimizedPlanesPK5PlaneiPKN4math7_float4E
Rbj:__Z47RuntimeInvoker_Vector3_t2243707580_Il2CppObjectPK10MethodInfoPvPS2_
pIi:_RectOffset_t3387826427_marshal_pinvoke
QFe:__ZN11UnityEngine7Connect13ConfigHandler13ConfigChangedERK8UnityStr
tog:_Graphic_SetVerticesDirty_m1607014370
lca:__ZN17UniqueIDGenerator15CreatePureIndexEv
Anl:__ZNSt3__27codecvtIDsc11__mbstate_tED0Ev
P0g:_MD2__ctor_m3133818738
NJ:__ZN11UnityEngine9Animation28GenericAnimationBindingCache15DidReloadDomainEv
JZg:_AppDomain_InternalGetProcessGuid_m1278588156
Mtg:_InputField_MoveRight_m386206014
sUb:__ZN6HelperI18StreamedBinaryReadILb0EE23TransferArrayField_InfoE24SerializationFunctionForERKS2_R23StaticTransferFieldInfoPb
NEd:__ZN5physx7NpScene8addActorERNS_7PxActorE
o$e:_Array_InternalArray__ICollection_Remove_TisIl2CppObject_m2425110446_gshared
rJ:__ZN19StreamedBinaryWriteILb0EE8TransferIN7mecanim9animation23BlendDirectDataConstantEEEvRT_PKc17TransferMetaFlags
Igj:_ScrollRect_set_inertia_m2575649134
eEg:_BinaryReader_ReadBoolean_m2892291883
PEc:__ZNK12b2MouseJoint17GetReactionTorqueEf
o8h:__ZL66DSASignatureDeformatter_t2187578719_CustomAttributesCacheGeneratorP21CustomAttributesCache
wcc:__ZN4Mesh24UpdateSubMeshVertexRangeEi
CXi:__Z91RuntimeInvoker_Boolean_t3825574718_Il2CppObject_Il2CppObject_Il2CppObject_Int32_t2071877448PK10MethodInfoPvPS2_
src:__Z14GUIClipTextureP9Texture2DPhiiii
ku:__ZN14SafeBinaryRead21TransferSTLStyleArrayI13dynamic_arrayI11KeyframeTplI11QuaternionfELj4EEEEvRT_17TransferMetaFlags
BMj:_InternalEnumerator_1_Dispose_m1064404287_AdjustorThunk
FGa:__ZNSt3__26vectorI27ComputeShaderBuiltinSamplerNS_9allocatorIS1_EEE21__push_back_slow_pathIKS1_EEvRT_
$4i:__Z95RuntimeInvoker_Void_t1841601450_ObjectU5BU5DU26_t3223402458_Int32_t2071877448_Int32_t2071877448PK10MethodInfoPvPS2_
G7g:_TlsServerCertificate_validateCertificates_m1988583701
hVi:__Z52RuntimeInvoker_DateTime_t693205669_Int16_t4041245914PK10MethodInfoPvPS2_
v8j:_Uri__ctor_m3927533881
Z$h:__ZL61DllImportAttribute_t3000813225_CustomAttributesCacheGeneratorP21CustomAttributesCache
Y4:__ZNK9Transform18TransformDirectionERK8Vector3f
h5d:__ZN5physx21PxsBodyTransformVault6updateEv
pQa:__ZNK17ArchiveFileSystem12GetAssetGUIDERK13FileEntryData
Q1b:__ZNSt3__26vectorIN9ShaderLab20SerializedSubProgram15MatrixParameterENS_9allocatorIS3_EEE21__push_back_slow_pathIKS3_EEvRT_
KJj:_GUILayoutEntry_SetHorizontal_m1828181654
Gba:__ZN13RuntimeStaticINSt3__23setIPFvP11Il2CppClassR23CachedSerializationDataRbENS0_4lessIS8_EENS0_9allocatorIS8_EEEEE16StaticInitializeEPv
$Oc:__ZL29GeomMTDCallback_CapsuleConvexRN5physx6PxVec3ERfRKNS_10PxGeometryERKNS_11PxTransformES5_S8_
skl:__ZNKSt3__210__time_put8__do_putEPwRS1_PK2tmcc
KVh:_EqualityComparer_1_get_Default_m1852501307_gshared
XX:__ZNKSt3__23mapINS_12basic_stringIcNS_11char_traitsIcEENS_9allocatorIcEEEES6_NS_4lessIS6_EENS4_INS_4pairIKS6_S6_EEEEE16__find_equal_keyERPNS_16__tree_node_baseIPvEERSA_
hZi:__Z94RuntimeInvoker_Void_t1841601450_Il2CppObject_ByteU5BU5DU26_t790777611_ByteU5BU5DU26_t790777611PK10MethodInfoPvPS2_
FJb:__ZN10MonoScript23VirtualRedirectTransferER17RemapPPtrTransfer
Wpl:__ZNK10__cxxabiv120__si_class_type_info27has_unambiguous_public_baseEPNS_19__dynamic_cast_infoEPvi
Qyg:_NumberFormatInfo_get_PercentNegativePattern_m1162448153
p1h:__ZL56SyncHashtable_t1343674558_CustomAttributesCacheGeneratorP21CustomAttributesCache
qJb:__ZN24RingBufferMemoryFileData9SetLengthEy
kul:_glTexSubImage3D__wrapper
Wkh:_FactoryCache_Add_m2602974721
NSa:__Z21WriteImageAsyncThreadPv
Eba:__ZL16GetInterfaceImpl18UnityInterfaceGUID
qxk:__ZN6il2cpp2vmL17SetupFieldOffsetsENS0_15FieldLayoutKindEP11Il2CppClassjRKNSt3__26vectorIjNS4_9allocatorIjEEEE
HKf:_List_1_System_Collections_IList_get_Item_m936612973_gshared
NK:__ZNSt3__26vectorI8UnityStrNS_9allocatorIS1_EEE26__swap_out_circular_bufferERNS_14__split_bufferIS1_RS3_EE
h_:__ZN13EmscriptenWWW7GetSizeEv
a3k:__ZN6il2cpp6icalls8mscorlib6System15MonoCustomAttrs27GetCustomAttributesInternalEP12Il2CppObjectP20Il2CppReflectionTypeb
Bu:__ZN7mecanim9animation18ClipMuscleConstant8TransferI18StreamedBinaryReadILb1EEEEvRT_
Wyc:__ZN8JSONRead21TransferSTLStyleArrayI13dynamic_arrayI8Vector3fLj4EEEEvRT_18MemLabelIdentifier17TransferMetaFlags
Wrh:_ObjectReader_ReadAssembly_m869834280
pNc:__ZNK5physx3Cct13BoxController11getPositionEv
yqa:__ZN14PreloadManager35WaitForAllAsyncOperationsToCompleteEv
dyd:__ZN5physx14NpRigidDynamicC2ERKNS_11PxTransformE
w9f:_ReadOnlyCollection_1_System_Collections_IList_get_Item_m1831743662_gshared
N2f:_Collection_1_IsSynchronized_m971497175_gshared
OSc:__Z27sweepCCTBox_HeightFieldGeomRKN5physx10PxGeometryERKNS_11PxTransformERKNS_2Gu3BoxERKNS_6PxVec3EfRNS_10PxSweepHitENS_7PxFlagsINS_9PxHitFlag4EnumEtEEf
Z$e:_ExecuteEvents_Execute_TisIl2CppObject_m4168308247_gshared
kkj:_Text_get_cachedTextGeneratorForLayout_m1357670532
qO:__ZL31InitializeAudioScriptingClassesv
AYa:__Z14SortGUIByDepthP10GUIElementS0_
cBg:_NumberFormatter_NumberToString_m126384393
eyl:_emscripten_glVertexAttrib4fv__wrapper
ri:_glBindSampler
F2j:_LogicalCallContext__ctor_m3173272863
JOc:__ZN5physx3Cct9SweepTest18updateTouchedGeomsEPKNS0_30InternalCBData_FindTouchedGeomERKNS0_13UserObstaclesERKNS_17PxExtendedBounds3ERKNS_19PxControllerFiltersERKNS_6PxVec3E
qLg:_MonoCustomAttrs__cctor_m2608447972
RAg:_Int32_FindSign_m3803672540
TKh:_Enumerator_System_Collections_IEnumerator_Reset_m70453843_AdjustorThunk
vyi:_GUISkin_get_scrollView_m2941173958
Dfe:_PxCloseExtensions
u1:__ZNK20LocalFileSystemPosix21GetAvailableDiskSpaceEPKcRy
sr:__ZNSt3__26__treeIiNS_4lessIiEENS_9allocatorIiEEE7destroyEPNS_11__tree_nodeIiPvEE
pfk:_Predicate_1__ctor_m2995226103_gshared
t3g:_CipherSuite_InitializeCipher_m229247572
gya:__ZNK9GfxDevice14GetWorldMatrixEv
eJh:_MonoProperty_GetGetMethod_m1100580870
bRh:_Dictionary_2__ctor_m1950568359_gshared
YKh:_Enumerator_System_Collections_IDictionaryEnumerator_get_Key_m1214978221_AdjustorThunk
xS:__ZN11SoundHandle13CreateChannelEb
Yrb:__ZN14SafeBinaryRead21TransferSTLStyleArrayI13dynamic_arrayI12LightmapDataLj4EEEEvRT_17TransferMetaFlags
b_g:_ArgumentException__ctor_m3312963299
xhb:__ZN21AssetBundleFileSystem11CreateAsDirER13FileEntryData
G_b:__ZNSt3__26vectorIN9ShaderLab20SerializedSubProgram16TextureParameterENS_9allocatorIS3_EEE6assignIPS3_EENS_9enable_ifIXaasr21__is_forward_iteratorIT_EE5valuesr16is_constructibleIS3_NS_15iterator_traitsISA_E9referenceEEE5valueEvE4typeESA_SA_
xac:__Z16CreateGameObjectRKNSt3__212basic_stringIcNS_11char_traitsIcEENS_9allocatorIcEEEEPKcz
d$k:__ZNSt3__26vectorIN6il2cpp2os10ThreadImpl10APCRequestENS_9allocatorIS4_EEE26__swap_out_circular_bufferERNS_14__split_bufferIS4_RS6_EE
eek:_U3CCreateWhereIteratorU3Ec__Iterator1D_1_MoveNext_m3533253043_gshared
JOj:_InternalEnumerator_1_System_Collections_IEnumerator_Reset_m2726857860_AdjustorThunk
GOb:__ZN9Scripting36IsSystemCollectionsGenericDictionaryEP11Il2CppClass
zkh:_X509SubjectKeyIdentifierExtension__ctor_m3887138480
aHf:_Enumerator_System_Collections_IEnumerator_get_Current_m2853089017_AdjustorThunk
_Fc:__ZN12b2WheelJoint24SolvePositionConstraintsERK12b2SolverData
isd:__ZNK5physx2Sc9ClothCore20getNbCollisionPlanesEv
hh:_emscripten_exit_fullscreen
ELd:__ZN5physx6shdfnd5ArrayINS_9PxBounds3ENS0_15InlineAllocatorILj192ENS0_19ReflectionAllocatorIS2_EEEEE8recreateEj
ZTd:__ZNK5physx23PxsBroadPhaseContextSap7getTypeEv
n7d:__ZNK5physx13GuMeshFactory17getNbHeightFieldsEv
Nrg:_InputField_get_mesh_m3276583786
AZj:_GCHandle_Free_m1639542352_AdjustorThunk
etb:__ZNK29LineParametersPropertyBinding38SerializedPropertyPathToCurveAttributeER6ObjectPKc
n6g:_Context_set_ClientRandom_m631392719
_0k:__ZN6il2cpp6icalls8mscorlib6System6String19InternalAllocateStrEi
Nyc:__Z29Transfer_Blittable_ArrayFieldI8JSONRead11QuaternionfEvRT_R9ArrayInfoRK23StaticTransferFieldInfo
O6h:__ZL65SoapParameterAttribute_t2780084514_CustomAttributesCacheGeneratorP21CustomAttributesCache
AOd:__ZNK5physx2Gu12OBBAABBTestsILb1EEclENS_6shdfnd3aos5Vec3VES5_
Z_i:__Z47RuntimeInvoker_Vector4_t2243707581_Il2CppObjectPK10MethodInfoPvPS2_
cOc:__ZN5physx3Cct9SweepTestD2Ev
Blb:__ZN9Behaviour8TransferI18StreamedBinaryReadILb0EEEEvRT_
Y3j:_Enumerator_System_Collections_IEnumerator_get_Current_m1429268283
QCj:_ControllerColliderHit_get_transform_m3183428555
qXc:__ZN26IntersectAnyVsMeshCallbackILi0ELb0EED2Ev
Fcl:___toread
nZ:__ZN19CloudServiceHandler10QueueEventEPN11UnityEngine15CloudWebService14CloudEventInfoE
Fql:___cxa_is_pointer_type
Qrg:_InputField_get_shouldHideMobileInput_m3694613599
HHa:__ZN4gles20DestroyRenderSurfaceEP7ApiGLESP17RenderSurfaceGLES
$Gf:_Enumerator_System_Collections_IEnumerator_get_Current_m2853089017_gshared
kWk:__ZN15dense_hashtableINSt3__24pairIK10KeyWrapperINS1_IPKcS4_EEEiEES6_24NamespaceAndNamePairHashN14dense_hash_mapIS6_iS9_26NamespaceAndNamePairEqualsNS0_9allocatorIS8_EEE9SelectKeyESB_SD_E8min_sizeEjj
Pda:__ZN17MessageIdentifier13StaticDestroyEPv
Vnl:__ZNSt3__26locale5__imp7installINS_7num_putIcNS_19ostreambuf_iteratorIcNS_11char_traitsIcEEEEEEEEvPT_
Qpc:__Z34Transform_CUSTOM_SetAsFirstSiblingP12Il2CppObject
WRc:__ZN12_GLOBAL__N_141SphereMeshContactGenerationCallback_ScaleD0Ev
VYc:__ZN5physx3Cct17CapsuleController16setContactOffsetEf
jJf:_Enumerator_get_Current_m827571811_AdjustorThunk
dna:__ZN17PersistentManager40GlobalToLocalSerializedFileIndexInternalERK26SerializedObjectIdentifier
ncg:_BaseEventData_get_selectedObject_m3551206992
XPg:_SimpleCollator_CompareOrdinal_m2176988387
mni:__ZL47Rect_t3681755626_CustomAttributesCacheGeneratorP21CustomAttributesCache
IEf:_CCGregorianCalendar_GetYear_m1289900195
ujd:__ZN12GeomQueryAnyIN5physx10PxSweepHitEE7geomHitERKNS0_2Sq17SceneQueryManagerERKNS0_15MultiQueryInputERKNS3_9ShapeDataERKNS0_10PxGeometryERKNS0_11PxTransformENS0_7PxFlagsINS0_9PxHitFlag4EnumEtEEjPS1_fbPNS0_9PxBounds3E
aBg:_Int16_ToString_m2592645088
KCa:__ZN13TranslateGLES4InitERK12GraphicsCaps16GfxDeviceLevelGL
sVb:__Z29Transfer_Blittable_ArrayFieldI18StreamedBinaryReadILb0EE10ColorRGBAfEvRT_R9ArrayInfoRK23StaticTransferFieldInfo
eRc:__ZN43CapsuleHeightfieldContactGenerationCallback7onEventEjPj
xde:__ZThn4_N12MemoryStream4readEPvj
Kth:_SerializationInfoEnumerator_Reset_m2206466680
b8i:__Z48RuntimeInvoker_Void_t1841601450_Slot_t2267560602PK10MethodInfoPvPS2_
Y0b:__ZNSt3__26__treeINS_12__value_typeI8UnityStriEENS_19__map_value_compareIS2_S3_NS_4lessIS2_EELb1EEENS_9allocatorIS3_EEE4findIS2_EENS_15__tree_iteratorIS3_PNS_11__tree_nodeIS3_PvEEiEERKT_
$Rk:__ZNK15dense_hashtableINSt3__24pairIK10KeyWrapperIP11Il2CppClassES4_EES5_N6il2cpp8metadata16SZArrayClassHashEN14dense_hash_mapIS5_S4_SA_NS9_19SZArrayClassCompareENS0_9allocatorIS7_EEE9SelectKeyESC_SE_E10test_emptyERK24dense_hashtable_iteratorIS7_S5_SA_SG_SC_SE_E
QRa:__ZZ23InitPlayerLoopCallbacksvEN33PostLateUpdateInputEndFramestruct7ForwardEv
Hwj:_AnimationEvent_get_objectReferenceParameter_m3565420672
vqk:_GenericEqualityComparer_1_Equals_m1934771410_gshared
A1h:__ZL57DebuggingModes_t2073970606_CustomAttributesCacheGeneratorP21CustomAttributesCache
BLg:__ZN16VirtFuncInvoker0IP12MethodInfo_tE6InvokeEjPv
lJb:__ZN24RingBufferMemoryFileDataD0Ev
t$f:_Collection_1_System_Collections_IList_get_IsFixedSize_m993584401_gshared
xHb:__ZNSt3__26vectorIN30RuntimeInitializeOnLoadManager15ClassMethodInfoE13stl_allocatorIS2_L18MemLabelIdentifier12ELi16EEE8__appendEj
MBd:__ZN5physx6shdfnd8internal8HashBaseIPNS_13NpVolumeCacheES4_NS0_4HashIS4_EENS1_11HashSetBaseIS4_S6_NS0_9AllocatorELb0EE6GetKeyES8_Lb0EE15reserveInternalEj
jZi:__Z84RuntimeInvoker_Il2CppObject_Il2CppObject_Il2CppObject_Il2CppObject_Int32_t2071877448PK10MethodInfoPvPS2_
Lal:__ZN6il2cpp2os6Memory12AlignedAllocEjj
wmd:__ZN5physx6shdfnd8internal8HashBaseIPKNS_6PxBaseES5_NS0_4HashIS5_EENS1_11HashSetBaseIS5_S7_NS0_9AllocatorELb0EE6GetKeyES9_Lb0EE6createERKS5_Rb
ESd:__ZN5physx28solveFrictionCoulombPreBlockEPKNS_23PxcSolverConstraintDescEjRNS_16PxcSolverContextE
maf:_Array_swap_TisPlayable_t3667545548_m817366036_gshared
xAh:_TypeBuilder_get_is_created_m736553860
KIj:_GameObject_set_layer_m2712461877
_1g:_RSAManaged__ctor_m1370411656
FUb:__Z18Transfer_BlittableI18StreamedBinaryReadILb0EELb1E10ColorRGBAfEvRK29SerializationCommandArgumentsR31RuntimeSerializationCommandInfo
E9d:__ZN5physx7Cooking19computeHullPolygonsERKNS_20PxSimpleTriangleMeshERNS_19PxAllocatorCallbackERjRPNS_6PxVec3ES6_RPjS6_RPNS_13PxHullPolygonE
Zfc:__ZL27GetComponentsImplementationILb0ELi0EEbR10GameObjectbRK17CompareParametersRK39GetComponentsImplementation_ReturnValue
nI:__ZN7mecanim9animation21BlendTreeNodeConstant8TransferI24GenerateTypeTreeTransferEEvRT_
cfj:_Raycast3DCallback_EndInvoke_m3234280377
B8:__Z18BuildScriptClassIdP11Il2CppClass
_6j:_BalancingGroup__ctor_m2474435406
did:__ZN5physx12NpConstraint12actorDeletedEPNS_12PxRigidActorE
dlg:_ColorTweenCallback__ctor_m3619686788
_9:__ZL16ReadTypeTreeImplILb0EEbR8TypeTreeRK16TypeTreeIteratorRPKhS6_i
vjj:__ZN18VirtActionInvoker1IfE6InvokeEjPvf
zJ:__ZN25RuntimeAnimatorControllerD2Ev
jif:_Byte_System_IConvertible_ToInt32_m1032609763_AdjustorThunk
$1b:__ZN9ShaderLab7ProgramD0Ev
P0c:__ZN5physx2Sc8ShapeSim18reinsertBroadPhaseEv
xak:_PKCS12_GetSymmetricAlgorithm_m3196291685
uAa:__ZN9GfxDevice15BeginFrameStatsEv
Sjc:__Z42Register_UnityEngine_RectOffset_set_bottomv
Elf:_ArrayListWrapper_IndexOf_m3574835167
ugd:__ZN5physx2Sc5Scene11removeShapeERNS0_8ShapeSimEb
Z3a:__ZN28LightProbeProxyVolumeContext8CopyFromERKS_
Iik:_Texture_Internal_GetHeight_m2775530157
_ig:_U3COnFinishSubmitU3Ec__Iterator0_System_Collections_Generic_IEnumeratorU3CobjectU3E_get_Current_m1823105495
Zaa:__ZN23TransformChangeDispatch32QueueTransformChangeIfHasChangedER18TransformHierarchy
SNe:_SymmetricAlgorithm_get_FeedbackSize_m544664262
ILk:__ZNK15dense_hashtableINSt3__24pairIK10KeyWrapperINS1_IPK12PropertyInfoP11Il2CppClassEEEjEES9_17ReflectionMapHashIS8_EN14dense_hash_mapIS9_jSD_19ReflectionMapEqualsIS8_ENS0_9allocatorISB_EEE9SelectKeyESG_SI_E5beginEv
E2a:__ZN18DeferredRenderLoop15RenderFinalPassEP13RenderTextureS1_
Mgl:__ZNSt3__213basic_ostreamIcNS_11char_traitsIcEEE6sentryD2Ev
IHa:__ZN7ApiGLES18DeleteRenderbufferERj
z4c:__ZN5physx6shdfnd5ArrayIPvNS0_15InlineAllocatorILj256ENS0_19ReflectionAllocatorINS_16NpConnectorArrayEEEEEE15growAndPushBackERKS2_
AGa:__ZL23ProgramUniformMatrix4fvPK7ApiGLESjiihPKv
_ai:__ZL67ThreadInterruptedException_t63303933_CustomAttributesCacheGeneratorP21CustomAttributesCache
lWd:__ZN5physx14SingleAABBTaskC2Ev
ISj:_InternalEnumerator_1_MoveNext_m3629145604_gshared
n_b:__ZN9ShaderLab20SerializedSubProgram15MatrixParameter8TransferI14SafeBinaryReadEEvRT_
jgf:_BitConverter_AmILittleEndian_m2716658112
$fc:__ZL27GetComponentsImplementationILb0ELi1EEbR10GameObjectbRK17CompareParametersRK39GetComponentsImplementation_ReturnValue
Pwe:_Round_Down_To_Grid
Tmj:_UTF8Decoder__ctor_m1460357288
eja:__ZN13RenderTexture7ReleaseEv
R4j:_PatternCompiler_EmitBranchEnd_m3390109636
Wrf:_Convert_ToByte_m1201588964
lQc:__ZNK5physx2Cm23FastVertex2ShapeScaling20transformQueryBoundsERNS_6PxVec3ES3_RNS_7PxMat33E
Ehc:__Z36AsyncOperation_Get_Custom_PropIsDoneP12Il2CppObject
uKa:__ZN22CreateGpuProgramOutput12CreateParamsEv
luh:_RuntimeMethodHandle_GetHashCode_m2682236001_AdjustorThunk
UXk:__ZN15dense_hashtableI10KeyWrapperIP18Il2CppGenericClassES3_N6il2cpp8metadata22Il2CppGenericClassHashEN14dense_hash_setIS3_S6_NS5_25Il2CppGenericClassCompareENSt3__29allocatorIS3_EEE8IdentityES8_SB_E12expand_arrayEjN21dense_hash_map_traits17integral_constantIbLb0EEE
Wed:__ZNK5physx18NpArticulationLink11getChildrenEPPNS_18PxArticulationLinkEj
w_j:_ActivationServices_AllocateUninitializedClassInstance_m3410698501
wPk:__ZNSt3__26vectorIiNS_9allocatorIiEEE21__push_back_slow_pathIiEEvOT_
zCa:__ZNK14GfxContextGLES13GetDefaultFBOEv
c4k:_GC_promote_black_lists
y$e:_Array_InternalArray__ICollection_Remove_TisSByte_t454417549_m2474211570_gshared
rrg:_Image_AddQuad_m1600600902
G2d:__Z15atomIntegrationfPKPN5physx11PxsBodyCoreEPKPNS_12PxsRigidBodyEjPKNS_2Cm13SpatialVectorEPNS_13PxcSolverBodyEPNS_17PxcSolverBodyDataEPS9_RjSH_
Kse:_ps_hints_t1stem3
RAd:__ZN5physx13NpRigidStatic11createShapeERKNS_10PxGeometryEPKPNS_10PxMaterialEtNS_7PxFlagsINS_11PxShapeFlag4EnumEhEE
Twb:__ZN18StreamedBinaryReadILb1EE21TransferSTLStyleArrayI13dynamic_arrayI12SpriteVertexLj4EEEEvRT_17TransferMetaFlags
bHk:_il2cpp_class_is_enum
Wbh:_AuthorityKeyIdentifierExtension_get_Identifier_m3535568551
Rcf:_GameObject_AddComponent_TisIl2CppObject_m3813873105_gshared
ela:__ZNSt3__23mapIN9ShaderLab16FastPropertyNameEN18UnityPropertySheet11UnityTexEnvENS_4lessIS2_EENS_9allocatorINS_4pairIKS2_S4_EEEEEixERS9_
zDg:_IntPtr_ToString_m428195821_AdjustorThunk
B8c:__ZN5physx11NpAggregate22removeActorAndReinsertERNS_7PxActorEb
gae:__ZZL19ExtractHullPolygonsRjRN5physx2Gu9ContainerERKNS0_17ConvexHullBuilderEPS2_S3_EN5Local9FloodFillES3_PKNS0_11AdjTriangleEjPb
_$f:_Collection_1_System_Collections_IList_Contains_m1897568526_gshared
QCh:_FieldBuilder_get_FieldType_m2267463269
Eff:_SimpleEnumerator_Clone_m3032847657
L4j:_PatternCompiler_EmitInfo_m597931026
ZBk:__ZN6il2cpp2vm13MetadataCache34GetTypeInfoFromTypeDefinitionIndexEi
k$g:_ModulusRing_Multiply_m3113924743
fpc:__Z47Texture2D_CUSTOM_INTERNAL_CALL_GetPixelBilinearP12Il2CppObjectffR10ColorRGBAf
a6g:_Context_get_ServerSettings_m225713600
gj:_emscripten_glVertexAttrib4f
oIf:_Enumerator_System_Collections_IEnumerator_get_Current_m3461301268_AdjustorThunk
igk:_InvokableCall_1_remove_Delegate_m3576859071_gshared
k4f:_ReadOnlyCollection_1_System_Collections_IEnumerable_GetEnumerator_m531171980_gshared
Yie:__ZL28RegisterModuleICalls_Physicsv
A1b:__ZNSt3__26vectorIN20GpuProgramParameters14ConstantBufferENS_9allocatorIS2_EEE8__appendEj
O9e:_Array_Sort_TisUILineInfo_t3621277874_m3105833015_gshared
qGb:__ZN15ResourceManager23VirtualRedirectTransferER18StreamedBinaryReadILb1EE
Fo:FUNCTION_TABLE_vf
hNg:_MonoType_GetGenericArguments_m2708198481
IZa:__ZN11HaloManager21ReleaseGeometryJobMemEP25DynamicVBOGeometryJobData
NKf:_List_1_AddEnumerable_m2489692396_gshared
jbd:__ZN5physx14NpArticulation26setMaxProjectionIterationsEj
l_c:__ZN5physx3Cct15ObstacleContext14removeObstacleEj
oli:__ZL93TextGenerator_t647235000_CustomAttributesCacheGenerator_TextGenerator_Dispose_cpp_m1755131202P21CustomAttributesCache
_lk:_WaitForSecondsRealtime__ctor_m1734539010
lnj:_WaitHandle__ctor_m1256161634
qA:__ZN7mecanim12statemachine24CreateStateMachineMemoryEPKNS0_20StateMachineConstantERNS_6memory9AllocatorE
zAa:__ZN9GfxDevice18SetGlobalDepthBiasEff
t1j:_Identity_get_ChannelSink_m3989446673
WEk:__ZN6il2cpp6icalls8mscorlib6System8MonoType12get_AssemblyEP20Il2CppReflectionType
yhg:__ZN16VirtFuncInvoker3IP25AxisEventData_t1524870173fffE6InvokeEjPvfff
Wng:_FontData_get_richText_m2013560754
HRe:_SecurityException_get_PermissionType_m3543350822
tj:_emscripten_glGetPointerv
MHj:_GenericMixerPlayable_Destroy_m3608330239_AdjustorThunk
qyd:__ZNK5physx15NpActorTemplateINS_14PxRigidDynamicEE13getActorFlagsEv
BE:__ZN8Animator22ApplyBuiltinRootMotionEv
iee:__ZN5physx7profile8ZoneImplINS_28PxProfileNameProviderForwardEE17handleBufferFlushEPKhj
fjl:__ZNKSt3__28time_getIcNS_19istreambuf_iteratorIcNS_11char_traitsIcEEEEE11do_get_yearES4_S4_RNS_8ios_baseERjP2tm
y8c:__ZN5physx2Sc5ActorC2ERNS0_16InteractionSceneEhNS0_14IslandNodeInfo4TypeE
RJe:_RandomNumberGenerator_Create_m2275686895
htd:__ZN5physx15NpActorTemplateINS_7PxClothEED2Ev
C2h:__ZL55StreamReader_t2360341767_CustomAttributesCacheGeneratorP21CustomAttributesCache
CBh:_DerivedType_get_UnderlyingSystemType_m3904230233
xfg:_PointerEventData_get_rawPointerPress_m448871540
$Ri:__Z135RuntimeInvoker_IntPtr_t_Il2CppObject_Int32_t2071877448_Int32_t2071877448_Int32_t2071877448_Int32_t2071877448_MonoIOErrorU26_t1029615899PK10MethodInfoPvPS2_
Mrd:__ZN5physx2Sc9ClothCore16setRestPositionsEPKNS_6PxVec4E
nsc:__ZN5IMGUI14GUIWindowStateD2Ev
eeb:__ZL13MotionHandleriPK27EmscriptenDeviceMotionEventPv
bjh:_X509Certificate2Collection__ctor_m819526826
iub:__ZN8Renderer10SetVisibleEb
RN:__ZN12AudioManager5ResetEv
Pwk:__ZNK15dense_hashtableINSt3__24pairIK10KeyWrapperIPK22Il2CppGenericParameterEP11Il2CppClassEES6_N6il2cpp5utils11PointerHashIS4_EEN14dense_hash_mapIS6_S9_SE_NS0_8equal_toIS6_EENS0_9allocatorISA_EEE9SelectKeyESH_SJ_E12test_deletedEj
B0g:_KeyBuilder_Key_m3814433741
c_g:_ArgumentException__ctor_m158205422
h2e:_Array_compare_TisVector3_t2243707580_m3709184876_gshared
qqg:_HorizontalLayoutGroup_SetLayoutHorizontal_m3237355818
Qpa:__ZN6prcoreL17RemapGenericFloatI17TexFormatRGBAHalf15TexFormatRGHalfEEvPKNS_9InnerInfoE
d1k:__ZN6il2cpp6icalls8mscorlib6System11Environment20GetWindowsFolderPathEi
Dui:__ZL60AspectRatioFitter_t3114550109_CustomAttributesCacheGeneratorP21CustomAttributesCache
Kz:__ZN7mecanim5human18HumanPoseBlendNodeERNS0_9HumanPoseEPS1_f
Fse:_UNITY_FT_RoundFix
J1b:__ZN9ShaderLab20SerializedSubProgram15AddTextureParamEPKcii16TextureDimension
Yw:__ZNK8Animator26GetTypeInfoVirtualInternalEv
nW:__ZN23CloudWebServicesManager23VirtualRedirectTransferER17RemapPPtrTransfer
Ysi:__ZL78MaskableGraphic_t540192618_CustomAttributesCacheGenerator_m_OnCullStateChangedP21CustomAttributesCache
XSc:__ZNK5physx2Gu15HeightFieldUtil12traceSegmentI24ConvexVsHeightfieldSweepLb0ELb0ELb1EEEvRKNS_6PxVec3ES6_PT_PS5_
PIb:__Z23AppendPathNameExtensionRKNSt3__212basic_stringIcNS_11char_traitsIcEENS_9allocatorIcEEEES7_
R6d:__ZNK5physx12PxConvexMesh19getConcreteTypeNameEv
wTc:__ZN5physx2Gu19gjkLocalPenetrationINS0_9TriangleVENS0_17ShrunkConvexHullVEEEjRKT_RKT0_RKNS_6shdfnd3aos6FloatVERNSB_5Vec3VESG_SG_RSC_PhSI_Rhb
Tsk:__ZL24UnresolvedVirtualCall_63P12Il2CppObjectS0_S0_S0_PK10MethodInfo
CQ:__ZN4FMOD6System17setSoftwareFormatEi17FMOD_SOUND_FORMATii18FMOD_DSP_RESAMPLER
cVc:__ZN5physx2Gu15GJKLocalRayCastERNS0_9TriangleVERNS0_4BoxVERKNS_6shdfnd3aos6FloatVERKNS6_5Vec3VESC_RS7_RSA_SE_fb
tae:__ZN5physx18AdjacenciesBuilderC2Ev
ZRh:_Dictionary_2_System_Collections_ICollection_get_IsSynchronized_m960517203_gshared
N0c:__ZN5physx2Sc13ShapeIterator4initERKNS0_8ActorSimE
fel:_write
Z4k:_GC_set_mark_bit
Wrj:_Type_MakeByRefType_m1323101575
JAe:__ZN2UI6Canvas27UpdateEventIndexesRecursiveERi
ny:__ZN7mecanim9animation18EvaluateRootMotionERKNS0_18ClipMuscleConstantERKNS0_15ClipMuscleInputEPKfS8_RNS0_12MotionOutputEb
Dsg:_InputField_set_characterLimit_m4114734597
Goe:_UNITY_FT_Outline_New
k2k:__ZNSt3__218uninitialized_copyIPNS_4pairIK10KeyWrapperIPK19Il2CppGenericMethodEP10MethodInfoEESB_EET0_T_SD_SC_
_Vh:_EqualityComparer_1_System_Collections_IEqualityComparer_Equals_m1738053269_gshared
u_f:_Collection_1__ctor_m1566657168_gshared
FTb:__Z19TransferField_ArrayI19StreamedBinaryWriteILb0EE27Converter_SimpleNativeClassI8GUIStyleEEvRK23StaticTransferFieldInfoR31RuntimeSerializationCommandInfoRT0_
KIe:__ZN18VirtActionInvoker1IP22ByteU5BU5D_t3397334013E6InvokeEjPvS1_
ogj:_Scrollbar_SetDirection_m3264558284
Mmd:__ZN5physx14NpArticulationC2Ev
Ryl:_emscripten_glCopyTexSubImage2D__wrapper
h0:__ZNK13ScreenManager12GetIsFocusedEv
oui:__ZL70SpriteState_t1353336012_CustomAttributesCacheGenerator_m_PressedSpriteP21CustomAttributesCache
fqh:_RemotingServices_RegisterInternalChannels_m1827304423
_yi:_GUIStyle_get_onNormal_m1675201777
Qr:__ZL32CleanupAnimationScriptingClassesv
t0f:__ZN23InterfaceActionInvoker2Ii22UILineInfo_t3621277874E6InvokeEjP11Il2CppClassPviS0_
FDk:__ZNSt3__213__vector_baseIN6il2cpp2os19SocketHandleWrapperENS_9allocatorIS3_EEED2Ev
FSg:_ASN1_get_Length_m3359111015
pyi:_GUISkin_get_verticalScrollbarThumb_m649633186
bBi:_GUIStyleState_Cleanup_m705006206
Ac:invoke_viiffi
coj:_Thread_GetCachedCurrentUICulture_m5590127
Ppb:__ZNK12CubemapArray20GetRuntimeMemorySizeEv
hlk:_Vector3_Dot_m3161182818
RLa:__ZN9GfxDevice5FlushEv
f$b:__Z14resize_trimmedINSt3__26vectorIN9ShaderLab18SerializedPropertyENS0_9allocatorIS3_EEEEEvRT_j
qUf:_List_1_CheckMatch_m4018158235_gshared
V6i:__Z91RuntimeInvoker_Int32_t2071877448_UICharInfo_t3056636800_UICharInfo_t3056636800_Il2CppObjectPK10MethodInfoPvPS2_
_Dd:__ZN5physx6shdfnd8PoolBaseINS_2Sc9ActorPairENS0_19ReflectionAllocatorIS3_EEE12allocateSlabEv
RTi:__Z89RuntimeInvoker_Boolean_t3825574718_Il2CppObject_Il2CppObject_StreamingContext_t1417235061PK10MethodInfoPvPS2_
Yhf:_Byte_System_IConvertible_ToDateTime_m1583041031
Jfa:__ZNSt3__26__treeINS_12__value_typeINS_12basic_stringIcNS_11char_traitsIcEENS_9allocatorIcEEEEiEENS_19__map_value_compareIS7_S8_NS_4lessIS7_EELb1EEENS5_IS8_EEE4findIS7_EENS_15__tree_iteratorIS8_PNS_11__tree_nodeIS8_PvEEiEERKT_
Ysk:__ZL24UnresolvedVirtualCall_68P12Il2CppObjectS0_iS0_S0_S0_S0_S0_S0_PK10MethodInfo
hAb:__ZN10VertexData8TransferI24GenerateTypeTreeTransferEEvRT_
R1k:__ZN13Il2CppHashMapIPK19Il2CppGenericMethodP10MethodInfoN6il2cpp8metadata23Il2CppGenericMethodHashENS6_26Il2CppGenericMethodCompareENSt3__29allocatorINS9_4pairIK10KeyWrapperIS2_ES4_EEEEEC2EjRKS7_RKS8_
yWg:_EncryptedData_get_EncryptionAlgorithm_m1301274243
eji:__ZL68DrivenTransformProperties_t2488747555_CustomAttributesCacheGeneratorP21CustomAttributesCache
dVa:__ZL10CullLightsRK22SceneCullingParametersR11CullResults
rng:_Dropdown__cctor_m264401557
iDi:_Mathf_Clamp_m3542052159
Xef:_Array_IndexOf_m2819632474
rXj:_Comparer_1__cctor_m3996541505_gshared
lA:__ZN7mecanim12statemachine20GetBlendTreeConstantERKNS0_13StateConstantEi
bFd:__ZN5physx7NpScene21setDominanceGroupPairEhhRKNS_20PxDominanceGroupPairE
Fac:__Z40GetTemporaryCachePathApplicationSpecificv
Oya:__ZN9GfxDevice16EndAsyncJobFrameEv
yrg:_Image_get_minWidth_m1809071077
mml:__ZNKSt3__27codecvtIcc11__mbstate_tE11do_encodingEv
Ape:_UNITY_tt_face_load_hhea
hJb:__ZN24RingBufferMemoryFileData11SetGrowableEb
fFj:_PersistentCall__ctor_m2079279187
urf:_Convert_ToBase64String_m1936815455
ol:___syscall3
Twd:__ZNK5physx15NpActorTemplateINS_16PxParticleSystemEE7getNameEv
rl:___syscall6
$za:__ZN9GfxDevice15GetNextCPUFenceEv
tl:___syscall4
nAf:_Decimal_ToString_m759431975
R0f:_Collection_1_System_Collections_IList_get_IsFixedSize_m2204750039_gshared
Ghe:__ZN8Collider7PRODUCEE18MemLabelIdentifier18ObjectCreationMode
Vtk:__ZL25UnresolvedVirtualCall_119P12Il2CppObjectiaPK10MethodInfo
Zig:_ColorBlock_get_fadeDuration_m987725262
Qsi:__ZL195U3CMouseDragOutsideRectU3Ec__Iterator1_t2599668326_CustomAttributesCacheGenerator_U3CMouseDragOutsideRectU3Ec__Iterator1_System_Collections_Generic_IEnumeratorU3CobjectU3E_get_Current_m2602955272P21CustomAttributesCache
qZk:__ZN6il2cpp2vm3RCW14QueryInterfaceILb1EEEP14Il2CppIUnknownP15Il2CppComObjectRK10Il2CppGuid
VJc:__ZNSt3__26__sortIR24RayHitsByDepthComparitorP12RaycastHit2DEEvT0_S5_T_
_Mi:__Z59RuntimeInvoker_UnicodeCategory_t682236799_Int16_t4041245914PK10MethodInfoPvPS2_
BNf:_List_1_AddCollection_m3266731889_gshared
U6h:__ZL59ITrackingHandler_t2759960940_CustomAttributesCacheGeneratorP21CustomAttributesCache
Jl:_emscripten_glShaderBinary
Boj:_DelegatePInvokeWrapper_ThreadStart_t3437517264
B8e:_Array_qsort_TisVector2_t2243707579_TisVector2_t2243707579_m3308480721_gshared
_df:_Array_InternalArray__RemoveAt_m1126483634
k1:__ZNK20LocalFileSystemPosix6ExistsERK13FileEntryData
JPj:_InternalEnumerator_1_Dispose_m4038440306_AdjustorThunk
h6i:__Z50RuntimeInvoker_Void_t1841601450_Color32_t874517518PK10MethodInfoPvPS2_
E6c:__ZN5physx35NpArticulationJointGetBodiesFromScbERNS_3Scb17ArticulationJointERPNS0_4BodyES5_
i1j:_SynchronizationAttribute_ReleaseLock_m2873780842
aAf:_DivideByZeroException__ctor_m280382972
k6d:__ZNK5physx2Sc15ClothFabricCore16getTetherLengthsEPfj
zpi:__ZL114PointerEventData_t1599784723_CustomAttributesCacheGenerator_PointerEventData_get_pointerCurrentRaycast_m1374279130P21CustomAttributesCache
eEi:_Mesh_get_colors32_m4153271224
lLc:__ZNK17Physics2DSettings26GetTypeInfoVirtualInternalEv
bEe:__Z58Register_UnityEngine_Canvas_GetETC1SupportedCanvasMaterialv
gGi:_Physics2D_INTERNAL_CALL_GetRayIntersectionAll_m161475998
Qu:__ZN17AnimationCurveTplIfE8TransferI18StreamedBinaryReadILb1EEEEvRT_
xyf:_DateTimeOffset_GetHashCode_m3312197462_AdjustorThunk
WFe:__ZN18UnityConnectClientD2Ev
tfh:_ServicePoint_set_UseNagleAlgorithm_m2618011464
osg:_InputField_get_textComponent_m2074509413
uGk:_il2cpp_set_data_dir
TJd:__ZN5physx2Sc13ConstraintSim8getForceERNS_6PxVec3ES3_
L8j:_Uri_get_IsUnc_m2111738174
Sib:__ZN16LevelGameManager23VirtualRedirectTransferER19StreamedBinaryWriteILb0EE
Hzb:__Z32TransferEnumWithNameForceIntSizeI14SafeBinaryRead16GfxPrimitiveTypeEvRT_RT0_PKc17TransferMetaFlags
VVj:_DefaultComparer__ctor_m1961329658_gshared
oFh:_ParameterBuilder_get_Attributes_m2421099277
mjk:_TouchScreenKeyboard_get_done_m406461410
YKi:_DataUtility_INTERNAL_CALL_GetPadding_m1621366113
grb:__ZN18StreamedBinaryReadILb1EE21TransferResourceImageE19ActiveResourceImagePKcR13StreamingInfoPvj
Vxi:_GUISkin_get_toggle_m4153935270
LOc:__ZN5physx15PxGeometryQuery18computePenetrationERNS_6PxVec3ERfRKNS_10PxGeometryERKNS_11PxTransformES6_S9_
hFe:__ZN11UnityEngine15PlatformWrapper30GetGraphicsDriverLibraryStringEv
cMh:_Enumerator_VerifyState_m262343092_AdjustorThunk
qie:__ZN5Unity12PhysicsQueryC2Ev
bOf:_List_1_get_Count_m1752597149_gshared
K1g:_EncryptedPrivateKeyInfo_Decode_m1706190306
sPh:_ValueCollection_GetEnumerator_m401908452_gshared
UTb:__Z18Transfer_BlittableI18StreamedBinaryReadILb0EELb0E4AABBEvRK29SerializationCommandArgumentsR31RuntimeSerializationCommandInfo
aHc:__ZNSt3__227__insertion_sort_incompleteIR26ColliderIdentityComparitorPP10Collider2DEEbT0_S6_T_
o0d:__ZN5physx10PxsContext13updateIslandsEfPNS_10PxBaseTaskE
XCj:_ControllerColliderHit_t4070855101_marshal_pinvoke
Bvf:_Convert_ToUInt16_m1665900934
Pbg:_Converter_2_BeginInvoke_m898151494_gshared
WVi:__Z52RuntimeInvoker_UInt32_t2149682021_Double_t4078015681PK10MethodInfoPvPS2_
B4a:__Z14DrawGUITextureRK5RectTIfEP7Texture11ColorRGBA32P8Materiali
rkj:_Text_get_supportRichText_m3291105891
YIi:_RectTransform_GetParentSize_m1571597933
ED:__ZN9BlobWrite8TransferI22OffsetPtrArrayTransferIKN4math7_float4EEEEvRT_PKc17TransferMetaFlags
C9f:_ReadOnlyCollection_1_get_Count_m336636247_gshared
LCc:__ZNK11b2EdgeShape7RayCastEP15b2RayCastOutputRK14b2RayCastInputRK11b2Transformi
iHj:_Playables_GetInputWeightValidated_m2453142047
DOi:__Z52RuntimeInvoker_Decimal_t724701077_Double_t4078015681PK10MethodInfoPvPS2_
V3j:_MatchCollection_GetEnumerator_m3516985966
cAc:__ZN9JSONWrite8TransferI4AABBEEvRT_PKc17TransferMetaFlags
amj:_UTF7Encoding__ctor_m2365939916
bPa:__ZN25MultiBlocksMemoryFileData9SetLengthEy
mT:__Z30GetAudioSpatializerDefinitionsR13dynamic_arrayIP29AudioEffectInternalDefinitionLj4EE
Xhk:_TextGenerationSettings_Equals_m3944651893_AdjustorThunk
idj:_MatEntry__ctor_m3650167335
A3i:__Z143RuntimeInvoker_Void_t1841601450_Il2CppObject_Vector2_t2243707579_Vector2_t2243707579_Color32_t874517518_Vector2_t2243707579_Vector2_t2243707579PK10MethodInfoPvPS2_
r3d:__ZNK18ScBeforeSolverTask7getNameEv
eHc:__ZN10Collider2D13AwakeFromLoadE17AwakeFromLoadMode
sqb:__ZNK9Texture2D20GetRuntimeMemorySizeEv
asj:_TypeInitializationException__ctor_m2993591639
BSd:__ZN5physx14solve1D4_BlockEPKNS_23PxcSolverConstraintDescEjRNS_16PxcSolverContextE
yVh:_EqualityComparer_1__ctor_m3788663378_gshared
Rm:_emscripten_glUniform2iv
i8h:__ZL46DES_t1353513560_CustomAttributesCacheGeneratorP21CustomAttributesCache
iPc:__ZL33GeomMTDCallback_ConvexHeightFieldRN5physx6PxVec3ERfRKNS_10PxGeometryERKNS_11PxTransformES5_S8_
Aci:__ZL79Convert_t2607082565_CustomAttributesCacheGenerator_Convert_ToSingle_m2156102599P21CustomAttributesCache
Ale:_UNITY_FT_Outline_Transform
Jyi:_SkinChangedDelegate_BeginInvoke_m4259161711
$oc:__Z60Register_UnityEngine_Sprites_DataUtility_Internal_GetMinSizev
Gxk:__ZN6il2cpp2vm5Class10GetMethodsEP11Il2CppClassPPv
kHi:_Rect_get_x_m1393582490_AdjustorThunk
a$h:__ZL65Il2CppArray_CustomAttributesCacheGenerator_Array_Sort_m3500510484P21CustomAttributesCache
JQe:_Hash_GetObjectData_m315532943
XCa:__ZN7ApiGLES17DeleteFramebufferERN2gl6HandleILNS0_10ObjectTypeE9EEES3_
txk:__ZN13dynamic_arrayIP11Il2CppClassLj4EE7reserveEj
uJa:__ZN15UniformTFMethod13MapBoneBufferEj
Y4g:_RecordProtocol_SendAlert_m2816808523
Jze:__ZN2UI14CanvasRendererD2Ev
jQj:_InternalEnumerator_1_get_Current_m3296972783_gshared
IXd:__ZN5physx26PxcPCMContactCapsuleConvexERKNS_2Gu13GeometryUnionES3_RKNS_11PxTransformES6_RKfRNS_10PxcNpCacheERNS0_13ContactBufferE
dAf:_Decimal_CompareTo_m2454501434
uJg:_SynchronizedReader_Read_m1399666181
GHh:_MonoEvent_get_Name_m2796714646
Rea:__Z9SetupArgviPPKc
t1e:_Array_InternalArray__IEnumerable_GetEnumerator_TisHitInfo_t1761367055_m2486283755_gshared
MBc:__ZN9rapidjson13GenericReaderINS_4UTF8IcEES2_13JSONAllocatorE11ParseObjectILj0ENS_19GenericStringStreamIS2_EENS_15GenericDocumentIS2_S3_S3_EEEEvRT0_RT1_
Shf:_Convert_ToBoolean_m2032547942
Jmg:_OptionData__ctor_m743450704
e6g:_Context_get_SentConnectionEnd_m3114190867
C9c:__ZN5physx10PxsContext17addParticleSystemEPNS_15PxsParticleDataERKNS_26PxvParticleSystemParameterEb
y7c:__ZN5physx3Scb5Scene13addRigidNoSimINS0_4BodyELb1ELb1EEEvRT_RNS0_13ObjectTrackerE
Ejb:__ZN12ImmediatePtrI10GameObjectE8TransferI19StreamedBinaryWriteILb0EEEEvRT_
Tpb:__ZN12CubemapArray23VirtualRedirectTransferER24GenerateTypeTreeTransfer
esk:__ZL24UnresolvedVirtualCall_22P12Il2CppObjectS0_iS0_S0_S0_PK10MethodInfo
Caa:__ZN12FileAccessor4OpenER15FileSystemEntry14FilePermission16FileAutoBehavior
f3k:__ZN6il2cpp2os9Directory6CreateERKNSt3__212basic_stringIcNS2_11char_traitsIcEENS2_9allocatorIcEEEEPi
rma:__ZN4PPtrI6ShaderE8TransferI18StreamedBinaryReadILb0EEEEvRT_
uUc:__ZL19sweepBoxVsTrianglesjPKN5physx10PxTriangleERKNS_2Gu3BoxERKNS_6PxVec3EfRNS_10PxSweepHitENS_7PxFlagsINS_9PxHitFlag4EnumEtEEbPKj
svk:__ZL25UnresolvedVirtualCall_198P12Il2CppObject23SpriteState_t1353336012PK10MethodInfo
pfg:_PointerEventData_set_clickTime_m3931922487
kJj:_WindowFunction__ctor_m977095815
Ywg:_NumberFormatter_AppendNonNegativeNumber_m629862866
hna:__ZNSt3__26vectorINS_4pairIN9ShaderLab16FastPropertyNameEN18UnityPropertySheet11UnityTexEnvEEENS_9allocatorIS6_EEE21__push_back_slow_pathIKS6_EEvRT_
EQa:__ZN15ArchiveReadFile5WriteEyPKvPy
uYj:_ResourceInfo__ctor_m2401359321_AdjustorThunk
Aof:_Hashtable__ctor_m392789568
Nnj:_Mutex_CreateMutex_internal_m2352956576
bmj:_UTF7Encoding__cctor_m4192443836
K$i:__Z73RuntimeInvoker_Boolean_t3825574718_Playable_t3667545548_Int32_t2071877448PK10MethodInfoPvPS2_
Eea:__ZN13RuntimeStaticI15ApplicationInfoE13StaticDestroyEPv
luc:__Z31GUIStyle_CUSTOM_SetFontInternalP12Il2CppObjectS0_
A:tempValue
sbb:__Z29StdTemplateConversionFunctionIaiEbPvR14SafeBinaryRead
cbl:__ZN6il2cpp8metadata24Il2CppGenericContextHash4HashEPK20Il2CppGenericContext
evb:__ZN15QualitySettings8TransferI18StreamedBinaryReadILb1EEEEvRT_
rAg:_Int16_System_IConvertible_ToSingle_m3277935657
D6:__Z29scripting_class_from_fullnamePKcS0_S0_
Rgg:_StandaloneInputModule_get_inputMode_m1415645893
wIc:__ZN10Collider2D23VirtualRedirectTransferER18StreamedBinaryReadILb1EE
tK:__ZZN8Animator15InitializeClassEvEN32FunctorImpl_386kTransformChanged4CallEPviR11MessageData
kii:__ZL97GameObject_t1756533147_CustomAttributesCacheGenerator_GameObject_GetComponentInParent_m1235194528P21CustomAttributesCache
afj:_Raycast3DCallback_Invoke_m2271859924
Pri:__ZL98Graphic_t2426225576_CustomAttributesCacheGenerator_Graphic_set_useLegacyMeshGeneration_m3023904722P21CustomAttributesCache
rPc:__ZN5physx2Gu29ConvexVsMeshContactGeneration20generateLastContactsEv
k4c:__ZNK5physx2Gu22SupportMapRelativeImplINS0_4BoxVEE14doSupportSweepERKNS_6shdfnd3aos5Vec3VE
Ejl:__ZNSt3__220__get_up_to_n_digitsIcNS_19istreambuf_iteratorIcNS_11char_traitsIcEEEEEEiRT0_S5_RjRKNS_5ctypeIT_EEi
qT:__ZN11AudioSource19CreateOpenALRolloffEfff
nqe:_UNITY_FT_Stream_ReadAt
sji:__ZL111Object_t1021602117_CustomAttributesCacheGenerator_Object_DestroyImmediate_m3563317232____allowDestroyingAssets1P21CustomAttributesCache
E1i:__Z132RuntimeInvoker_Void_t1841601450_Rect_t3681755626_Il2CppObject_Int32_t2071877448_Int32_t2071877448_Int32_t2071877448_SByte_t454417549PK10MethodInfoPvPS2_
Nud:__ZN5physx2Sc17ParticleSystemSim16getParticleStateEv
x2d:__ZN5physx6shdfnd5ArrayINS_25PxsCompoundContactManagerENS0_19ReflectionAllocatorIS2_EEE8recreateEj
Bzi:_GUIStyle_get_lineHeight_m2132859383
KTb:__Z46EmitSerializationCommandsForManagedObjectFieldI18StreamedBinaryReadILb0EEEvRK18TransferField_InfoR32SerializationCommandQueueBuilderRP20AllowNameConversions
i7i:__Z102RuntimeInvoker_Int32_t2071877448_Il2CppObject_UIVertex_t1204258818_Int32_t2071877448_Int32_t2071877448PK10MethodInfoPvPS2_
Gki:__ZL82Physics2D_t2540166467_CustomAttributesCacheGenerator_Physics2D_Raycast_m1220041042P21CustomAttributesCache
P5f:_ReadOnlyCollection_1_System_Collections_Generic_IListU3CTU3E_RemoveAt_m2137782652_gshared
DFj:_UnityEvent_FindMethod_Impl_m3303953986
nj:_glReadBuffer
fsj:_UInt16_System_IConvertible_ToBoolean_m887616848
NJa:__Z26TransformVerticesInnerLoopILb1ELb1ELb1EEvPhRK10Matrix4x4fRK10Matrix3x3fjPKhiiiS8_ii25GfxTransformVerticesFlags
tVd:__ZN5physx14PxsAABBManagerC2ERNS_2Cm13EventProfilerERNS_19PxcScratchAllocatorE
qhi:__ZL120ScriptableObject_t1975622470_CustomAttributesCacheGenerator_ScriptableObject_Internal_CreateScriptableObject_m1778903390P21CustomAttributesCache
PU:__ZN11AudioModule22CreateAudioClipFromWWWEP10IWWWStreamPKcbbi
wMi:__Z142RuntimeInvoker_Boolean_t3825574718_Il2CppObject_Int32_t2071877448_Il2CppObject_SByte_t454417549_UInt32U26_t2197289955_ExceptionU26_t1467204777PK10MethodInfoPvPS2_
HYe:_StringBuilder_set_Length_m3039225444
L0f:_Collection_1_System_Collections_IList_Contains_m3870109702_gshared
I_e:_Array_InternalArray__ICollection_Contains_TisRaycastResult_t21186376_m3188614988_gshared
mwf:_CultureAwareComparer_GetHashCode_m3681260951
IBe:__Z13RegisterClassIN2UI11CanvasGroupEEvv
rnk:_U3CStartU3Ec__Iterator0__ctor_m951808111_gshared
Pf:_emscripten_glClear
jfj:_Selectable__ctor_m1440593935
C0a:__ZN15SHConstantCacheC2ER13BatchRendererR15RenderLoopStats
GPa:__ZN14dense_hash_mapINSt3__212basic_stringIcNS0_11char_traitsIcEE13stl_allocatorIcL18MemLabelIdentifier54ELi16EEEEP20ArchiveStorageReader11djb2_hash_tIS7_ENS0_8equal_toIS7_EES4_INS0_4pairIKS7_S9_EELS5_54ELi16EEE15set_deleted_keyERSF_
oPe:__ZNSt3__218basic_stringstreamIcNS_11char_traitsIcEENS_9allocatorIcEEED1Ev
K_h:__ZL65Il2CppArray_CustomAttributesCacheGenerator_Array_Clear_m782967417P21CustomAttributesCache
Bql:___cxa_guard_abort
Wzh:_CustomAttributeTypedArgument_t1498197914_marshal_pinvoke_back
R8:__ZN14MessageHandler28MessageIDToMessageIdentifierEi
ieh:_HttpRequestCreator_Create_m3607509610
Nli:__ZL50GUISkin_t1436893342_CustomAttributesCacheGeneratorP21CustomAttributesCache
Atk:__ZL24UnresolvedVirtualCall_98P12Il2CppObject8IntPtr_tPK10MethodInfo
rVf:_List_1_Shift_m3824049528_gshared
Uqh:_ArrayFixupRecord__ctor_m3659990982
q6g:_Context_get_RandomCS_m3946020109
GZh:__ZL72IntPtr_t_CustomAttributesCacheGenerator_IntPtr_op_Inequality_m3044532593P21CustomAttributesCache
zmg:_Dropdown_get_onValueChanged_m3334401942
Y7k:__ZN6il2cpp2vm10WaitHandle19NewManualResetEventEb
z6f:_ReadOnlyCollection_1_System_Collections_IList_Contains_m3707723158_gshared
SJk:__ZNK15dense_hashtableINSt3__24pairIK10KeyWrapperIPK10Il2CppTypeEjEES6_N6il2cpp8metadata14Il2CppTypeHashEN14dense_hash_mapIS6_jSB_NSA_17Il2CppTypeCompareENS0_9allocatorIS8_EEE9SelectKeyESD_SF_E10test_emptyERK30dense_hashtable_const_iteratorIS8_S6_SB_SH_SD_SF_E
yai:__ZL95UnicodeEncoding_t4081757012_CustomAttributesCacheGenerator_UnicodeEncoding_GetBytes_m1575298215P21CustomAttributesCache
uek:_Nullable_1_ToString_m1238126148_AdjustorThunk
ee:emscriptenWebGLGetUniform
np:FUNCTION_TABLE_iiiiiiiiiii
yWc:__ZN5physx2Gu19sweepCapsuleCapsuleERKNS0_7CapsuleES3_RKNS_6PxVec3EfRfRS4_S8_jRt
VQd:__ZN5physx2Gu29EPASupportMapPairRelativeImplINS0_9TriangleVENS0_11ConvexHullVEED0Ev
mua:__Z32TransferEnumWithNameForceIntSizeI14SafeBinaryRead13TextureFormatEvRT_RT0_PKc17TransferMetaFlags
qti:__ZL86Scrollbar_t3248359358_CustomAttributesCacheGenerator_Scrollbar_ClickRepeat_m3403943364P21CustomAttributesCache
kGj:_Playables_CheckInputBounds_m2953342617
cXa:__ZL10CleanUpJobP20CullingGroupsJobData
Ijf:_Char_CompareTo_m3044885427_AdjustorThunk
GRc:__ZN5physx2Gu22computeMTD_PlaneConvexERNS_6PxVec3ERfRKNS_7PxPlaneERKNS_20PxConvexMeshGeometryERKNS_11PxTransformE
o$a:__Z20IsRunningNativeTestsv
KRj:_InternalEnumerator_1_System_Collections_IEnumerator_get_Current_m2035754659_AdjustorThunk
K6d:__ZN5physx13BigConvexData4LoadERNS_13PxInputStreamE
u4a:__ZN13RenderManager15BatchModeUpdateEv
_Kk:__ZN15dense_hashtableINSt3__24pairIK10KeyWrapperINS1_IPK11Il2CppImageP11Il2CppClassEEEjEES9_17ReflectionMapHashIS8_EN14dense_hash_mapIS9_jSD_19ReflectionMapEqualsIS8_ENS0_9allocatorISB_EEE9SelectKeyESG_SI_E5clearEv
Sek:_Predicate_1_EndInvoke_m973058386_gshared
Jii:__ZL52LayerMask_t3188175821_CustomAttributesCacheGeneratorP21CustomAttributesCache
rdg:_RaycasterManager_RemoveRaycasters_m3465850111
kyb:__ZN14SafeBinaryRead21TransferSTLStyleArrayI13dynamic_arrayI8Vector2fLj4EEEEvRT_17TransferMetaFlags
cna:__ZN17PersistentManager51InstanceIDToLocalSerializedObjectIdentifierInternalEiR31LocalSerializedObjectIdentifier
bKh:_StrongNameKeyPair_System_Runtime_Serialization_IDeserializationCallback_OnDeserialization_m2330221363
Hgd:__ZN5physx2Sc8ActorSim24postDominanceGroupChangeEv
rWi:__Z116RuntimeInvoker_Boolean_t3825574718_Il2CppObject_Int32_t2071877448_Int32_t2071877448_Il2CppObject_Int32U26_t455636984PK10MethodInfoPvPS2_
Id:_glVertexAttribIPointer
wvj:_UnhandledExceptionEventHandler_EndInvoke_m2207457167
bJk:__ZN15dense_hashtableINSt3__24pairIK10KeyWrapperINS1_IPK9FieldInfoP11Il2CppClassEEEjEES9_17ReflectionMapHashIS8_EN14dense_hash_mapIS9_jSD_19ReflectionMapEqualsIS8_ENS0_9allocatorISB_EEE9SelectKeyESG_SI_EC2ERKSL_j
CPh:_Dictionary_2_System_Collections_ICollection_get_IsSynchronized_m304009368_gshared
oxh:_HMAC_set_HashName_m457235014
zhd:__ZN5physx2Cm8PtrTable5clearERNS0_22PtrTableStorageManagerE
oX:__ZNSt3__215basic_stringbufIcNS_11char_traitsIcEENS_9allocatorIcEEE7seekoffExNS_8ios_base7seekdirEj
TZe:_Array_InternalArray__ICollection_Contains_TisTableRange_t2011406615_m605506746_gshared
fLf:_List_1_Sort_m785723827_gshared
jvf:_Decimal_op_Explicit_m729046406
i_c:__ZN5physx3Cct15ObstacleContext7releaseEv
Nog:_Graphic_OnEnable_m2900261811
fSd:__ZN5physx27solveFrictionBlockWriteBackEPKNS_23PxcSolverConstraintDescEjRNS_16PxcSolverContextEPNS_25PxcThresholdStreamElementEjPi
Ovh:_CryptographicUnexpectedOperationException__ctor_m3552441227
Alf:_ArrayListWrapper_Clear_m321161741
Rtg:_InputField_LineDownCharacterPosition_m2690468785
mqe:_UNITY_ft_glyphslot_alloc_bitmap
daj:__Z56RuntimeInvoker_ContentType_t1028629049_Int32_t2071877448PK10MethodInfoPvPS2_
S9e:_Array_Sort_TisVector2_t2243707579_TisVector2_t2243707579_m2582252549_gshared
fuj:_UInt64_System_IConvertible_ToDouble_m2828923873
CRi:__Z45RuntimeInvoker_Il2CppObject_Int16_t4041245914PK10MethodInfoPvPS2_
Xuk:__ZL25UnresolvedVirtualCall_175P12Il2CppObject20Playable_t3667545548S1_PK10MethodInfo
Ygj:_ScrollRect_set_verticalScrollbarVisibility_m2424788384
pQf:_List_1_System_Collections_IList_set_Item_m1129584681_gshared
Ire:_ft_raster1_render
Ync:__Z57Register_UnityEngine_RectTransform_INTERNAL_set_anchorMaxv
jLf:_List_1_set_Capacity_m491101164_gshared
Mol:__ZNKSt3__221__basic_string_commonILb1EE20__throw_length_errorEv
VYe:_StringBuilder_Insert_m1733097906
lZi:__Z88RuntimeInvoker_Void_t1841601450_Il2CppObject_Int32_t2071877448_Il2CppObject_Il2CppObjectPK10MethodInfoPvPS2_
Ej:_JS_SystemInfo_GetMemory
xQk:__ZN14dense_hash_mapI10KeyWrapperINSt3__24pairIP11Il2CppClassjEEES4_N6il2cpp8metadata14ArrayClassHashENS8_17ArrayClassCompareENS1_9allocatorINS2_IKS6_S4_EEEEEC2EjRKS9_RKSA_
uXj:_Comparer_1__ctor_m1157133632_gshared
Wah:_SslStreamBase_get_HashStrength_m480059173
fIa:__ZN18GfxFramebufferGLES13ReadbackImageER14ImageReferenceiiiiii
QJk:__ZN30dense_hashtable_const_iteratorINSt3__24pairIK10KeyWrapperIPK10Il2CppTypeEjEES6_N6il2cpp8metadata14Il2CppTypeHashEN14dense_hash_mapIS6_jSB_NSA_17Il2CppTypeCompareENS0_9allocatorIS8_EEE9SelectKeyESD_SF_EppEv
uOh:_ValueCollection_System_Collections_Generic_ICollectionU3CTValueU3E_Clear_m3271993638_gshared
y4:__ZN13RuntimeStaticI11WindManagerE13StaticDestroyEPv
frf:_Enumerator_MoveNext_m1419609883
gP:__ZN4FMOD7Channel19setReverbPropertiesEPK29FMOD_REVERB_CHANNELPROPERTIES
q8:__ZN13MonoBehaviour22GetScriptFullClassNameEv
IHk:_il2cpp_object_get_class
E2d:__ZN5physx6shdfnd4sortIPNS_15PxsContactPatchENS_27SortBoundsPredicateManifoldENS0_19ReflectionAllocatorIS3_EEEEvPT_jRKT0_RKT1_j
L2h:__ZL111DerivedType_t1016359113_CustomAttributesCacheGenerator_DerivedType_MakeGenericType_m742223168____typeArguments0P21CustomAttributesCache
n_a:__ZN13BatchRendererC2ER15RenderLoopStatsRK15RenderNodeQueuebb
seh:_ServicePointManager_FindServicePoint_m3137356168
Jj:_emscripten_glGetVertexAttribfv
gta:__ZN20SphericalHarmonicsL211AddWeightedERKS_f
ETj:_InternalEnumerator_1_MoveNext_m725174512_gshared
dEd:__ZN5physx2Sc24ElementInteractionMarker12onDeactivateEj
cgg:_PointerInputModule_GetPointerData_m1695674453
Dzi:__Z14bankers_roundff
hQb:__Z19TransferField_ArrayI17RemapPPtrTransfer27Converter_SimpleNativeClassI8GUIStyleEEvRK23StaticTransferFieldInfoR31RuntimeSerializationCommandInfoRT0_
I5:__ZL22StaticInitializeShaderPv
fwf:_Convert_ToUInt64_m345450801
xek:_Predicate_1_BeginInvoke_m2559992383_gshared
f0k:__ZN6il2cpp2vm3RCW7CleanupEP15Il2CppComObject
bAc:__ZN9JSONWrite8TransferI10ColorRGBAfEEvRT_PKc17TransferMetaFlags
q8i:__Z52RuntimeInvoker_Void_t1841601450_Keyframe_t1449471340PK10MethodInfoPvPS2_
Lce:__ZN14PhysicsManager23VirtualRedirectTransferER19StreamedBinaryWriteILb0EE
Lol:__ZNSt13runtime_errorC2EPKc
foc:__Z35Register_UnityEngine_Resources_Loadv
wNb:__Z19TransferField_ArrayI14SafeBinaryRead16Converter_StringEvRK23StaticTransferFieldInfoR31RuntimeSerializationCommandInfoRT0_
pfl:_rename
q6k:_GC_exit_check
ANg:_NotSupportedException__ctor_m3232764727
Ts:__ZN7mecanim9animation9DenseClip8TransferI14SafeBinaryReadEEvRT_
Hdh:_TypeConverterAttribute_Equals_m2330345916
kQc:__ZNK5physx2Gu15OBBTriangleTest10obbTriTestERKNS_6PxVec3ES4_S4_
g7:__Z20UnlockObjectCreationv
Yxf:_DateTime_ToString_m1117481977
BYi:__Z55RuntimeInvoker_Il2CppObject_RegexOptionsU26_t3063574985PK10MethodInfoPvPS2_
TEg:_MonoIO_CreateDirectory_m379525469
DMb:__Z34scripting_class_array_element_sizeP11Il2CppClass
vD:__ZN9BlobWrite8TransferI22OffsetPtrArrayTransferI9OffsetPtrIN7mecanim12statemachine18StateMachineMemoryEEEEEvRT_PKc17TransferMetaFlags
Jne:_UNITY_ft_smooth_renderer_class_pic_free
$Sf:_List_1_System_Collections_IList_Remove_m3763718607_gshared
Qyj:_Bounds_get_center_m129401026
Gf:_emscripten_glStencilOpSeparate
cUe:_String_Concat_m2000667605
CDk:__ZN6il2cpp2os19SocketHandleWrapperC2ERKS1_
T2k:__ZN6il2cpp2vm6String8NewUtf16EPKDsi
a$k:__ZN6il2cpp2os10ThreadImpl12QueueUserAPCEPFvPvES2_
Bol:__ZNSt3__211__call_onceERVmPvPFvS2_E
gM:__Z32TransferEnumWithNameForceIntSizeI14SafeBinaryReadN10SampleClip17CompressionFormatEEvRT_RT0_PKc17TransferMetaFlags
Ile:__ZN20TextRenderingPrivate15DynamicFontData36GetFaceForCharacterIfAvailableInFontERKNS_7FontRefERKNSt3__26vectorI4PPtrIN13TextRendering4FontEE13stl_allocatorIS9_L18MemLabelIdentifier34ELi16EEEEj
j$c:__ZN5physx12PxControllerD2Ev
dWc:__ZNK5physx2Gu15HeightFieldUtil12traceSegmentI25CapsuleTraceSegmentReportLb0ELb0ELb1EEEvRKNS_6PxVec3ES6_PT_PS5_
QYc:__ZN5physx3Cct17CapsuleController13setStepOffsetEf
hxe:_UNITY_FT_Hypot
HWd:__ZN5physx10PxsContext23prepareCMDiscreteUpdateEPNS_10PxBaseTaskE
mgf:_BitConverter_ToInt64_m1329623425
H5b:__ZN8RendererC2E12RendererType18MemLabelIdentifier18ObjectCreationMode
e9k:__ZN6il2cpp2vm13ComObjectBaseINS0_13ManagedObjectE18Il2CppIInspectableNS0_7details6ComNilES5_S5_S5_S5_S5_S5_E6AddRefEv
O9h:__ZL95ASCIIEncoding_t3022927988_CustomAttributesCacheGenerator_ASCIIEncoding_GetByteCount_m1396020051P21CustomAttributesCache
ahd:__ZN5physx6shdfnd5ArrayIPvNS0_19ReflectionAllocatorINS_2Cm5BlockIhLj256EEEEEE4copyINS0_15InlineAllocatorILj256ES7_EEEEvRKNS1_IS2_T_EE
_il:__ZNSt3__28time_getIcNS_19istreambuf_iteratorIcNS_11char_traitsIcEEEEED2Ev
_f:_emscripten_glGetError
VP:__Z14FMOD_FILE_SeekPvjS_
n2j:_MethodCall_get_Properties_m1893707917
b_h:__ZL72Enum_t2459695545_CustomAttributesCacheGenerator_Enum_ToObject_m604645223P21CustomAttributesCache
Hkd:__ZN5physx6shdfnd8PoolBaseINS_11NpAggregateENS0_19ReflectionAllocatorIS2_EEE15disposeElementsEv
hMh:_ShimEnumerator_get_Entry_m2387156530_gshared
rVc:__ZThn4_N16RayRTreeCallbackILi1ELb1EE14processResultsEjPj
Quk:__ZL25UnresolvedVirtualCall_168P12Il2CppObject19Vector3_t2243707580PK10MethodInfo
j5a:__ZNK13RenderTexture32CalculateNeedsInvertedProjectionEv
YZc:__ZN5physx2Gu17RadixSortBuffered4SortEPKfj
gg:emscriptenWebGLGet
$Hi:_Rect_GetHashCode_m559954498_AdjustorThunk
e7b:__ZN12CubemapArray11InitTextureEiii13TextureFormatb
Loa:__ZN6prcoreL18BlitIntegerToFloatERK14ImageReferenceRS0_
vki:__ZL93Physics_t634932869_CustomAttributesCacheGenerator_Physics_RaycastAll_m410413656____layerMask2P21CustomAttributesCache
Ofh:__ZN16VirtFuncInvoker1IP8String_tiE6InvokeEjPvi
ZNa:__ZNK15Lz4Decompressor20DecompressStreamInitEPPv
SYf:_Collection_1_set_Item_m3803272710_gshared
jEi:_Mesh_SetUVs_m841280343
TIh:_MonoMethodInfo_t3646562144_marshal_pinvoke_cleanup
Mhh:_X509Certificate2_get_SignatureAlgorithm_m3069898012
heh:_HttpRequestCreator__ctor_m2513916021
L3c:__ZN27ConvexVsMeshOverlapCallbackC2ERKN5physx2Gu10ConvexMeshERKNS0_11PxMeshScaleERKNS0_2Cm23FastVertex2ShapeScalingERKNS0_11PxTransformESE_bRKNS1_3BoxE
oUi:__Z54RuntimeInvoker_Il2CppObject_IntPtr_t_Int32_t2071877448PK10MethodInfoPvPS2_
lAi:_GUIStyle_INTERNAL_CALL_Internal_CalcSizeWithConstraints_m1203344891
fE:__ZN7mecanim5human13HumanFixTwistEPKNS0_5HumanEPNS_8skeleton13SkeletonPoseTIN4math4trsXEEES9_iiRKf
V$a:__ZL24AssignProjectorQueuesJobP30AssignProjectorQueuesJobHeader
upj:_TimeSpan_get_Hours_m3804628138
_tk:__ZL25UnresolvedVirtualCall_124P12Il2CppObjectPK10MethodInfo
Vng:_FontData_set_alignByGeometry_m2819509290
c5j:_Regex__ctor_m3250610064
G1b:__ZN9ShaderLab20SerializedSubProgram14SetConstBufferEPKci
g_g:_ArgumentNullException__ctor_m911049464
iHh:_TargetParameterCountException__ctor_m2760108938
Eie:__ZN13PhysicsModule17SetRigidBodyStateER9RigidbodyRKN8IPhysics14RigidBodyStateE
zgk:_InvokableCall_4_Find_m1467690987_gshared
ebg:_Comparison_1_Invoke_m345024424_gshared
Ite:_cf2_getStdVW
j8f:_ReadOnlyCollection_1_System_Collections_IList_Insert_m3936197025_gshared
TDf:_EventHandler_BeginInvoke_m3027583606
H$:__Z40DebugStringToFilePostprocessedStacktraceRK21DebugStringToFileData
JNd:__ZN5physx2Sq12BucketPruner11shiftOriginERKNS_6PxVec3E
jyc:__Z29Transfer_Blittable_ArrayFieldI8JSONReadjEvRT_R9ArrayInfoRK23StaticTransferFieldInfo
kUj:_InternalEnumerator_1__ctor_m3220229132_AdjustorThunk
$6c:__ZN5physx6shdfnd5ArrayIPNS_2Sc16ArticulationCoreENS0_19ReflectionAllocatorIS4_EEE15growAndPushBackERKS4_
hLi:_StateMachineBehaviour_OnStateEnter_m1095276890
eFi:_Object_GetInstanceID_m1920497914
S0j:_ContextAttribute__ctor_m4006843177
vH:__ZN18StreamedBinaryReadILb1EE21TransferSTLStyleArrayI13dynamic_arrayI4PPtrI13AnimationClipELj4EEEEvRT_17TransferMetaFlags
kRj:_InternalEnumerator_1_get_Current_m314017974_AdjustorThunk
Og:__setLetterbox
tna:__ZNSt3__26__treeINS_12__value_typeIN9ShaderLab16FastPropertyNameEfEENS_19__map_value_compareIS3_S4_NS_4lessIS3_EELb1EEENS_9allocatorIS4_EEE12__find_equalIS3_EERPNS_16__tree_node_baseIPvEENS_21__tree_const_iteratorIS4_PNS_11__tree_nodeIS4_SE_EEiEESH_RKT_
d1d:__ZN5physx19normalizePartitionsERNS_6shdfnd5ArrayIjNS0_19ReflectionAllocatorIjEEEEPNS_23PxcSolverConstraintDescEPKNS_13PxcSolverBodyEjjS5_
wik:_TextGenerator_Populate_Internal_m1817393161
$0h:__ZL57CollectionBase_t1101587467_CustomAttributesCacheGeneratorP21CustomAttributesCache
fRc:__ZN18ContactCapsuleMesh20processTriangleCacheILj16EEEbRN5physx2Gu13TriangleCacheIXT_EEE
zzb:__ZNSt3__26vectorI17BlendShapeChannelNS_9allocatorIS1_EEE6assignINS_11__wrap_iterIPS1_EEEENS_9enable_ifIXaasr21__is_forward_iteratorIT_EE5valuesr16is_constructibleIS1_NS_15iterator_traitsISA_E9referenceEEE5valueEvE4typeESA_SA_
_ug:_LayoutElement_set_preferredWidth_m3072758716
vhk:_UnityEvent_1_AddListener_m1708363187_gshared
vgh:_AsnEncodedData_ToString_m724151831
L4a:__ZN11TimeManager11GetRealtimeEv
MXf:_Collection_1_System_Collections_IList_get_IsFixedSize_m2408637569_gshared
Egf:__ZN21InterfaceFuncInvoker1IdP12Il2CppObjectE6InvokeEjP11Il2CppClassPvS1_
I2c:__ZN5physx2Sc16InteractionScene25removeFromActiveActorListERNS0_5ActorE
Qec:__Z15WeldVertexArrayR13dynamic_arrayI8Vector3fLj4EERS_I13BoneInfluenceLj16EERS_ItLj2EES7_
sHh:_MonoMethodInfo_GetDeclaringType_m4186531677
yoh:_SoapTypeAttribute_SetReflectionObject_m1566293812
uTh:_DefaultComparer__ctor_m418731767_gshared
EF:__ZN4PPtrI6AvatarE8TransferI18StreamedBinaryReadILb0EEEEvRT_
f$c:__ZN5physx3Ext21InertiaTensorComputer6rotateERKNS_7PxMat33E
Bqk:_Enumerator_System_Collections_IEnumerator_Reset_m2573763156_AdjustorThunk
oqh:_RemotingServices_CreateClientProxy_m1631035355
Luj:_UInt64_ToString_m2892887310
jvk:__ZL25UnresolvedVirtualCall_189P12Il2CppObjectaPK10MethodInfo
i0d:__ZN5physx22PxcDiscreteNarrowPhaseERNS_18PxcNpThreadContextERNS_13PxcNpWorkUnitE
Sta:_stbir_resize
MGc:__ZN24b2ChainAndCapsuleContact6CreateEP9b2FixtureiS1_iP16b2BlockAllocator
AOa:__Z37ReadDirectoryInfo_UnityWebAndUnityRawR12FileAccessorRKN20ArchiveStorageHeader6HeaderERNS1_13DirectoryInfoE
S0e:_Array_InternalArray__IEnumerable_GetEnumerator_TisInt64_t909078037_m1219751804_gshared
n5:__ZNSt3__26__treeINS_12__value_typeIPKciEENS_19__map_value_compareIS3_S4_15compare_tstringIS3_ELb1EEENS_9allocatorIS4_EEE7destroyEPNS_11__tree_nodeIS4_PvEE
V$h:__ZL96RuntimeTypeHandle_t2330101084_CustomAttributesCacheGenerator_RuntimeTypeHandle_Equals_m452760426P21CustomAttributesCache
CSh:_Dictionary_2_ToTValue_m1381983709_gshared
rNg:_MulticastDelegate_KPM_m1592985119
Inl:__ZNSt3__26locale5__imp7installINS_5ctypeIcEEEEvPT_
fHi:_RaycastHit2D_get_collider_m2568504212_AdjustorThunk
u3f:_Collection_1_ConvertItem_m3941916604_gshared
uAe:__ZN2UI6Canvas26MarkAllNestedCanvasesDirtyEv
YQf:_List_1__ctor_m2766376432_gshared
V9a:__ZN25PathNamePersistentManagerD2Ev
$6:__ZN17PersistentManager48IntegrateObjectAndUnlockIntegrationMutexInternalEi
UH:__ZN15SerializeTraitsI9OffsetPtrIN7mecanim9animation19Blend2dDataConstantEEE8TransferI18StreamedBinaryReadILb1EEEEvRS4_RT_
T8f:_ReadOnlyCollection_1_System_Collections_IList_get_IsReadOnly_m3872065502_gshared
n3h:__ZL112TypeBuilder_t3308873219_CustomAttributesCacheGenerator_TypeBuilder_MakeGenericType_m4282022646____typeArguments0P21CustomAttributesCache
ucj:__Z89RuntimeInvoker_Il2CppObject_Scene_t1684909666_Scene_t1684909666_Il2CppObject_Il2CppObjectPK10MethodInfoPvPS2_
NKc:__ZN9b2Fixture11SynchronizeEP12b2BroadPhaseRK11b2TransformS4_
Dwl:_emscripten_glGetFramebufferAttachmentParameteriv__wrapper
LUa:__ZN13RendererScene15InitializeUmbraEv
sxj:_AnimatorTransitionInfo_IsName_m2561957738_AdjustorThunk
Tsa:__Z28CalculateGlobalMatrixInverse23TransformAccessReadOnly
lAc:__ZN4PPtrI6ObjectE8TransferI9JSONWriteEEvRT_
Jll:__ZNSt3__29money_putIwNS_19ostreambuf_iteratorIwNS_11char_traitsIwEEEEED0Ev
Zfg:_PointerEventData_ToString_m1218584363
ndl:___ctype_toupper_loc
djf:_Char_System_IConvertible_ToChar_m1489061093_AdjustorThunk
jmj:_UTF7Encoding_GetCharCount_m2589913583
$ud:__ZNK5physx15PxsParticleData15getWorldBoundsVEv
iUa:_UNITY_png_write_sCAL_s
Anh:__ZN21InterfaceFuncInvoker0IP8String_tE6InvokeEjP11Il2CppClassPv
vHg:_MemoryStream_CalculateNewCapacity_m3533542025
Xni:__ZL66ExcludeFromDocsAttribute_t665825653_CustomAttributesCacheGeneratorP21CustomAttributesCache
bXc:__ZN12_GLOBAL__N_124HfTrianglesEntityReport27onEventEjPj
zcd:__ZNK5physx2Sc15ArticulationSim16createDriveCacheEfj
zxd:__ZN5physx22NpParticleBaseTemplateINS_16PxParticleSystemENS_16NpParticleSystemEE17setStaticFrictionEf
VMj:_InternalEnumerator_1_Dispose_m318835130_AdjustorThunk
O8j:_Uri_Reduce_m2577728307
Vpj:_TimeSpan_Equals_m4102942751_AdjustorThunk
l8i:__Z59RuntimeInvoker_Void_t1841601450_X509ChainStatus_t4278378721PK10MethodInfoPvPS2_
tOh:_ValueCollection_System_Collections_Generic_ICollectionU3CTValueU3E_Add_m1903672223_gshared
Yml:__ZNSt3__25ctypeIcE13classic_tableEv
tM:__ZN4FMOD6SoundI7releaseEv
Yzd:__ZN5physx20NpRigidActorTemplateINS_14PxRigidDynamicEE15setActorSimFlagEb
qBb:__ZN14SpriteRenderer13AwakeFromLoadE17AwakeFromLoadMode
Bgg:_MouseButtonEventData__ctor_m618518000
IWh:_EqualityComparer_1_get_Default_m3222318365_gshared
$ll:__ZNKSt3__27codecvtIDic11__mbstate_tE5do_inERS1_PKcS5_RS5_PDiS7_RS7_
pPa:__ZN10MemoryFile9SetLengthEy
gJ:__ZN7mecanim10ValueArray8TransferI19StreamedBinaryWriteILb0EEEEvRT_
qFc:__ZNK15b2RevoluteJoint10GetAnchorBEv
BZc:__ZNK5physx3Cct26CharacterControllerManager16getNbControllersEv
di:_glTexStorage2D
t1b:__ZNK9ShaderLab10SubProgram14EnsureCompiledEv
cth:_ObjectManager_RecordFixup_m3572285566
Y$e:_ExecuteEvents_CanHandleEvent_TisIl2CppObject_m1201779629_gshared
S1h:__ZL55DaylightTime_t3800227331_CustomAttributesCacheGeneratorP21CustomAttributesCache
Afe:__ZN5physx7profile10DataBufferINS_6shdfnd6MutexTINS0_26WrapperReflectionAllocatorIhEEEENS0_14ScopedLockImplIS6_EEE17handleBufferFlushEPKhj
cqf:_SortedList_InitTable_m460350503
cOj:_InternalEnumerator_1_get_Current_m4279678504_AdjustorThunk
qr:__ZNK16LevelGameManager7GetNameEv
OXf:_Collection_1_System_Collections_IList_get_Item_m2415649949_gshared
cEh:_ILTokenInfo_t149559338_marshal_pinvoke_cleanup
R1f:_Collection_1_Remove_m2358120395_gshared
Vg:_JS_SystemInfo_HasWebGL
YFe:__ZN18UnityConnectClient15GetCloudServiceEv
JQb:__Z18Transfer_BlittableI24GenerateTypeTreeTransferLb0EiEvRK29SerializationCommandArgumentsR31RuntimeSerializationCommandInfo
Q3d:__ZN5physx20PxsConstraintProjectEPKNS_13PxsConstraintEbf
Hnd:__ZN5physx7NpShape7setFlagENS_11PxShapeFlag4EnumEb
zDk:__ZN6il2cpp2os19SocketHandleWrapperD2Ev
qGc:__ZN15b2CircleContact6CreateEP9b2FixtureiS1_iP16b2BlockAllocator
uHf:_Enumerator_System_Collections_IEnumerator_Reset_m1436660297_gshared
qwl:_emscripten_glBufferData__wrapper
Rjb:__ZN10TagManager32RegisterDefaultTagsAndLayerMasksEv
Gnk:_TweenRunner_1_StopTween_m2135918118_gshared
i0f:__ZN21InterfaceFuncInvoker1I22UILineInfo_t3621277874iE6InvokeEjP11Il2CppClassPvi
fPh:_ValueCollection_get_Count_m4142113966_gshared
Fmi:__ZL118AttributeHelperEngine_t958797062_CustomAttributesCacheGenerator_AttributeHelperEngine_GetRequiredComponents_m120894667P21CustomAttributesCache
N$d:__ZN5physx2Sc35ParticleElementRbElementInteraction12onDeactivateEj
XFj:_Playable_CheckInputBounds_m1095657528
ijl:__ZNKSt3__220__time_get_c_storageIcE8__monthsEv
Rnj:_SynchronizationLockException__ctor_m549086841
qpk:_SimulationHandler_Update_m1757772413
Vkf:_ArrayList_InsertRange_m1478230997
JCa:__ZN4gles8InitCapsEP7ApiGLESP12GraphicsCapsR16GfxDeviceLevelGL
Hgf:__ZN21InterfaceFuncInvoker1IP8String_tP12Il2CppObjectE6InvokeEjP11Il2CppClassPvS3_
Qna:__ZN6prcore14BlitImageFloatERK14ImageReferenceRS0_NS0_8BlitModeE
Hff:_Swapper_EndInvoke_m677693941
$gb:__ZN21AssetBundleFileSystem4ReadER13FileEntryDatayyPvPy
xDi:_Matrix4x4_Equals_m1321236479_AdjustorThunk
Mi:_glEnable
cib:__ZNK13Lz4Compressor29CalculateCompressedBufferSizeEj
rEk:__ZN6il2cpp2vm19SocketPollingThreadC2Ev
cOd:__ZN5physx2Sq10AABBPrunerC2Eb
fuh:_RuntimeMethodHandle__ctor_m2437574937_AdjustorThunk
tJd:__ZN5physx2Sq8AABBTreeC2Ev
wsj:_UInt16_System_IConvertible_ToInt64_m2835280558_AdjustorThunk
ZVg:__ZN18VirtActionInvoker2IP22ByteU5BU5D_t3397334013S1_E6InvokeEjPvS1_S1_
dhi:__ZL53g_UnityEngine_Assembly_CustomAttributesCacheGeneratorP21CustomAttributesCache
ffk:_Predicate_1_BeginInvoke_m3926587117_gshared
umc:__ZN13MonoBehaviour22StartCoroutineManaged2EP12Il2CppObject
Eyh:_AssemblyName_get_Name_m1815759940
Wlg:_DefaultControls_CreateToggle_m1568873127
NUf:_List_1__cctor_m1022807427_gshared
P0h:__ZL63KeyNotFoundException_t1722175009_CustomAttributesCacheGeneratorP21CustomAttributesCache
mSh:_Dictionary_2_InitArrays_m2270022740_gshared
Hrf:_Convert_ToBoolean_m2188088811
LEe:__ZN11UnityEngine7Connect15DeviceInfoEvent16CollectExtraInfoEv
tWi:__Z115RuntimeInvoker_Boolean_t3825574718_Il2CppObject_Int32_t2071877448_Il2CppObject_SByte_t454417549_Int32U26_t455636984PK10MethodInfoPvPS2_
NGj:_CustomAnimationPlayable__ctor_m2580931540
S6d:__ZN5physx2Gu10ConvexMeshD2Ev
eZe:_UnicodeEncoding_GetChars_m3765282346
lDg:_IntPtr__ctor_m4104029105
s7h:__ZL114BinaryFormatter_t1866979105_CustomAttributesCacheGenerator_BinaryFormatter_get_DefaultSurrogateSelector_m219714691P21CustomAttributesCache
N_f:_Collection_1_Clear_m4150923953_gshared
tfl:_atol
$7k:__ZN6il2cpp6icalls8mscorlib6System10Reflection9FieldInfo25internal_from_handle_typeE12Il2CppIntPtrS5_
cuf:_Convert_ToDouble_m4236754739
$9g:_SslClientStream_get_PrivateKeyCertSelectionDelegate_m3715949545
kng:_Dropdown_CreateItem_m2702141380
Vfa:__ZNK6Sprite24GetRenderDataForPlayModeEv
w1h:__ZL48Stack_t1043988394_CustomAttributesCacheGeneratorP21CustomAttributesCache
rp:FUNCTION_TABLE_viifi
up:FUNCTION_TABLE_viiff
T0c:__ZNK5physx2Sc8ShapeSim10getBodySimEv
DHh:_MonoEvent_GetAddMethod_m4289563120
E$h:__ZL37Type_t_CustomAttributesCacheGeneratorP21CustomAttributesCache
wxe:_UNITY_tt_face_free_hdmx
ePk:__ZN6il2cpp2vm14TypeNameParser5ParseEb
Qej:_ReflectionMethodsCache__ctor_m1835220
w6k:_GC_check_finalizer_nested
ZFj:_Playable_INTERNAL_CALL_IsValidInternal_m3509544226
vVi:__Z51RuntimeInvoker_Int16_t4041245914_Single_t2076509932PK10MethodInfoPvPS2_
W0h:__ZL71SynchronizedArrayListWrapper_t3317806524_CustomAttributesCacheGeneratorP21CustomAttributesCache
ehd:__ZN5physx6shdfnd5ArrayIPvNS0_19ReflectionAllocatorINS_2Cm5BlockIhLj128EEEEEE15growAndPushBackERKS2_
dIe:__ZN23UnityPurchasingSettingsC2Ev
yCf:_Double_ToString_m1864290157
J8a:__ZNK9Transform13GetWorldScaleEv
SQj:_InternalEnumerator_1_get_Current_m4154059426_AdjustorThunk
g6c:__ZN5physx2Sc11Interaction10onActivateEj
MVc:__ZNK5physx2Gu29EPASupportMapPairRelativeImplINS0_4BoxVENS0_11ConvexHullVEE6getDirEv
nod:__ZN5physx14NpShapeManager15setupSceneQueryERNS_2Sq17SceneQueryManagerERKNS_12PxRigidActorERKNS_7NpShapeE
uca:__ZNSt3__26__treeINS_12__value_typeI18VertexChannelsInfo16MeshVertexFormatEENS_19__map_value_compareIS2_S4_NS_4lessIS2_EELb1EEE13stl_allocatorIS4_L18MemLabelIdentifier16ELi16EEE12__find_equalIS2_EERPNS_16__tree_node_baseIPvEENS_21__tree_const_iteratorIS4_PNS_11__tree_nodeIS4_SF_EEiEESI_RKT_
E1f:_Collection_1_System_Collections_IList_get_Item_m1122792492_gshared
Yta:__ZL37stbir__resample_horizontal_downsampleP11stbir__infoiPf
vSi:__Z78RuntimeInvoker_IntPtr_t_Il2CppObject_Int32U26_t455636984_ModuleU26_t4102634234PK10MethodInfoPvPS2_
vra:__ZNK5Unity9Component38MarkGameObjectAndComponentDependenciesER27GarbageCollectorThreadState
L3d:__ZN22ScAfterIntegrationTask11runInternalEv
R8c:__ZNK5physx2Sc9ClothCore23getExternalAccelerationEv
sTa:_UNITY_png_write_data
IT:__ZNK7Texture21GetShadowSamplingModeEv
QUc:__ZN5physx2Gu13coarseCullingERKNS_6PxVec3ES3_ffRKNS_10PxTriangleE
w0:__ZN13ScreenManager21OnWindowRegainedFocusEv
VUb:__Z18Transfer_BlittableI18StreamedBinaryReadILb0EELb1EdEvRK29SerializationCommandArgumentsR31RuntimeSerializationCommandInfo
qAj:_WillRenderCanvases_BeginInvoke_m1914028027
TFg:_FileStream_get_CanRead_m4148920720
lLk:__ZN6il2cpp2gc19AppendOnlyGCHashMapINSt3__24pairIPK12PropertyInfoP11Il2CppClassEEP24Il2CppReflectionProperty17ReflectionMapHashIS9_E19ReflectionMapEqualsIS9_EE11TryGetValueERKS9_PSB_
n0d:__ZN5physx2Sc5Scene29processNarrowPhaseTouchEventsEv
$Ea:__ZN4crnd12symbol_codec32decode_receive_static_data_modelERNS_25static_huffman_data_modelE
tHj:_Playables_GetTimeValidated_m788360268
wpb:__ZN18ScriptingArguments8AddFloatEf
lyg:_GregorianCalendar_set_CalendarType_m2438362222
nlg:_FloatTween_get_targetValue_m2120061648_AdjustorThunk
HGj:_AnimatorControllerPlayable_get_node_m127621219_AdjustorThunk
V8i:__Z71RuntimeInvoker_Void_t1841601450_Int32_t2071877448_UriScheme_t1876590943PK10MethodInfoPvPS2_
S_e:_Array_InternalArray__ICollection_Contains_TisVector2_t2243707579_m3625698589_gshared
Uad:__ZN5physx6shdfnd5ArrayIPvNS0_15InlineAllocatorILj256ENS0_19ReflectionAllocatorINS_18NpArticulationLinkEEEEEE15growAndPushBackERKS2_
yzc:__Z18Transfer_BlittableI9JSONWriteLb0EaEvRK29SerializationCommandArgumentsR31RuntimeSerializationCommandInfo
CW:__ZN11UnityEngine15CloudWebService14DataDispatcher34OnSessionContainerArchivedAndReadyERNS0_16SessionContainerE
DHc:__ZN7b2World11CreateJointEPK10b2JointDef
BIb:__ZN13EmscriptenWWW10OnResponseEPviS0_jPc
kql:__ZNSt13runtime_errorD0Ev
o_c:__ZNK5physx3Cct15ObstacleContext11getObstacleEj
O3g:_CipherSuiteCollection__ctor_m2154226461
dSb:__Z18Transfer_BlittableI19StreamedBinaryWriteILb0EELb0E8Vector3fEvRK29SerializationCommandArgumentsR31RuntimeSerializationCommandInfo
eIi:_RectOffset__ctor_m2227510254
dpe:_gray_move_to
dJk:__ZN15dense_hashtableINSt3__24pairIK10KeyWrapperINS1_IPK9FieldInfoP11Il2CppClassEEEjEES9_17ReflectionMapHashIS8_EN14dense_hash_mapIS9_jSD_19ReflectionMapEqualsIS8_ENS0_9allocatorISB_EEE9SelectKeyESG_SI_ED2Ev
y1a:__Z34GetNonInterpolatedLightAttenuationRK17LightProbeContextjPK15SharedLightData
wFj:_UnityAction_BeginInvoke_m407736228
S2f:_Collection_1_System_Collections_IEnumerable_GetEnumerator_m4174600764_gshared
a2j:_ConstructionCall_InitDictionary_m4046452035
SLk:__ZN6il2cpp2vm10Reflection14GetEventObjectEP11Il2CppClassPK9EventInfo
p3i:__Z43RuntimeInvoker_VerticalWrapMode_t3668245347PK10MethodInfoPvPS2_
g5g:_TlsStream_Write_m2271546135
t2:__ZN20LocalFileSystemPosixD0Ev
bhc:__Z23GetGlobalBoolPreferencePKcb
yFf:_CultureInfo_ConstructInternalLocaleFromCurrentLocale_m1342751405
PVi:__Z50RuntimeInvoker_UInt16_t986882611_Int16_t4041245914PK10MethodInfoPvPS2_
chb:__ZN21AssetBundleFileSystem5WriteER13FileEntryDatayPvPy
zYe:_Latin1Encoding_GetString_m3553289597
TMd:__ZN5physx13IslandManager6resizeEj
Bqe:_tt_cmap_init
yb:invoke_viidi
nIf:_Enumerator_System_Collections_IEnumerator_get_Current_m3461301268_gshared
cLh:_Enumerator_get_Current_m1020413567_AdjustorThunk
BLf:_List_1_System_Collections_IList_get_IsFixedSize_m1122077912_gshared
E9i:__Z48RuntimeInvoker_Link_t865133271_Int32_t2071877448PK10MethodInfoPvPS2_
o4b:__ZN9TextAssetC2E18MemLabelIdentifier18ObjectCreationMode
M5c:__ZN5physx6shdfnd8PoolBaseINS_2Cm5BlockIPvLj16EEENS0_19ReflectionAllocatorIS5_EEE17releaseEmptySlabsEv
vKf:_List_1_System_Collections_ICollection_CopyTo_m2020941110_gshared
VDj:_Display_RecreateDisplayList_m3412638488
idi:__ZL79Convert_t2607082565_CustomAttributesCacheGenerator_Convert_ToUInt64_m2215781574P21CustomAttributesCache
ebj:__Z52RuntimeInvoker_KeyValuePair_2_t38854645_Il2CppObjectPK10MethodInfoPvPS2_
wTb:__ZN19StreamedBinaryWriteILb0EE21TransferSTLStyleArrayINSt3__26vectorINS2_12basic_stringIcNS2_11char_traitsIcEE13stl_allocatorIcL18MemLabelIdentifier1ELi16EEEES7_ISA_LS8_1ELi16EEEEEEvRT_17TransferMetaFlags
sCl:_emscripten_glCheckFramebufferStatus__wrapper
dDb:__ZNSt3__26__treeIjNS_4lessIjEENS_9allocatorIjEEE12__find_equalIjEERPNS_16__tree_node_baseIPvEENS_21__tree_const_iteratorIjPNS_11__tree_nodeIjS8_EEiEESB_RKT_
__c:__ZL20updateMassAndInertiabRN5physx11PxRigidBodyEPKfjPKNS_6PxVec3Eb
Nwc:__Z18Transfer_BlittableI8JSONReadLb0EdEvRK29SerializationCommandArgumentsR31RuntimeSerializationCommandInfo
Kfe:__ZN5physx24NpPtrTableStorageManagerC2Ev
iH:__ZN7mecanim9animation21BlendTreeNodeConstant35Transfer_4_0_BackwardsCompatibilityI14SafeBinaryReadEEvRT_
$Bl:_glCreateShader__wrapper
XDe:__Z44Register_UnityEngine_Canvas_set_sortingOrderv
joj:_Thread_ClrState_m822263449
jQg:_SimpleCollator_LastIndexOfOrdinalIgnoreCase_m550798345
oIk:__ZN15dense_hashtableINSt3__24pairIK10KeyWrapperINS1_IPK14Il2CppAssemblyP11Il2CppClassEEEjEES9_17ReflectionMapHashIS8_EN14dense_hash_mapIS9_jSD_19ReflectionMapEqualsIS8_ENS0_9allocatorISB_EEE9SelectKeyESG_SI_E13clear_deletedER30dense_hashtable_const_iteratorISB_S9_SD_SK_SG_SI_E
QDk:__ZN6il2cpp2vm21ThreadPoolCompartment13QueueWorkItemEP17Il2CppAsyncResult
xn:FUNCTION_TABLE_viiiiiifiii
hya:__ZNK9GfxDevice13GetViewMatrixEv
JFd:__ZN5physx7NpScene15flushSimulationEb
Bmd:__ZN5physx6shdfnd8PoolBaseINS_10NpMaterialENS0_19ReflectionAllocatorIS2_EEE12allocateSlabEv
Y9:__ZN8TypeTree8BlobReadERPKhS1_ib
yhc:__Z36CreateScriptingArrayFromUnityObjectsI13dynamic_arrayIP6ObjectLj4EEEP11Il2CppArrayRKT_i
Sra:__ZN18LoadSceneOperation23GetAllowSceneActivationEv
aja:__ZN15SerializeTraitsI14ConstantStringE8TransferI19StreamedBinaryWriteILb0EEEEvRS0_RT_
Rpa:__ZN11prophecysdk4half7convertEi
Wkb:__ZN6CameraD0Ev
KRg:_ModulusRing_Multiply_m386339435
Lda:__ZN31CanvasBatchIntermediateRenderer16StaticInitializeEPv
Kpg:_GraphicRaycaster_U3CRaycastU3Em__0_m3971200721
$5f:_ReadOnlyCollection_1_System_Collections_IList_RemoveAt_m3004588099_gshared
Ktf:_Decimal_op_Implicit_m4246329390
i_g:_ArgumentNullException__ctor_m2252076819
T6a:__ZN10GameObjectC2E18MemLabelIdentifier18ObjectCreationMode
goe:_raccess_guess_apple_double
Ojk:_Transform_INTERNAL_set_localScale_m3680777866
Hch:_ListDictionary_GetEnumerator_m1511032609
PBh:_TypeBuilder_get_FullName_m1626507516
zsh:_SerializationInfo__ctor_m4016423422
gGa:__ZL18ProgramUniform1uivPK7ApiGLESjiihPKv
p7b:__ZN14Texture2DArray13RebuildMipMapEv
zyk:__ZN13Il2CppHashSetIPK17Il2CppGenericInstN6il2cpp8metadata21Il2CppGenericInstHashENS4_24Il2CppGenericInstCompareENSt3__29allocatorI10KeyWrapperIS2_EEEEC2EjRKS5_RKS6_
ZMb:__Z18Transfer_BlittableI14SafeBinaryReadLb1EaEvRK29SerializationCommandArgumentsR31RuntimeSerializationCommandInfo
E0k:__ZN6il2cpp2gc16GarbageCollector14RemoveWeakLinkEPPv
H1b:__ZN9ShaderLab20SerializedSubProgram14AddVectorParamEPKcii15ShaderParamTypei
cCe:__ZN2UI14CanvasRenderer12CleanupClassEv
Qed:__ZNK5physx19NpRigidBodyTemplateINS_18PxArticulationLinkEE27getMinCCDAdvanceCoefficientEv
k9f:_ReadOnlyCollection_1_System_Collections_IEnumerable_GetEnumerator_m1734360860_gshared
YTh:_DefaultComparer__ctor_m1052417779_gshared
DRe:_SystemException__ctor_m2688248668
JYj:_ResourceSet_ReadResources_m1669023823
HXg:_PKCS12_RemoveCertificate_m1590055870
bPk:__ZN6il2cpp2vm6Thread7SetNameEP12Il2CppThreadP12Il2CppString
S2h:__ZL117GenericTypeParameterBuilder_t1370236603_CustomAttributesCacheGenerator_GenericTypeParameterBuilder_Equals_m2498927509P21CustomAttributesCache
Tji:__ZL107Collision_t2876846408_CustomAttributesCacheGenerator_Collision_t2876846408____frictionForceSum_PropertyInfoP21CustomAttributesCache
mq:__ZN6Object23VirtualRedirectTransferER19StreamedBinaryWriteILb1EE
zfa:__ZN13ScreenManager18SetAllowCursorLockEb
uHb:__ZN30RuntimeInitializeOnLoadManager15ClassMethodInfo8TransferI14SafeBinaryReadEEvRT_
bWk:__ZNK15dense_hashtableINSt3__24pairIK10KeyWrapperINS1_IPKcS4_EEEiEES6_24NamespaceAndNamePairHashN14dense_hash_mapIS6_iS9_26NamespaceAndNamePairEqualsNS0_9allocatorIS8_EEE9SelectKeyESB_SD_E13find_positionERS7_
j9c:__ZNK5physx2Sc10ClothShape8isActiveEv
dKb:__ZN9TextAsset8TransferI14SafeBinaryReadEEvRT_
Lui:__ZL73CanvasScaler_t2574720772_CustomAttributesCacheGenerator_m_ScreenMatchModeP21CustomAttributesCache
mV:__ZL22InitializeModule_Audiov
wNd:__ZN5physx2Sq11PruningPoolD0Ev
eJc:__ZN16Physics2DManager13DynamicUpdateEv
Ccb:__ZN16MemoryFileSystem8IsLockedERK13FileEntryData
oVd:__ZN3MBP15removeBoxPrunerEj
tkk:_Vector2_get_Item_m2792130561_AdjustorThunk
kHh:_MonoCMethod_Invoke_m931478014
QYj:_SatelliteContractVersionAttribute__ctor_m2605651717
ul:_emscripten_glBindRenderbuffer
Ztc:__Z32GUIStyle_Set_Custom_PropClippingP12Il2CppObjecti
VWe:_DecoderExceptionFallbackBuffer_GetNextChar_m1727394816
l6k:_GC_dirty_init
Tef:_Array_Copy_m1969461849
Erh:_MessageFormatter_ReadMethodResponse_m4134629501
FZk:__ZN6il2cpp2vm5Field14GetValueObjectEP9FieldInfoP12Il2CppObject
mXe:_EncoderExceptionFallback_GetHashCode_m2071009120
GDf:_Environment_get_OSVersion_m1247315981
L$a:__ZN23ForwardShaderRenderLoop23RenderForwardShadowMapsEPK11ActiveLightbN6Camera10RenderFlagER17ShaderPassContext
oSc:__ZL15SweepBoxCapsulePKN5physx3Cct9SweepTestEPKNS0_11SweptVolumeEPKNS0_11TouchedGeomERKNS_14PxExtendedVec3ERKNS_6PxVec3ERNS0_12SweptContactE
Nca:__ZN6Object17FindObjectsOfTypeEPKN5Unity4TypeER13dynamic_arrayIPS_Lj4EEb
_ac:__ZNSt3__26vectorINS_4pairIiiEE13stl_allocatorIS2_L18MemLabelIdentifier1ELi16EEE21__push_back_slow_pathIKS2_EEvRT_
Hkh:_Capture_get_Length_m1952322390
sAc:__ZN9JSONWrite8TransferI4PPtrI9Texture2DEEEvRT_PKc17TransferMetaFlags
Ojl:__ZNKSt3__220__time_get_c_storageIwE7__weeksEv
EKb:__ZN13MonoBehaviour17RemoveFromManagerEv
Nfa:__ZN14GraphicsHelper5ClearEjRK10ColorRGBAffjR17ShaderPassContext
U4d:__ZN5physx2Sc19ParticlePacketShapeD2Ev
lCe:__ZL23RegisterModuleICalls_UIv
svb:__ZL11DecodeValuePPKcS0_
BMh:_ShimEnumerator_MoveNext_m2013866013_gshared
N_:__ZN13MemoryManagerC2Ev
Ujk:_Transform_SetParent_m1963830867
tw:__ZN15SerializeTraitsI22OffsetPtrArrayTransferIN7mecanim13ValueConstantEEE8TransferI19StreamedBinaryWriteILb0EEEEvRS3_RT_
RQa:__ZN20ArchiveStorageReader28AcquireAndPrefillUnusedBlockEjPNS_11CacheResultE
BYf:__ZN21InterfaceFuncInvoker1I40CustomAttributeTypedArgument_t1498197914iE6InvokeEjP11Il2CppClassPvi
SWi:__Z78RuntimeInvoker_Il2CppObject_SByte_t454417549_SByte_t454417549_SByte_t454417549PK10MethodInfoPvPS2_
i7b:__Z12NHxRoughnessIA4_tEvP9Texture2DPT_iiii
bjk:_Touch_get_phase_m196706494_AdjustorThunk
k3j:_MethodDictionary_get_SyncRoot_m673971424
W8:__ZN16ScriptingManager27NativeTypeForScriptingClassEP11Il2CppClass
Txb:__ZN13TrailRenderer19UpdateTransformInfoEv
jda:__ZN18AsyncUploadManagerD2Ev
mwb:__ZN9Transform5ResetEv
PQb:__Z22TransferField_NonArrayI24GenerateTypeTreeTransfer16Converter_StringEvRK23StaticTransferFieldInfoR31RuntimeSerializationCommandInfoRT0_
KJb:__ZN9TextAsset9SetScriptERK8UnityStr
oeh:_HttpWebRequest_System_Runtime_Serialization_ISerializable_GetObjectData_m3671622902
rfa:__Z17MainLoopKeepalivePv
D8c:__ZN5physx7NpScene16addActorInternalERNS_7PxActorE
N3j:_MatchCollection__ctor_m1944681790
VIe:_HMACSHA512__ctor_m1667460019
VWa:__Z24ScheduleCullingAllGroupsR8JobFenceRK22SceneCullingParameters4PPtrI6CameraERK13CullingOutputRK13dynamic_arrayIP12CullingGroupLj4EERKS_
iOe:_ToBase64Transform_get_OutputBlockSize_m949275583
gNg:_MonoType_ToString_m473949831
$Va:__Z14CalcHullBoundsPK8Vector3fPKhhRK5PlaneRK10Matrix4x4fR10MinMaxAABB
tph:_RealProxy__ctor_m2147093603
$Gi:_RaycastHit2D_get_point_m442317739_AdjustorThunk
NXb:__ZN11PreloadData39ShouldIgnoreInGarbageDependencyTrackingEv
RSf:_List_1__ctor_m3511181530_gshared
C_a:__Z19SetupLODFadeKeywordR17ShaderPassContexti
eqe:_UNITY_FT_Stream_ReadFields
k6f:_ReadOnlyCollection_1_get_Count_m2180604490_gshared
ayg:_DateTimeFormatInfo_GetAllDateTimePatternsInternal_m1587126173
R4k:_GC_set_fl_marks
BIa:__ZL25CheckCopyTextureArgumentsRK7ApiGLESP11GLESTextureS3_
eda:__ZN13dynamic_arrayI26EnlightenSystemInformationLj8EE6insertEPS0_PKS0_S4_
Ype:_tt_name_entry_ascii_from_utf16
tNg:_MulticastNotSupportedException__ctor_m2164514827
Iwf:_DateTime_System_IConvertible_ToChar_m2489529194_AdjustorThunk
ARb:__Z29Transfer_Blittable_ArrayFieldI24GenerateTypeTreeTransferyEvRT_R9ArrayInfoRK23StaticTransferFieldInfo
Pce:__ZN14PhysicsManager23VirtualRedirectTransferER18StreamedBinaryReadILb1EE
yP:__ZN4FMOD7SystemI9playSoundE17FMOD_CHANNELINDEXPNS_5SoundEbPPNS_7ChannelE
Die:__ZN13PhysicsModule31GetColliderComponentsInChildrenERK10GameObjectbbR13dynamic_arrayIPN5Unity9ComponentELj4EE
Soi:__ZL78ExecuteEvents_t1693084770_CustomAttributesCacheGenerator_U3CU3Ef__mgU24cache10P21CustomAttributesCache
O2:__GLOBAL__sub_I_runtime_graphics_mesh2_lump_cpp
qni:__ZL68PreferBinarySerialization_t2472773525_CustomAttributesCacheGeneratorP21CustomAttributesCache
MDb:__ZN19StreamedBinaryWriteILb0EE21TransferSTLStyleArrayINSt3__26vectorI17SubstanceEnumItemNS2_9allocatorIS4_EEEEEEvRT_17TransferMetaFlags
DGj:_AnimationPlayableUtilities_SetInputValidated_m2748997465
Xv:__ZN18StreamedBinaryReadILb0EE21TransferSTLStyleArrayI13dynamic_arrayI12PPtrKeyframeLj4EEEEvRT_17TransferMetaFlags
eKf:_List_1_Remove_m2616693989_gshared
Yyb:__ZN10VertexData13SwapEndianessEv
Jfl:_realloc
Ypc:__Z57Register_UnityEngine_Transform_INTERNAL_get_localRotationv
gHb:__ZN30RuntimeInitializeOnLoadManager23VirtualRedirectTransferER17RemapPPtrTransfer
ktl:dynCall_viif
WHh:_MonoField_get_DeclaringType_m1591666235
ALj:_InternalEnumerator_1__ctor_m2111763266_AdjustorThunk
anh:_Enumerator_MoveNext_m4234629003
V_a:__ZN29MotionVectorRenderLoopScratchD2Ev
Pig:_ButtonClickedEvent__ctor_m938038541
N3d:__ZN5physx2Sc24ConstraintProjectionTree11projectPoseERNS0_19ConstraintGroupNodeE
fPb:__ZL26Transfer_SimpleNativeClassI17RemapPPtrTransfer8GradientLb0EEvRK29SerializationCommandArgumentsR31RuntimeSerializationCommandInfo
NB:__ZN17AnimationPlayable26DisconnectNoTopologyChangeEPS_i
XEk:__ZN6il2cpp6icalls8mscorlib6System8MonoType14get_attributesEP20Il2CppReflectionType
Qfb:__Z43DestroyWithoutLoadingButDontDestroyFromFilei
Lie:__ZN13PhysicsModule29GetColliderMaterialInstanceIDER8Collider
jMg:_MonoType_GetDefaultConstructor_m925465120
sed:__ZNK5physx20NpRigidActorTemplateINS_18PxArticulationLinkEE14getConstraintsEPPNS_12PxConstraintEjj
aCe:__ZZN2UI14CanvasRenderer15InitializeClassEvEN34FunctorImpl_802kCanvasGroupChanged4CallEPviR11MessageData
srl:dynCall_viiiiiffi
Kki:__ZL95Physics2D_t2540166467_CustomAttributesCacheGenerator_Physics2D_Raycast_m2303387255____distance2P21CustomAttributesCache
Zc:_emscripten_glBlendFuncSeparate
sDh:_GenericTypeParameterBuilder_IsPrimitiveImpl_m1198748291
n6:__Z20scripting_string_newPKc
ooc:__Z43Material_CUSTOM_Internal_CreateWithMaterialP12Il2CppObjectS0_
rnc:__Z86Register_UnityEngine_Experimental_Director_Playable_INTERNAL_CALL_SetPlayStateInternalv
MEg:_Directory_GetCurrentDirectory_m44486537
nSi:__Z45RuntimeInvoker_RuntimeFieldHandle_t2331729674PK10MethodInfoPvPS2_
cWk:__ZNK24NamespaceAndNamePairHashclERKNSt3__24pairIPKcS3_EE
Pzk:__ZNK15dense_hashtableINSt3__24pairIK10KeyWrapperINS0_12basic_stringIcNS0_11char_traitsIcEENS0_9allocatorIcEEEEEP11Il2CppClassEES9_N6il2cpp5utils11StringUtils12StringHasherIS8_EEN14dense_hash_mapIS9_SC_SI_NS0_8equal_toIS9_EENS6_ISD_EEE9SelectKeyESL_SM_E5beginEv
nfb:__ZN29AssetBundleLoadAssetOperation34CollectFullPreloadDataDependenciesER13dynamic_arrayIiLj4EE
dWf:_Collection_1_System_Collections_ICollection_CopyTo_m1047946700_gshared
Bbj:__Z36RuntimeInvoker_Enumerator_t975728254PK10MethodInfoPvPS2_
Tuf:_Convert_ToInt64_m4057339019
Sed:__ZNK5physx19NpRigidBodyTemplateINS_18PxArticulationLinkEE27getMaxDepenetrationVelocityEv
Cgh:_AsnEncodedData_Default_m4197142414
O7d:__ZThn8_N5physx2Gu11HeightFieldD1Ev
pRk:__ZNSt3__218uninitialized_copyIPNS_4pairIK10KeyWrapperIP11Il2CppClassES4_EES8_EET0_T_SA_S9_
kAd:__ZN5physx19NpRigidBodyTemplateINS_14PxRigidDynamicEED0Ev
Icd:__ZNK5physx19PxArticulationJoint19getConcreteTypeNameEv
iN:__ZN17AudioCustomFilterD2Ev
Vsc:__ZN11IMGUIModule26SetDeveloperConsoleVisibleEb
Csc:__ZNK8GUIStyle13GetLineHeightEv
EHa:__ZN18GfxFramebufferGLES18ReleaseFramebufferEP17RenderSurfaceBaseP14GfxContextGLES
f0j:_Context_GetDynamicPropertyCollection_m1987747444
Phh:_X509Certificate2_get_Version_m1927399907
Xxc:__Z18Transfer_BlittableI8JSONReadLb1EiEvRK29SerializationCommandArgumentsR31RuntimeSerializationCommandInfo
qrg:_Image_RadialCut_m3229543088
GZ:__ZN19CloudServiceHandler34HandleSaveFileWebRequestPlayerLoopEv
oC:__ZN7mecanim21ValueArrayReverseCopyEPKNS_18ValueArrayConstantEPKNS_10ValueArrayES2_PS3_PKi
_M:__Z31GetParentSampleClipFromInstancePN11SoundHandle8InstanceE
X4b:__ZNK28RectTransformPropertyBinding13GetFloatValueERKN11UnityEngine9Animation10BoundCurveE
PXc:__ZN5physx11PxHitBufferINS_12PxOverlapHitEE14processTouchesEPKS1_j
qBd:__ZL22addOrRemoveRigidObjectILb0ELb0ELb0ELb1EN5physx3Scb11RigidStaticEEvRNS0_2Sc5SceneERT3_b
Fbl:__ZN6il2cpp2os16ThreadLocalValue8GetValueEPPv
zTj:_InternalEnumerator_1_System_Collections_IEnumerator_Reset_m196087328_AdjustorThunk
l$f:__ZN18VirtActionInvoker2Ii22UICharInfo_t3056636800E6InvokeEjPviS0_
mn:FUNCTION_TABLE_iiiiifiif
iNe:_SHA384Managed_Initialize_m712692291
vMj:_InternalEnumerator_1__ctor_m2688327768_gshared
fFf:_CompareInfo_get_LCID_m3346446356
M_f:_Collection_1_Add_m123318341_gshared
T4h:__ZL60CallingConvention_t3354538265_CustomAttributesCacheGeneratorP21CustomAttributesCache
gPe:__ZN21InterfaceFuncInvoker2IP8String_tS1_P12Il2CppObjectE6InvokeEjP11Il2CppClassPvS1_S3_
oqc:__Z52Object_CUSTOM_GetOffsetOfInstanceIDInCPlusPlusObjectv
Y5c:__ZN5physx6shdfnd4sortIPvNS0_4LessIS2_EENS0_19ReflectionAllocatorINS_2Cm5BlockIS2_Lj8EEEEEEEvPT_jRKT0_RKT1_j
VT:__ZN9AudioClip15InitializeClassEv
imd:__ZNK5physx9NpPhysics11getNbShapesEv
eq:setThrew
LOi:__Z36RuntimeInvoker_IntPtr_t_Il2CppObjectPK10MethodInfoPvPS2_
a7b:__ZL21BuildEmptyCubeTexturePKci11ColorRGBA3217TextureColorSpace
uZb:__ZN14SafeBinaryRead21TransferSTLStyleArrayINSt3__26vectorIN9ShaderLab20SerializedSubProgramENS1_9allocatorIS4_EEEEEEvRT_17TransferMetaFlags
GHe:__ZN13RuntimeStaticI20HardwareInfoReporterE10InitializeEv
fhg:_StandaloneInputModule_set_cancelButton_m2642677329
Sxc:__Z15Transfer_StringI8JSONReadLb1EEvRK29SerializationCommandArgumentsR31RuntimeSerializationCommandInfo
gpa:__ZN6prcoreL17RemapGenericFloatI17TexFormatRGBFloat15TexFormatRGHalfEEvPKNS_9InnerInfoE
RZa:__Z25DoForwardShaderRenderLoopR17RenderLoopContextR13dynamic_arrayI16RenderObjectDataLj4EERK11CullResultsbbbN6Camera10RenderFlagE
wpe:_sfnt_load_face
OWg:_PKCS12_GetSymmetricAlgorithm_m1812022677
Bmj:_UTF8Encoding_GetByteCount_m2372933408
c0j:_Context_get_NeedsContextSink_m1907794755
npe:_UNITY_ft_service_list_lookup
A0g:_ARC4Managed_GenerateKey_m716135508
OPb:__Z18Transfer_BlittableI17RemapPPtrTransferLb1E11ColorRGBA32EvRK29SerializationCommandArgumentsR31RuntimeSerializationCommandInfo
TWj:__ZN16VirtFuncInvoker2Ii40CustomAttributeTypedArgument_t1498197914S0_E6InvokeEjPvS0_S0_
gRc:__ZN5physx2Gu20intersectTriangleBoxERKNS_6PxVec3ES3_S3_S3_S3_
i3c:__ZN5physx6shdfnd5ArrayIPvNS0_19ReflectionAllocatorINS_2Sc18TriggerInteractionEEEE15growAndPushBackERKS2_
dld:__ZN5physx10NpMaterial8setFlagsENS_7PxFlagsINS_14PxMaterialFlag4EnumEtEE
zdb:__ZN13BaseAllocator13TryDeallocateEPv
mTb:__Z29Transfer_Blittable_ArrayFieldI19StreamedBinaryWriteILb0EEfEvRT_R9ArrayInfoRK23StaticTransferFieldInfo
Eef:_Array_CreateInstance_m1054139389
Bxi:_GUIStyleState_GetGUIStyleState_m2816150617
QMj:_InternalEnumerator_1__ctor_m967618647_AdjustorThunk
kcb:__ZN16MemoryFileSystem5WriteER13FileEntryDatayPvPy
Eqg:_LayoutGroup_GetAlignmentOnAxis_m1783063916
imb:__ZNSt3__26vectorIN12FlareManager10FlareEntryENS_9allocatorIS2_EEE21__push_back_slow_pathIKS2_EEvRT_
ozh:_Default_check_arguments_with_score_m1714931543
kBj:_Collision_get_impactForceSum_m521972354
BMe:_SHA1_Create_m4086509717
HPi:__Z57RuntimeInvoker_Il2CppObject_RuntimeTypeHandle_t2330101084PK10MethodInfoPvPS2_
Nhk:_UnityEvent_1_GetDelegate_m3098147632_gshared
FIh:_MonoMethodInfo_GetMethodInfo_m3298558752
FN:__ZN13AudioListener17RemoveFromManagerEv
Ud:_glAttachShader
ong:_Dropdown_SetAlpha_m2769981009
cee:__ZN5physx6shdfnd8internal8HashBaseINS0_4PairIKtPKcEEtNS0_4HashItEENS1_11HashMapBaseItS6_S9_NS_7profile26WrapperReflectionAllocatorIS6_EEE6GetKeyESD_Lb1EE6createERS4_Rb
GSa:__ZNK6Camera19GetProjectionMatrixEv
Jek:_Predicate_1_BeginInvoke_m1856151290_gshared
j5d:__ZNK5physx2Cm12DelegateTaskINS_2Sc5SceneEXadL_ZNS3_18clothPreprocessingEPNS_10PxBaseTaskEEEE7getNameEv
CGd:__ZNK5physx7NpScene24getWakeCounterResetValueEv
Bzd:__ZN5physx20NpRigidActorTemplateINS_14PxRigidDynamicEE17resolveReferencesERNS_24PxDeserializationContextE
F7f:_ReadOnlyCollection_1_System_Collections_IList_Contains_m673434054_gshared
swk:__ZN15dense_hashtableINSt3__24pairIK10KeyWrapperIPK22Il2CppGenericParameterEP11Il2CppClassEES6_N6il2cpp5utils11PointerHashIS4_EEN14dense_hash_mapIS6_S9_SE_NS0_8equal_toIS6_EENS0_9allocatorISA_EEE9SelectKeyESH_SJ_E8min_sizeEjj
b_i:__Z139RuntimeInvoker_Il2CppObject_Il2CppObject_Int32_t2071877448_SByte_t454417549_SByte_t454417549_SByte_t454417549_SByte_t454417549_Il2CppObjectPK10MethodInfoPvPS2_
wBf:_StackTrace__ctor_m2404985356
VXd:__ZN5physx2Gu32PCMConvexVsMeshContactGeneration20generateLastContactsEv
i8:__Z38PreallocateObjectFromPersistentManagerib
Wwf:_DateTime_System_IConvertible_ToSingle_m3927769066
All:__ZNSt3__211__money_getIwE13__gather_infoEbRKNS_6localeERNS_10money_base7patternERwS8_RNS_12basic_stringIcNS_11char_traitsIcEENS_9allocatorIcEEEERNS9_IwNSA_IwEENSC_IwEEEESJ_SJ_Ri
nld:__ZThn12_N5physx10NpMaterialD0Ev
Aqb:__ZNK9Texture2D20GetUnscaledTextureIDEv
cU:__ZN9AudioClip7PRODUCEE18MemLabelIdentifier18ObjectCreationMode
ool:__ZNSt3__26vectorIPNS_6locale5facetENS_15__sso_allocatorIS3_Lj28EEEE26__swap_out_circular_bufferERNS_14__split_bufferIS3_RS5_EE
cvf:_Convert_ToSByte_m883113940
xbe:__ZN5physx6shdfnd4sortIjNS_19SortBoundsPredicateENS0_19ReflectionAllocatorIjEEEEvPT_jRKT0_RKT1_j
pzl:_glFenceSync__wrapper
iNg:_MonoType_get_ContainsGenericParameters_m3229732653
Nnd:__ZN5physx7NpShape14onRefCountZeroEv
z3e:_Array_InternalArray__IndexOf_TisContactPoint_t1376425630_m3651364246_gshared
isi:__ZL53InputField_t1631627530_CustomAttributesCacheGeneratorP21CustomAttributesCache
a9k:__ZN6il2cpp2vm13ComObjectBaseINS0_13ManagedObjectE18Il2CppIInspectableNS0_7details6ComNilES5_S5_S5_S5_S5_S5_E16__CreateInstanceEP12Il2CppObject
X_d:__ZN5physx2Cm18DelegateFanoutTaskINS_2Sc5SceneEXadL_ZNS3_14postBroadPhaseEPNS_10PxBaseTaskEEEED0Ev
Wae:__ZL15TestContainmentRKN5physx6PxVec3EPKfjPKNS_2Gu15HullPolygonDataE
Fqb:__ZNK9Texture2D26CanReuploadDataToGfxDeviceEv
uVb:__ZN18StreamedBinaryReadILb0EE21TransferSTLStyleArrayI13dynamic_arrayI4AABBLj4EEEEvRT_17TransferMetaFlags
qsj:_UInt16_System_IConvertible_ToDouble_m4100549304_AdjustorThunk
WRi:__Z116RuntimeInvoker_Il2CppObject_Il2CppObject_Il2CppObject_Int32_t2071877448_Int32_t2071877448_MonoIOErrorU26_t1029615899PK10MethodInfoPvPS2_
rsa:__Z29ClearRepeatingLogMessageStatev
urc:__ZN13TextRendering17TextMeshGenerator13GetTextOffsetERK5RectTIfE
grk:_HashSet_1_OnDeserialization_m1222146673_gshared
X7d:__ZN5physx2Gu11HeightField12loadFromDescERKNS_17PxHeightFieldDescEb
MSe:_Single_System_IConvertible_ToInt16_m962677079
Bca:__ZN21EnlightenSceneMappingaSERKS_
X1f:_Collection_1_SetItem_m546457615_gshared
Ybl:__ZNK6il2cpp8metadata21Il2CppGenericInstHashclEPK17Il2CppGenericInst
_Se:_Single_System_IConvertible_ToUInt32_m2447833283
f8f:_ReadOnlyCollection_1_System_Collections_IList_Add_m3806843030_gshared
CMa:__ZN7ApiGLESD2Ev
l6a:__ZN9Transform47ClearTransformHierarchyAndApplyToSerializedDataEv
yQj:_InternalEnumerator_1_get_Current_m4083613828_AdjustorThunk
IDd:__ZN5physx6shdfnd8PoolBaseINS_2Gu30LargePersistentContactManifoldENS0_19ReflectionAllocatorIS3_EEE12allocateSlabEv
Xkd:__ZNK5physx10NpMaterial17getReferenceCountEv
Sok:_ObjectMover__ctor_m663908021
rKe:_RijndaelManaged_GenerateKey_m3366247933
sEg:_BinaryReader_ReadUInt64_m1893783375
fzj:_Bounds_op_Equality_m2161830280
aab:__ZN17PersistentManager9AddStreamEv
Htl:dynCall_fidi
Yuc:__Z47Register_UnityEngine_GUIStyle_set_imagePositionv
Z$d:__ZN5physx20getVertexEdgeIndicesERKNS_2Gu11HeightFieldEjjjPNS_8EdgeDataE
zuc:__Z49GUIStyle_CUSTOM_INTERNAL_CALL_Internal_DrawCursor13Il2Cpp_IntPtrRK5RectTIfEP12Il2CppObjectiRK10ColorRGBAf
Egj:_ScrollRect_set_movementType_m3292965850
zbi:__ZL59AttributeTargets_t1984597432_CustomAttributesCacheGeneratorP21CustomAttributesCache
PId:__ZN5physx6shdfnd5ArrayIPNS_2Sc8BodyCoreENS0_19ReflectionAllocatorIS4_EEE6resizeEjRKS4_
wIi:_RectTransform_set_anchorMin_m4247668187
EZc:__ZN5physx3Cct26CharacterControllerManager16createControllerERNS_9PxPhysicsEPNS_7PxSceneERKNS_16PxControllerDescE
FY:__ZN11UnityEngine15CloudWebService14RestDownloaderD2Ev
Oab:__Z29StdTemplateConversionFunctionIjhEbPvR14SafeBinaryRead
Dde:__ZNK12PhysXRaycast12BatchOverlapER13dynamic_arrayI15BatchedOverlapsLj4EEPP8Colliderj
OJf:_List_1_GrowIfNeeded_m2986672263_gshared
YKj:_ArrayReadOnlyList_1_Remove_m2325516426_gshared
uDb:__ZN14SubstanceInput8TransferI24GenerateTypeTreeTransferEEvRT_
Nof:_Hashtable_get_Count_m830088216
Bgc:__ZNK13MonoBehaviour13GetScriptTypeEv
c8d:__ZN5physx6shdfnd8internal8HashBaseIPNS_2Gu12TriangleMeshES5_NS0_4HashIS5_EENS1_11HashSetBaseIS5_S7_NS0_9AllocatorELb1EE6GetKeyES9_Lb1EE15reserveInternalEj
XJi:_ScriptableObject_CreateInstance_m3921674852
Ke:_SDL_FreeRW
WLd:__ZN5physx6shdfnd8PoolBaseINS_2Cm5BlockIhLj128EEENS0_19ReflectionAllocatorIS4_EEE15disposeElementsEv
KMe:_SHA1Internal_FillBuff_m891541953
Oei:__ZL62ResolveEventHandler_t3842432458_CustomAttributesCacheGeneratorP21CustomAttributesCache
Zvd:__ZN5physx3Scb14ParticleSystem14setRestOffsetsEjRKNS_16PxStrideIteratorIKjEERKNS2_IKfEE
sea:__ZN14dense_hash_mapINSt3__212basic_stringIcNS0_11char_traitsIcEE13stl_allocatorIcL18MemLabelIdentifier54ELi16EEEEP11AssetBundle11djb2_hash_tIS7_ENS0_8equal_toIS7_EENS0_9allocatorINS0_4pairIKS7_S9_EEEEE15set_deleted_keyERSG_
DS:__ZN20SoundChannelInstance8getDelayE14FMOD_DELAYTYPEPjS1_
Pgb:__ZN21AssetBundleFileSystemC2EPKc
jPi:__Z61RuntimeInvoker_Void_t1841601450_Il2CppObject_Int64_t909078037PK10MethodInfoPvPS2_
tsg:_InputField_set_customCaretColor_m3534590098
Ogj:_ScrollRect_set_viewport_m323693490
Zva:__ZN10UnitySceneD0Ev
sxg:_NumberFormatter_FormatExponential_m3975285307
ake:__ZNSt3__26vectorIN20TextRenderingPrivate8FontImpl13CharacterInfoE13stl_allocatorIS3_L18MemLabelIdentifier1ELi16EEE8__appendEj
u:tempBigInt
Se:_emscripten_glVertexAttrib1fv
LZb:__ZNSt3__26vectorIN9ShaderLab20SerializedSubProgram12UAVParameterENS_9allocatorIS3_EEE7reserveEj
kcf:_Array_InternalArray__get_Item_TisTypeTag_t141209596_m1747911007_gshared
Sch:_NameObjectCollectionBase__ctor_m2433753948
rwj:_AnimationCurve_Init_m1486386337
qCj:_Component_GetComponents_m3712441745
CHd:__ZN5physx13NpVolumeCacheC2EPNS_2Sq17SceneQueryManagerEjj
U6c:__ZThn24_N5physx2Sc20ArticulationJointSimD1Ev
dtg:_InputField_get_selectionAnchorPosition_m466595604
Yai:__ZL99Thread_t241561612_CustomAttributesCacheGenerator_Thread_t241561612____ExecutionContext_PropertyInfoP21CustomAttributesCache
_We:_DecoderReplacementFallback_get_DefaultString_m3399348550
rhk:_UnityAction_4_Invoke_m3312096275_gshared
Wvi:__ZL111LayoutUtility_t4076838048_CustomAttributesCacheGenerator_LayoutUtility_U3CGetPreferredHeightU3Em__5_m1524880643P21CustomAttributesCache
T9i:__Z57RuntimeInvoker_ResourceInfo_t3933049236_Int32_t2071877448PK10MethodInfoPvPS2_
nwk:__ZN15dense_hashtableINSt3__24pairIK10KeyWrapperIPK22Il2CppGenericParameterEP11Il2CppClassEES6_N6il2cpp5utils11PointerHashIS4_EEN14dense_hash_mapIS6_S9_SE_NS0_8equal_toIS6_EENS0_9allocatorISA_EEE9SelectKeyESH_SJ_EC2ERKSM_j
Xyk:__ZN15dense_hashtableINSt3__24pairIK10KeyWrapperIPK19Il2CppGenericMethodEPK26Il2CppGenericMethodIndicesEES6_N6il2cpp8metadata23Il2CppGenericMethodHashEN14dense_hash_mapIS6_SA_SE_NSD_26Il2CppGenericMethodCompareENS0_9allocatorISB_EEE9SelectKeyESG_SI_E13set_empty_keyERKSB_
_vd:__ZN5physx2Sc18ParticleSystemCore14setRestOffsetsEjRKNS_16PxStrideIteratorIKjEERKNS2_IKfEE
xRc:__ZN5physx2Gu16testPolyDataAxisERKNS0_8CapsuleVERKNS0_13PolygonalDataEPNS0_12SupportLocalERKNS_6shdfnd3aos6FloatVERSB_RNSA_5Vec3VE
bJi:_RectTransformUtility_ScreenPointToRay_m1842507230
N4a:__ZN16ReflectionProbes16UpdateSampleDataEv
oPi:__Z71RuntimeInvoker_Int32_t2071877448_Il2CppObject_Il2CppObject_Il2CppObjectPK10MethodInfoPvPS2_
L9c:__ZN5physx2Sc17ParticleSystemSimD0Ev
_Xk:__ZNK15dense_hashtableI10KeyWrapperIP18Il2CppGenericClassES3_N6il2cpp8metadata22Il2CppGenericClassHashEN14dense_hash_setIS3_S6_NS5_25Il2CppGenericClassCompareENSt3__29allocatorIS3_EEE8IdentityES8_SB_E10test_emptyERK30dense_hashtable_const_iteratorIS3_S3_S6_SD_S8_SB_E
PXj:_Enumerator_VerifyState_m2118679243_gshared
hYb:__ZN14SafeBinaryRead21TransferSTLStyleArrayI10vector_setI4PPtrI10MonoScriptENSt3__24lessIS4_EE13stl_allocatorIS4_L18MemLabelIdentifier76ELi16EEEEEvRT_17TransferMetaFlags
mTi:__Z103RuntimeInvoker_Il2CppObject_Il2CppObject_StreamingContext_t1417235061_ISurrogateSelectorU26_t2635255864PK10MethodInfoPvPS2_
BCb:__ZN18ProceduralMaterial23VirtualRedirectTransferER17RemapPPtrTransfer
$Zj:_SafeHandle_Finalize_m1839546519
lxb:__ZN14Texture2DArray5ResetEv
yyc:__ZN8JSONRead21TransferSTLStyleArrayINSt3__26vectorI10RectOffset13stl_allocatorIS3_L18MemLabelIdentifier1ELi16EEEEEEvRT_S5_17TransferMetaFlags
BUj:_InternalEnumerator_1_MoveNext_m252820768_AdjustorThunk
N0j:_Context_AllocateNamedDataSlot_m3200404053
vZa:__ZN14BatchAllocator6CommitE18MemLabelIdentifier
Ngh:_X509EnhancedKeyUsageExtension_Decode_m3866320499
oxg:_NumberFormatter_AppendIntegerStringWithGroupSeparator_m1401773574
BTf:_List_1_Remove_m1237648310_gshared
b3g:_CipherSuite_get_ServerHMAC_m3566778727
C1h:__ZL64DebuggerBrowsableState_t944457511_CustomAttributesCacheGeneratorP21CustomAttributesCache
of:_JS_Sound_Play
Wuk:__ZL25UnresolvedVirtualCall_174P12Il2CppObject23RaycastResult_t21186376S1_PK10MethodInfo
Frg:_Image_IsRaycastLocationValid_m864962354
Jil:__ZNSt3__219__libcpp_asprintf_lEPPcP15__locale_structPKcz
YYb:__ZN9ShaderLab16SerializedShader8TransferI14SafeBinaryReadEEvRT_
Zua:__ZN5Mutex7TryLockEv
vOi:__Z51RuntimeInvoker_Int16_t4041245914_Decimal_t724701077PK10MethodInfoPvPS2_
tLj:_InternalEnumerator_1_get_Current_m2151132603_gshared
cBj:_Collision_get_collider_m3340328360
hE:__ZN7mecanim8skeleton13SkeletonAlignEPKNS0_8SkeletonERKN4math7_float4ES7_i
Vjb:__ZN14SafeBinaryRead21TransferSTLStyleArrayIN4core12basic_stringIcNS1_20StringStorageDefaultIcEEEEEEvRT_17TransferMetaFlags
Rph:_RemotingConfiguration_RegisterWellKnownServiceType_m2491506630
xii:__ZL89Screen_t786852042_CustomAttributesCacheGenerator_Screen_t786852042____height_PropertyInfoP21CustomAttributesCache
EE:__ZNK26AnimatorControllerPlayable34GetAnimatorStateInfoFromStateIndexEiiR17AnimatorStateInfo
N5h:__ZL55_TypeBuilder_t2783404358_CustomAttributesCacheGeneratorP21CustomAttributesCache
yvk:__ZL25UnresolvedVirtualCall_204P12Il2CppObjectPK10MethodInfo
qbb:__Z29StdTemplateConversionFunctionIayEbPvR14SafeBinaryRead
XAd:__ZNK5physx20NpRigidActorTemplateINS_13PxRigidStaticEE14getConstraintsEPPNS_12PxConstraintEjj
VTc:__ZN25MeshMTDGenerationCallbackD0Ev
Lvg:_LayoutRebuilder_Initialize_m2671585490
mOf:_List_1_System_Collections_IList_IndexOf_m4061554721_gshared
kZ:__ZN11UnityEngine15CloudWebService14DataDispatcher4StopEv
k1g:_MD4Managed_H_m4236752602
NZb:__ZNSt3__26vectorIN9ShaderLab20SerializedSubProgram12UAVParameterENS_9allocatorIS3_EEE8__appendEj
bIf:_Enumerator_System_Collections_IEnumerator_Reset_m4029239424_AdjustorThunk
IYf:_Collection_1_GetEnumerator_m434271983_gshared
Yrc:__ZN5IMGUI9GUIWindow5OnGUIER8GUIState
dEe:__ZN22BaseUnityConnectClient24OnSaveFileFromServerDoneERK8UnityStrS2_bi
wI:__ZN18StreamedBinaryReadILb0EE19TransferSTLStyleMapINSt3__23mapIj8UnityStrNS2_4lessIjEENS2_9allocatorINS2_4pairIKjS4_EEEEEEEEvRT_17TransferMetaFlags
nec:__ZNK17AnimationCurveTplI11QuaternionfE8GetRangeEv
O$j:_LifetimeServices_set_LeaseTime_m1487876644
AAh:_ConstructorBuilder_not_supported_m3687319507
B$h:__ZL48IList_t3321498491_CustomAttributesCacheGeneratorP21CustomAttributesCache
bzc:__Z33EmitSerializationCommandsForFieldI9JSONWriteEvR18TransferField_InfoR32SerializationCommandQueueBuilderRP20AllowNameConversions
Tfd:__ZN5physx12NpConstraint8comShiftEPNS_12PxRigidActorE
RSe:_Single_System_IConvertible_ToInt64_m3555853323_AdjustorThunk
HXb:__Z23TransferScriptingObjectI19StreamedBinaryWriteILb0EEEvRT_P12Il2CppObjectP11Il2CppClassPK15MonoScriptCache
msl:dynCall_iifiii
B2i:__Z48RuntimeInvoker_PersistentListenerMode_t857969000PK10MethodInfoPvPS2_
z5i:__Z77RuntimeInvoker_Boolean_t3825574718_AspectModeU26_t218518220_Int32_t2071877448PK10MethodInfoPvPS2_
WYk:__ZNK15dense_hashtableINSt3__24pairIK10KeyWrapperIP12Il2CppObjectEN6il2cpp2gc9CachedCCWEEES5_NS7_5utils11PointerHashIS3_EEN14dense_hash_mapIS5_S9_SD_NS0_8equal_toIS5_EENS0_9allocatorISA_EEE9SelectKeyESG_SI_E3endEv
fTi:__Z87RuntimeInvoker_Il2CppObject_Il2CppObject_Il2CppObject_Il2CppObject_StringU26_t638738783PK10MethodInfoPvPS2_
Nta:__Z21HasAlphaTextureFormat13TextureFormat
yU:__ZN12AudioManager6UpdateEv
Lta:__ZN14ImageReference9BlitImageERKS_NS_8BlitModeE
uIh:_MonoMethod_get_MethodHandle_m1882915015
fx:__ZN8Animator12AddToManagerEv
Bok:_Fading_fadeIn_m1296971383
Q3h:__ZL93ConstructorInfo_t2851816542_CustomAttributesCacheGenerator_ConstructorInfo_Invoke_m2144827141P21CustomAttributesCache
H3a:__ZNK9ShaderLab9IntShader6GetTagEib
xQc:__ZNK5physx2Gu16SupportLocalImplINS0_11ConvexHullVEE9doSupportERKNS_6shdfnd3aos5Vec3VERNS5_6FloatVESA_
UKb:__ZN23CachedSerializationDataD2Ev
sNc:__ZNK5physx3Cct13BoxController8getActorEv
cob:__ZN14RenderSettings23VirtualRedirectTransferER14SafeBinaryRead
r2k:__ZN15dense_hashtableINSt3__24pairIK10KeyWrapperIPK19Il2CppGenericMethodEP10MethodInfoEES6_N6il2cpp8metadata23Il2CppGenericMethodHashEN14dense_hash_mapIS6_S9_SD_NSC_26Il2CppGenericMethodCompareENS0_9allocatorISA_EEE9SelectKeyESF_SH_E6insertERKSA_
mDc:__ZNK13b2CircleShape5CloneEP16b2BlockAllocator
i$k:__ZN6il2cpp2os10ThreadImpl15CurrentThreadIdEv
D1f:_Collection_1_System_Collections_IList_get_IsReadOnly_m4005091053_gshared
PC:__ZN30dense_hashtable_const_iteratorINSt3__24pairIKN11UnityEngine9Animation14GenericBindingENS3_10BoundIndexEEES4_NS3_25GenericBindingHashFunctorEN14dense_hash_mapIS4_S6_S8_NS3_30GenericBindingValueArrayUniqueE13stl_allocatorIS7_L18MemLabelIdentifier1ELi16EEE9SelectKeyESA_SD_E30advance_past_empty_and_deletedEv
Lkc:__Z36Renderer_Set_Custom_PropSortingOrderP12Il2CppObjecti
F_e:_Array_InternalArray__ICollection_Contains_TisColor32_t874517518_m2818328910_gshared
anb:__ZN17GlobalGameManager8TransferI17RemapPPtrTransferEEvRT_
O8d:__ZN5physx6shdfnd8internal8HashBaseIPNS_2Gu12TriangleMeshES5_NS0_4HashIS5_EENS1_11HashSetBaseIS5_S7_NS0_9AllocatorELb1EE6GetKeyES9_Lb1EE5eraseERKS5_
RZg:_AppDomainInitializer_EndInvoke_m4003801172
_Gi:_RaycastHit2D_get_point_m442317739
eXi:__Z72RuntimeInvoker_Il2CppObject_Il2CppObject_Decimal_t724701077_Il2CppObjectPK10MethodInfoPvPS2_
Pnb:__ZN16LevelGameManager8TransferI18StreamedBinaryReadILb0EEEEvRT_
Bxe:_UNITY_tt_face_load_fpgm
UDb:__ZN12InputManagerD0Ev
Ilg:_DefaultControls_CreateUIObject_m2810394112
x3i:__Z37RuntimeInvoker_FillMethod_t1640962579PK10MethodInfoPvPS2_
pzi:_GUIStyle_get_overflow_m1125058093
Lgj:_ScrollRect_get_scrollSensitivity_m1160815603
_Ye:_UnicodeEncoding_GetBytes_m1337660232
nJc:__ZN16Physics2DManager10CircleCastERK8Vector2ffS2_fiffPK10Collider2DbP12RaycastHit2Di
sKi:_SerializePrivateVariables__ctor_m806793207
pgd:__ZN5physx2Sc9RigidCore20removeShapeFromSceneERNS0_9ShapeCoreEb
_de:__ZN5physx6shdfnd8internal8HashBaseINS0_4PairIKPKcjEES5_NS0_4HashIS5_EENS1_11HashMapBaseIS5_jS9_NS_7profile26WrapperReflectionAllocatorIjEEE6GetKeyESD_Lb1EE15reserveInternalEj
ldl:___ctype_b_loc
x4:__ZN13RuntimeStaticI11WindManagerE16StaticInitializeEPv
jej:_VertexHelper_GetUIVertexStream_m3849188814
wXa:__ZNK19RenderEventsContext21ExecuteCommandBuffersEiR17ShaderPassContextRK15RenderNodeQueueP19ProfilerInformationi
sbe:__ZN5physx11RTreeCooker18buildFromTrianglesERNS_2Gu5RTreeEPKNS_6PxVec3EjPKtPKjjRNS_6shdfnd5ArrayIjNSB_19ReflectionAllocatorIjEEEEPNS0_13RemapCallbackEfNS_17PxMeshCookingHint4EnumE
Aad:__ZN5physx6shdfnd5ArrayIPvNS0_15InlineAllocatorILj256ENS0_19ReflectionAllocatorINS_14NpArticulationEEEEEE15growAndPushBackERKS2_
FVf:_List_1_get_Count_m1249351212_gshared
yVj:_InternalEnumerator_1_get_Current_m747506907_AdjustorThunk
rzj:_Camera_get_eventMask_m4241372419
a2d:__ZN29PxsCreateFinalizeContactsTaskD0Ev
Lwi:_GUILayoutUtility_LayoutFromEditorWindow_m1847418289
V2g:_CertificateValidationCallback2_BeginInvoke_m3996282202
Z9g:_SslClientStream_get_ClientCertSelectionDelegate_m2316959461
ymf:_SynchronizedArrayListWrapper_get_SyncRoot_m1466044127
l8:__ZNK15MonoScriptCache7ReleaseEv
Zdg:_EventTrigger_OnPointerExit_m2119176877
zZd:__ZN5physx9PxTaskMgrC2EPNS_15PxCpuDispatcherEPNS_15PxGpuDispatcherEPNS_15PxSpuDispatcherE
Dg:_glBindTexture
FYf:_Collection_1_ClearItems_m3585785594_gshared
Rdl:_snprintf
j7f:_ReadOnlyCollection_1_System_Collections_IList_get_IsReadOnly_m2918085566_gshared
avi:__ZL84HorizontalOrVerticalLayoutGroup_t1968298610_CustomAttributesCacheGenerator_m_SpacingP21CustomAttributesCache
Vyh:_Binder__ctor_m1361613966
atg:_InputField_set_caretPosition_m888572237
VDh:_ILGenerator__cctor_m3943061018
Olf:_ArrayListWrapper_Clone_m1506311066
q3g:_CipherSuite_set_Context_m4127897124
vKa:__ZN16UniformCacheGLES6CreateERK20GpuProgramParameters
Kmj:_UTF8Encoding_Fallback_m811555654
hI:__ZN7mecanim12statemachine13StateConstant8TransferI24GenerateTypeTreeTransferEEvRT_
aKi:_ScriptableObject_t1975622470_marshal_pinvoke_cleanup
bYe:_Encoding_GetString_m1894033578
y6f:_ReadOnlyCollection_1_System_Collections_IList_Clear_m1918003010_gshared
Gik:_TextGenerator_t647235000_marshal_pinvoke_cleanup
Bwl:_emscripten_glGetProgramInfoLog__wrapper
pli:__ZL94Font_t4239498691_CustomAttributesCacheGenerator_Font_InvokeTextureRebuilt_Internal_m2007522718P21CustomAttributesCache
Xaa:__ZN17PersistentManager23DestroyFromFileInternalEi
zji:__ZL98Object_t1021602117_CustomAttributesCacheGenerator_Object_DoesObjectWithInstanceIDExist_m2570795274P21CustomAttributesCache
vDf:_Enum_ToString_m2112979707
fik:_TextGenerator_ValidatedSettings_m1640214759
l7h:__ZL55SoapServices_t3397513225_CustomAttributesCacheGeneratorP21CustomAttributesCache
inh:_MonoMethodMessage_get_MethodName_m3580519713
ZE:__ZN26AnimatorControllerPlayable18PrepareForPlaybackERN7mecanim6memory9AllocatorE
HPd:__ZN5physx19PxsMaterialCombiner24combineIsotropicFrictionERKNS_15PxsMaterialDataES3_
CDf:_Enum_t2459695545_marshal_pinvoke_cleanup
Fmj:_UTF8Encoding_GetBytes_m4170182058
qdf:_Mesh_GetAllocArrayFromChannel_TisColor32_t874517518_m2030100417_gshared
exd:__ZN5physx22NpParticleBaseTemplateINS_16PxParticleSystemENS_16NpParticleSystemEE20lockParticleReadDataEv
Nka:__ZN22CreateGpuProgramOutputC2Ev
FCi:_Object__ctor_m197157284
hHg:_MemoryStream_InternalConstructor_m2423667240
m7j:_CapturingGroup_set_Index_m2175936006
Kol:__ZNSt13runtime_errorC2ERKNSt3__212basic_stringIcNS0_11char_traitsIcEENS0_9allocatorIcEEEE
GLi:__Z70RuntimeInvoker_Il2CppObject_Il2CppObject_Il2CppObject_SByte_t454417549PK10MethodInfoPvPS2_
goh:_SoapMethodAttribute_SetReflectionObject_m3431595769
A9d:__ZN5physx7Cooking16cookTriangleMeshERKNS_18PxTriangleMeshDescERNS_14PxOutputStreamE
pjj:_Slider_set_maxValue_m2951480075
B8b:__ZN8GUILayer12CleanupClassEv
M7c:__ZN5physx2Sc7ElementD0Ev
Zbe:__ZN5physx6shdfnd10Foundation7releaseEv
nxk:__ZN6il2cpp2vm5Class4InitEP11Il2CppClass
H4:__ZN19ShaderPropertySheet27AddNewPropertyUninitializedERKN9ShaderLab16FastPropertyNameENS_12PropertyTypeEijj
Tc:invoke_vidi
Kdc:__ZNK15GUIEventManager15GetEventAtIndexEi
WAe:__ZN2UI14CanvasRenderer17SyncDirtyElementsER8JobFence
gUb:__Z18Transfer_BlittableI18StreamedBinaryReadILb0EELb0ExEvRK29SerializationCommandArgumentsR31RuntimeSerializationCommandInfo
zkg:_ColorBlock_op_Inequality_m1517672458
i_k:__ZN6il2cpp5utils11StringUtils15StringDuplicateEPKc
nVk:__ZN6il2cpp2vm9Exception32GetPlatformNotSupportedExceptionEPKc
eka:__ZNK9ShaderLab21ShaderRasterStateDesc16ToGfxRasterStateEPK19ShaderPropertySheetS3_R14GfxRasterState
Asg:_InputField_set_onValueChange_m1749304609
M0a:__Z16RenderShadowMapsPK18ShadowMapJobHeaderR17ShaderPassContext
Wvh:_CspParameters__ctor_m2480441577
Vbl:__ZN6il2cpp2os9EventImplC2Ebb
o0j:_DynamicPropertyCollection_NotifyMessage_m840388347
x8j:_Uri_ParseUri_m5711497
cJ:__ZN4PPtrI13MonoBehaviourE8TransferI19StreamedBinaryWriteILb0EEEEvRT_
Gje:__ZN14SafeBinaryRead21TransferSTLStyleArrayINSt3__26vectorI8UnityStr13stl_allocatorIS3_L18MemLabelIdentifier34ELi16EEEEEEvRT_17TransferMetaFlags
njb:__ZNK5Unity9Component26GetTypeInfoVirtualInternalEv
c5:__Z20IsMatrixBuiltinParamPKcPi
ZWi:__Z63RuntimeInvoker_Void_t1841601450_Il2CppObject_Decimal_t724701077PK10MethodInfoPvPS2_
_si:__ZL108MaskableGraphic_t540192618_CustomAttributesCacheGenerator_MaskableGraphic_ParentMaskStateChanged_m3643747340P21CustomAttributesCache
cGj:_Playable_INTERNAL_CALL_GetInputInternal_m1720243548
A7b:__ZN8Renderer19PostInitializeClassEv
Mba:__ZN13RuntimeStaticINSt3__23mapINS0_12basic_stringIcNS0_11char_traitsIcEENS0_9allocatorIcEEEES7_NS0_4lessIS7_EE13stl_allocatorINS0_4pairIKS7_S7_EEL18MemLabelIdentifier12ELi16EEEEE16StaticInitializeEPv
Vme:__ZN20TextRenderingPrivate15DynamicFontDataD2Ev
SLj:_InternalEnumerator_1_get_Current_m1943362081_AdjustorThunk
llk:_Vector3_get_sqrMagnitude_m1814096310_AdjustorThunk
til:__ZNKSt3__27num_getIwNS_19istreambuf_iteratorIwNS_11char_traitsIwEEEEE15__do_get_signedIxEES4_S4_S4_RNS_8ios_baseERjRT_
w7k:__ZN6il2cpp6icalls8mscorlib6System8Delegate23CreateDelegate_internalEP20Il2CppReflectionTypeP12Il2CppObjectP22Il2CppReflectionMethodb
ugl:__ZNSt3__214basic_iostreamIcNS_11char_traitsIcEEED0Ev
izh:_Default_check_type_m2363631305
PKb:__ZN18DelayedCallManager18CancelCallDelayed2E4PPtrI6ObjectEPF15CallObjectStatePS1_PvES7_
gOf:_List_1__cctor_m911493842_gshared
Edb:__ZN25ThreadsafeLinearAllocator10ReallocateEPvji
PMb:__Z18Transfer_BlittableI14SafeBinaryReadLb1E11QuaternionfEvRK29SerializationCommandArgumentsR31RuntimeSerializationCommandInfo
Wdd:__ZNK5physx18PxArticulationLink8isKindOfEPKc
F3e:_Array_InternalArray__IndexOf_TisRaycastHit2D_t4063908774_m3739817942_gshared
dJh:_MonoProperty_GetAccessors_m3704698731
ySi:__Z146RuntimeInvoker_Il2CppObject_Int32_t2071877448_Il2CppObject_ObjectU5BU5DU26_t3223402458_Il2CppObject_Il2CppObject_Il2CppObject_ObjectU26_t597476745PK10MethodInfoPvPS2_
Uhe:__Z25CreatePxMeshFromUnityMeshP4MeshbbRK10Matrix4x4f13TransformTypef
Y6k:_GC_disable
szb:__ZN10Matrix4x4f8TransferI14SafeBinaryReadEEvRT_
fn:FUNCTION_TABLE_vifiiiiiiiiiiiiiiiiii
zKg:_UnmanagedMemoryStream_ReadByte_m2501145010
SRh:_Dictionary_2__ctor_m406310120_gshared
Gs:__ZN15SerializeTraitsI13dynamic_arrayIN11UnityEngine9Animation14GenericBindingELj4EEE19ResizeSTLStyleArrayERS4_i18MemLabelIdentifier
Prh:_ObjectRecord_UnchainFixup_m3025030310
XE:__ZN14AvatarPlayback8StopTimeEv
Pll:__ZNSt3__28messagesIcED0Ev
RZh:__ZL60MulticastDelegate_t3201952435_CustomAttributesCacheGeneratorP21CustomAttributesCache
Aie:__ZN14PhysicsManager7PRODUCEE18MemLabelIdentifier18ObjectCreationMode
S7b:__ZN19ShaderPropertySheet16SetVectorIndexedERKN9ShaderLab16FastPropertyNameEifRK8Vector4fNS_8SetFlagsE
hra:__ZL14OnWorldStoppedv
OVb:__Z18Transfer_BlittableI18StreamedBinaryReadILb1EELb0E8Vector3fEvRK29SerializationCommandArgumentsR31RuntimeSerializationCommandInfo
D$i:__Z35RuntimeInvoker_Playable_t3667545548PK10MethodInfoPvPS2_
egb:__ZN14CachingManager15ClearTempFolderEv
bsi:__ZL61Image_t2042527209_CustomAttributesCacheGenerator_m_FillCenterP21CustomAttributesCache
ADa:__ZN7ApiGLES18ClearBufferSubDataEjN2gl12BufferTargetEll
djk:_Touch_get_type_m3264731406_AdjustorThunk
tic:__Z37Camera_Get_Custom_PropAllCamerasCountv
Gxb:__ZN14Texture2DArray8TransferI18StreamedBinaryReadILb0EEEEvRT_
qhd:__ZN5physx15NpActorTemplateINS_18PxArticulationLinkEED2Ev
Ruc:__Z38Register_UnityEngine_GUIStyle_get_namev
AGg:_FileStreamAsyncResult__ctor_m1096228032
cse:_Split_Cubic
jb:invoke_fiiii
yHb:__ZNSt3__26vectorIN30RuntimeInitializeOnLoadManager15ClassMethodInfoE13stl_allocatorIS2_L18MemLabelIdentifier12ELi16EEE26__swap_out_circular_bufferERNS_14__split_bufferIS2_RS5_EE
zhg:_StandaloneInputModule_ProcessMouseEvent_m3840335260
Syf:_DBNull_System_IConvertible_ToSByte_m1228193074
lYf:_Collection_1__ctor_m2818834331_gshared
Ecf:_Array_InternalArray__get_Item_TisUICharInfo_t3056636800_m3872982785_gshared
Khe:__Z19ExtractDataFromMeshR4MeshR13dynamic_arrayI8Vector3fLj4EERS1_ItLj2EES6_
OHj:_Playables_InternalDestroy_m3873600434
k$k:__ZN6il2cpp2os10ThreadImpl22CreateForCurrentThreadEv
F$f:_Collection_1_Insert_m3041550124_gshared
Vml:__ZNKSt3__25ctypeIcE9do_narrowEPKcS3_cPc
Iid:__ZN5physx2Sc16ArticulationCore26setMaxProjectionIterationsEj
_Fg:_FileStream_FlushBuffer_m2594140542
zXc:__ZN26IntersectAnyVsMeshCallbackILi1ELb0EED2Ev
rvc:__Z64Register_UnityEngine_GUIStyle_GetFontInternalDuringLoadingThreadv
d9i:__Z76RuntimeInvoker_Void_t1841601450_Int32U5BU5DU26_t1341332175_Int32_t2071877448PK10MethodInfoPvPS2_
GMc:__ZN15ContactFilter2D13ShouldCollideEP9b2FixtureS1_
Qre:_ft_black_render
u3k:__ZN6il2cpp2vm8Profiler12GCHeapResizeEx
Otl:dynCall_viiifi
iHa:__ZN18GfxFramebufferGLES20ActiveContextChangedEPP17RenderSurfaceBaseS2_
tei:__ZL51TimeSpan_t3430258949_CustomAttributesCacheGeneratorP21CustomAttributesCache
eHa:__Z19PluginsRenderMarkeri
Dji:__ZL80Object_t1021602117_CustomAttributesCacheGenerator_Object_Instantiate_m2439155489P21CustomAttributesCache
HK:__ZN10HumanTrait18InitializeBoneNameEv
JSh:_DefaultComparer__ctor_m899694595_gshared
dvf:_Convert_ToSByte_m1570938941
eIk:__ZN6il2cpp2gc19AppendOnlyGCHashMapINSt3__24pairIPK14Il2CppAssemblyP11Il2CppClassEEP24Il2CppReflectionAssembly17ReflectionMapHashIS9_E19ReflectionMapEqualsIS9_EE11TryGetValueERKS9_PSB_
ZUb:__Z29Transfer_Blittable_ArrayFieldI18StreamedBinaryReadILb0EEyEvRT_R9ArrayInfoRK23StaticTransferFieldInfo
bVh:_EqualityComparer_1_get_Default_m875724809_gshared
H_a:__ZN14qsort_internal6_QSortIP15RODataDepthPassi17ROSorterDepthPassEEvT_S4_T0_T1_
ZWk:__ZNSt3__214__split_bufferIN6il2cpp2vm5Image20EmbeddedResourceDataERNS_9allocatorIS4_EEEC2EjjS7_
JUa:__ZN5Image13ReformatImageERK14ImageReferenceii13TextureFormatNS0_8BlitModeE
Z4h:__ZL57DispIdAttribute_t607560947_CustomAttributesCacheGeneratorP21CustomAttributesCache
qN:__ZN12AudioManager17RemoveAudioSourceEP11AudioSource
eDj:_CullingGroup_Finalize_m3172731580
_6d:__ZNK5physx2Gu10ConvexMesh17getReferenceCountEv
scf:_Array_InternalArray__get_Item_TisUInt64_t2909196914_m2580870875_gshared
_Gd:__ZN5physx2Sc5Scene22setNbContactDataBlocksEj
pYg:_SecurityParser_OnEndElement_m2909940377
zV:__ZN5physx14PxLightCpuTask12addReferenceEv
FJc:__Z10b2DistanceP16b2DistanceOutputP14b2SimplexCachePK15b2DistanceInput
Ssb:__ZN21EnlightenSceneMapping8TransferI19StreamedBinaryWriteILb0EEEEvRT_
eZk:__ZN6il2cpp2gc16GarbageCollector19InitializeFinalizerEv
Nrc:__ZN10GUIManager10DoGUIEventER10InputEventb
I3g:_Context_get_ClientWriteKey_m2235605337
j8h:__ZL66DESCryptoServiceProvider_t933603253_CustomAttributesCacheGeneratorP21CustomAttributesCache
_3k:_GC_bl_init_no_interiors
nal:__ZN6il2cpp2vm13LibraryLoader21SetFindPluginCallbackEPFPKcS3_E
Z4:__Z20CalculateSqrDistanceRK8Vector3fRK4AABB
_Oj:_InternalEnumerator_1_get_Current_m2415979394_AdjustorThunk
vfb:__Z20GetAssetBundlePrefixRKNSt3__212basic_stringIcNS_11char_traitsIcEENS_9allocatorIcEEEE
kie:__ZN14PhysicsManager15ProcessContactsEv
bVc:__ZN21BoxTraceSegmentReport7onEventEjPj
Ddd:__ZN5physx2Sc21ArticulationJointCore13setSwingLimitEff
pR:__Z32AudioMixerDuckingProcessCallbackP21UnityAudioEffectStatePfS1_jii
OQc:__ZL20HullProjectionCB_BoxRKN5physx2Gu13PolygonalDataERKNS_6PxVec3ERKNS_2Cm8Matrix34ERKNS7_23FastVertex2ShapeScalingERfSE_
Uzh:_CustomAttributeTypedArgument_GetHashCode_m999147081_AdjustorThunk
mMi:__Z48RuntimeInvoker_Void_t1841601450_SByte_t454417549PK10MethodInfoPvPS2_
YId:__ZN5physx17PxcNpMemBlockPool19releaseUnusedBlocksEv
iGg:_FileStream_Read_m3880951166
zVd:__ZN5physx14PxsAABBManager21selfCollideAggregatesEPKNS_19AggregateSortedDataE
$N:__ZN12AudioManager8TransferI24GenerateTypeTreeTransferEEvRT_
Lna:__Z25GetBytesFromTextureFormat13TextureFormat
Ita:__ZN9Texture3D19UnloadFromGfxDeviceEb
H1d:__ZN5physx12_GLOBAL__N_112innerProductERKNS_14Px1DConstraintERS1_RKNS0_9MassPropsE
Qll:__ZNKSt3__28messagesIcE7do_openERKNS_12basic_stringIcNS_11char_traitsIcEENS_9allocatorIcEEEERKNS_6localeE
XJc:__ZNK10Collider2D12OverlapPointERK8Vector2f
I$e:_Array_InternalArray__ICollection_Remove_TisContactPoint_t1376425630_m2242111467_gshared
lsl:dynCall_iifff
F$a:__Z26FindForwardLightsForObjectR13dynamic_arrayIhLj1EEPK11CulledLightjRK12ActiveLightsRK10RenderNodebRK23FindForwardLightsParams
lj:_emscripten_webgl_init_context_attributes
dt:__Z14resize_trimmedINSt3__26vectorIN13AnimationClip9PPtrCurveE13stl_allocatorIS3_L18MemLabelIdentifier25ELi16EEEEEvRT_j
GJc:__ZN9b2Simplex9ReadCacheEPK14b2SimplexCachePK15b2DistanceProxyRK11b2TransformS5_S8_
XPh:_Dictionary_2_Resize_m2532139610_gshared
fLi:_StackTraceUtility__cctor_m1132099289
wTf:_List_1_IndexOf_m2019441835_gshared
NRd:__ZN5physx26PxcFrictionPatchStreamPairC2ERNS_17PxcNpMemBlockPoolE
Rpj:_TimeSpan_Equals_m2029123271_AdjustorThunk
GCk:__ZN6il2cpp2vm13MetadataCache23GetInvokerMethodPointerEPK10MethodInfoPK20Il2CppGenericContext
GLa:__ZN9GfxDevice21RegisterNativeTextureE9TextureIDi16TextureDimension
uFf:_CultureInfo__ctor_m456863818
I8k:__ZN6il2cpp6icalls8mscorlib6System10Reflection4Emit11TypeBuilder20create_generic_classEP27Il2CppReflectionTypeBuilder
tLk:__ZNK15dense_hashtableINSt3__24pairIK10KeyWrapperINS1_IPK12PropertyInfoP11Il2CppClassEEEjEES9_17ReflectionMapHashIS8_EN14dense_hash_mapIS9_jSD_19ReflectionMapEqualsIS8_ENS0_9allocatorISB_EEE9SelectKeyESG_SI_E13find_positionERSA_
NFk:__ZNSt3__26vectorIPK10MethodInfoNS_9allocatorIS3_EEE26__swap_out_circular_bufferERNS_14__split_bufferIS3_RS5_EE
dga:__ZN12ScriptMapper10FindShaderERKNSt3__212basic_stringIcNS0_11char_traitsIcEENS0_9allocatorIcEEEE
APf:_List_1_AsReadOnly_m1925066867_gshared
CIf:_Enumerator_MoveNext_m2504790928_gshared
gui:__ZL61Slider_t297367283_CustomAttributesCacheGenerator_m_HandleRectP21CustomAttributesCache
R$:__ZN3WWW20GetCachedErrorStringEv
BKi:_SliderState__ctor_m1096533539
f2b:__ZN12ScriptMapperD2Ev
Cla:__ZNSt3__26__treeINS_12__value_typeI8UnityStrS2_EENS_19__map_value_compareIS2_S3_NS_4lessIS2_EELb1EEE13stl_allocatorIS3_L18MemLabelIdentifier1ELi16EEE7destroyEPNS_11__tree_nodeIS3_PvEE
Xyl:b100
Voi:__ZL85AxisEventData_t1524870173_CustomAttributesCacheGenerator_U3CmoveDirU3Ek__BackingFieldP21CustomAttributesCache
ijd:__ZNK5physx14NpSceneQueries10multiQueryINS_12PxOverlapHitEEEbRKNS_15MultiQueryInputERNS_13PxHitCallbackIT_EENS_7PxFlagsINS_9PxHitFlag4EnumEtEEPKNS_12PxQueryCacheERKNS_17PxQueryFilterDataEPNS_21PxQueryFilterCallbackEPNS_20BatchQueryFilterDataE
Zug:_LayoutElement_get_preferredWidth_m3246897845
Hak:_X509Certificate_PEM_m49854707
Lhe:__ZL21GetMeshLocationDetailR4Mesh
Qgh:_X509BasicConstraintsExtension__ctor_m3320418592
R9j:_ExtendedKeyUsageExtension_Decode_m901297139
O_b:__Z32TransferEnumWithNameForceIntSizeI14SafeBinaryRead7FogModeEvRT_RT0_PKc17TransferMetaFlags
opc:__Z52Register_UnityEngine_RenderTexture_Internal_GetWidthv
w0h:__ZL89SafeWaitHandle_t481461830_CustomAttributesCacheGenerator_SafeWaitHandle__ctor_m1710231470P21CustomAttributesCache
I5k:_GC_check_leaked
Q0b:__ZN9ShaderLab20SerializedSubProgram16TextureParameter8TransferI19StreamedBinaryWriteILb0EEEEvRT_
Bb:invoke_fiiiiiiiifiiiif
d7e:_Array_InternalArray__Insert_TisVector4_t2243707581_m1643342708_gshared
_Nk:__ZN15dense_hashtableINSt3__24pairIK10KeyWrapperINS1_IPK14Il2CppAssemblyP11Il2CppClassEEEjEES9_17ReflectionMapHashIS8_EN14dense_hash_mapIS9_jSD_19ReflectionMapEqualsIS8_ENS0_9allocatorISB_EEE9SelectKeyESG_SI_EC2EjRKSD_RKSG_RKSK_
p8a:__Z18SkinGenericMathLibILi4ELb0ELb0EEvR12SkinMeshInfo
Ycj:_Mask_OnSiblingGraphicEnabledDisabled_m865494155
qdh:_KeysCollection_System_Collections_ICollection_get_SyncRoot_m2289369147
tZ:__ZN11UnityEngine15CloudWebService16SessionContainer8AddEventEPNS0_14CloudEventInfoE
ykj:_Text_set_resizeTextMaxSize_m4034967714
c0h:__ZL55GuidAttribute_t222072359_CustomAttributesCacheGeneratorP21CustomAttributesCache
Ixi:_GUIStyle_SetDefaultFont_m2095841351
Izh:_CustomAttributeNamedArgument_Equals_m2691468532
NXk:__ZN15dense_hashtableI10KeyWrapperIP18Il2CppGenericClassES3_N6il2cpp8metadata22Il2CppGenericClassHashEN14dense_hash_setIS3_S6_NS5_25Il2CppGenericClassCompareENSt3__29allocatorIS3_EEE8IdentityES8_SB_E14squash_deletedEv
$Yh:__ZL74String_t_CustomAttributesCacheGenerator_String_Concat_m3881798623____args0P21CustomAttributesCache
d8h:__ZL103CryptoConfig_t896479599_CustomAttributesCacheGenerator_CryptoConfig_CreateFromName_m2169102076____args1P21CustomAttributesCache
Xyb:__ZN10VertexData8TransferI14SafeBinaryReadEEvRT_
Kcd:__ZN5physx19NpArticulationJointD0Ev
sP:__ZN4FMOD8ChannelI8setDelayE14FMOD_DELAYTYPEjj
Rqf:_Stack__ctor_m2410583781
ZJk:__ZN6il2cpp2gc19AppendOnlyGCHashMapINSt3__24pairIPK10MethodInfoP11Il2CppClassEEP22Il2CppReflectionMethod17ReflectionMapHashIS9_E19ReflectionMapEqualsIS9_EE11TryGetValueERKS9_PSB_
kfb:__ZN15SerializeTraitsINSt3__24pairI8UnityStrN11AssetBundle9AssetInfoEEEE8TransferI18StreamedBinaryReadILb0EEEEvRS5_RT_
gje:__Z59Register_UnityEngine_Physics_INTERNAL_CALL_Internal_Raycastv
jKk:__ZNK19ReflectionMapEqualsINSt3__24pairIPK10MethodInfoP11Il2CppClassEEEclERK10KeyWrapperIS7_ESC_
gzh:_Default_GetBetterMethod_m4255740863
LAh:_ConstructorBuilder_GetILGenerator_m1731893569
AFd:__ZNK5physx7NpScene17getFilterCallbackEv
Obj:__Z48RuntimeInvoker_UIVertex_t1204258818_Il2CppObjectPK10MethodInfoPvPS2_
$Wk:__ZNSt3__214__split_bufferIN6il2cpp2vm5Image20EmbeddedResourceDataERNS_9allocatorIS4_EEED2Ev
h7:__ZL20SortItemByInstanceIDRKN18AwakeFromLoadQueue4ItemES2_
gge:__ZN5physx6shdfnd5ArrayIPvNS0_15InlineAllocatorILj256ENS0_19ReflectionAllocatorINS_24NpPtrTableStorageManager8PtrBlockILi16EEEEEEEE15growAndPushBackERKS2_
xFh:_TypeBuilder_create_runtime_class_m2719530260
qLe:_RNGCryptoServiceProvider_RngClose_m2921734810
x8a:__Z26SkinVerticesGenericMathLibILi1ELb1ELb1EEvPKhiiiiPhiPKvS4_
y1e:_Array_InternalArray__IEnumerable_GetEnumerator_TisVector2_t2243707579_m829381124_gshared
ZGe:__ZN20UnityConnectSettings8TransferI24GenerateTypeTreeTransferEEvRT_
HD:__ZN34BlobWriteTransferSTLStyleArrayImplI22OffsetPtrArrayTransferIbEEclERS1_17TransferMetaFlagsR9BlobWrite
Ygi:__ZL199U3CCreateWhereIteratorU3Ec__Iterator1D_1_t2523986802_CustomAttributesCacheGenerator_U3CCreateWhereIteratorU3Ec__Iterator1D_1_System_Collections_Generic_IEnumeratorU3CTSourceU3E_get_Current_m517722874P21CustomAttributesCache
raj:__Z37RuntimeInvoker_LabelFixup_t4090909514PK10MethodInfoPvPS2_
y4f:_ReadOnlyCollection_1_Contains_m1227826160_gshared
DZj:_GCHandle_GetHashCode_m1664905595_AdjustorThunk
xPg:_SimpleCollator_IsHalfKana_m4255579023
dbh:_InternalAsyncResult_get_Count_m1291942796
hWf:_Collection_1_System_Collections_IList_Contains_m3365884450_gshared
Fnd:__ZN5physx7NpShape13setRestOffsetEf
W1f:_Collection_1_set_Item_m3440986310_gshared
FVg:_KeyGeneratedEventHandler_Invoke_m760006389
Gig:_BaseMeshEffect__ctor_m2843647600
U$g:_ASN1__ctor_m3688855288
fod:__ZN5physxL11getTriangleERKNS_2Gu12TriangleMeshEjPNS_6PxVec3EPKS4_PKvRKNS_2Cm8Matrix34Eb
kU:__ZN13AudioListener12CleanupClassEv
RYk:__ZN15dense_hashtableINSt3__24pairIK10KeyWrapperIP12Il2CppObjectEN6il2cpp2gc9CachedCCWEEES5_NS7_5utils11PointerHashIS3_EEN14dense_hash_mapIS5_S9_SD_NS0_8equal_toIS5_EENS0_9allocatorISA_EEE9SelectKeyESG_SI_E9copy_fromERKSL_j
hde:__ZN14SafeBinaryRead21TransferSTLStyleArrayINSt3__26vectorIjNS1_9allocatorIjEEEEEEvRT_17TransferMetaFlags
B5g:_ClientSessionInfo_Dispose_m2571428025
Jca:__Z13GetIEnlightenv
V8g:_RecordProtocol_decryptRecordFragment_m2510859489
lpd:__ZNK5physx7NpCloth16lockParticleDataEv
kdg:_BaseRaycaster_get_sortOrderPriority_m3340181311
OEb:__ZN11TimeManager8TransferI19StreamedBinaryWriteILb0EEEEvRT_
TGg:_DelegatePInvokeWrapper_ReadDelegate_t3184826381
Tgi:__ZL91HashSet_1_t2624254809_CustomAttributesCacheGenerator_HashSet_1_OnDeserialization_m627602129P21CustomAttributesCache
bte:_compare_uni_maps
Yxe:__ZL34RegisterModuleICalls_TextRenderingv
mFe:__ZN11UnityEngine15PlatformWrapper27GetGraphicsCapsSupportFlagsEv
lze:__ZNSt3__218__insertion_sort_3IRPFbPN2UI6CanvasES3_EPS3_EEvT0_S8_T_
rZh:__ZL80Decimal_t724701077_CustomAttributesCacheGenerator_Decimal_op_Explicit_m714968249P21CustomAttributesCache
hAf:_Decimal_Equals_m1115043331
MKd:__ZN5physx13NpRigidStatic9visualizeERNS_2Cm12RenderOutputEPNS_7NpSceneE
vTb:__ZN12NativeBufferI16Converter_StringE15SetupForWritingER9ArrayInfo
LAl:___cxa_end_catch__wrapper
vkl:__ZNSt3__210moneypunctIcLb0EED0Ev
Lj:_emscripten_glVertexAttrib3fv
Ixd:__ZNK5physx22NpParticleBaseTemplateINS_16PxParticleSystemENS_16NpParticleSystemEE13getRestOffsetEv
gNd:__ZN5physx6shdfnd8PoolBaseINS_2Sc35ParticleElementRbElementInteractionENS0_19ReflectionAllocatorIS3_EEE15disposeElementsEv
WOh:_ValueCollection_System_Collections_Generic_ICollectionU3CTValueU3E_Clear_m231380274_gshared
neg:_Entry__ctor_m1176697586
rEg:_BinaryReader_ReadUInt32_m1363572147
bNg:_MonoType_get_Module_m3769241394
bdi:__ZL79Convert_t2607082565_CustomAttributesCacheGenerator_Convert_ToUInt32_m3391339025P21CustomAttributesCache
Tbj:__Z37RuntimeInvoker_Enumerator_t1147558387PK10MethodInfoPvPS2_
C6a:__ZN13MonoBehaviour22DoScriptRebuildWarningEv
Hkj:_Text_get_verticalOverflow_m3134063496
aTk:__ZN6il2cpp6icalls8mscorlib6System5Array13ClearInternalEP11Il2CppArrayii
c0i:__Z155RuntimeInvoker_Boolean_t3825574718_Vector3_t2243707580_Vector3_t2243707580_RaycastHitU26_t1969197280_Single_t2076509932_Int32_t2071877448_Int32_t2071877448PK10MethodInfoPvPS2_
oye:__Z38TextGenerator_Get_Custom_PropLineCountP12Il2CppObject
gVc:__ZN5physx2Gu26EPASupportMapPairLocalImplINS0_9TriangleVENS0_4BoxVEED0Ev
Sql:_llvm_cttz_i32
jhh:_PublicKey_DecodeDSA_m1169363495
XRk:__ZNK15dense_hashtableINSt3__24pairIK10KeyWrapperINS1_IP11Il2CppClassjEEES4_EES6_N6il2cpp8metadata14ArrayClassHashEN14dense_hash_mapIS6_S4_SB_NSA_17ArrayClassCompareENS0_9allocatorIS8_EEE9SelectKeyESD_SF_E12test_deletedEj
Tsc:__ZN11IMGUIModule25GetGUIStyleScriptingClassEv
$ve:_tt_get_interface
Evh:_AsymmetricKeyExchangeFormatter__ctor_m3362140205
hdh:_NameObjectCollectionBase_BaseGet_m667273025
$Be:__ZZN2UI14CanvasRenderer15InitializeClassEvEN32FunctorImpl_801kTransformChanged4CallEPviR11MessageData
JVd:__ZN5physx14PxsAABBManager16processBPResultsERKNS_20PxsComputeAABBParamsE
dBc:__ZN9JSONWrite8TransferI13dynamic_arrayIiLj4EEEEvRT_PKc17TransferMetaFlags
QTd:__ZN5physx23PxsBroadPhaseContextSapD2Ev
zbe:__ZN5physx12SubSortQuickC2EPjPKNS_10PxBounds3VEjf
Hml:__ZNSt3__2L13utf8_to_utf16EPKhS1_RS1_PtS3_RS3_mNS_12codecvt_modeE
p6:__Z18ConvertUTF16toUTF8PPKtS0_PPhS2_15ConversionFlags
C2k:__ZN6il2cpp2os20PathErrnoToErrorCodeERKNSt3__212basic_stringIcNS1_11char_traitsIcEENS1_9allocatorIcEEEEi
hrj:_TypeLoadException__ctor_m1903359728
lrk:__ZL16my_g_bit_nth_msfj
rNh:_Transform_1_BeginInvoke_m3014766640_gshared
KYk:__ZN14dense_hash_mapI10KeyWrapperIP12Il2CppObjectEN6il2cpp2gc9CachedCCWENS4_5utils11PointerHashIS1_EENSt3__28equal_toIS3_EENSA_9allocatorINSA_4pairIKS3_S6_EEEEE15set_deleted_keyERSF_
Y7a:__Z20DeformSkinnedMeshJobP12SkinMeshInfo
gJe:_KeySizes__ctor_m3526899007
mAg:_Int16_System_IConvertible_ToInt32_m191782913_AdjustorThunk
avk:__ZL25UnresolvedVirtualCall_180P12Il2CppObject19Vector3_t2243707580S1_PK10MethodInfo
uZk:__ZN15dense_hashtableINSt3__24pairIK10KeyWrapperIP12Il2CppObjectEN6il2cpp2gc9CachedCCWEEES5_NS7_5utils11PointerHashIS3_EEN14dense_hash_mapIS5_S9_SD_NS0_8equal_toIS5_EENS0_9allocatorISA_EEE9SelectKeyESG_SI_E15insert_noresizeERKSA_
Dni:__ZL69ArgumentCache_t4810721_CustomAttributesCacheGenerator_m_FloatArgumentP21CustomAttributesCache
hXf:_Collection_1_CopyTo_m1578267616_gshared
vXe:_EncoderReplacementFallback__ctor_m2208438262
TLe:_RSACryptoServiceProvider__ctor_m2716420409
Dxk:__ZN6il2cpp2vm5Class15GetInstanceSizeEPK11Il2CppClass
mQh:_Dictionary_2__ctor_m871840915_gshared
Xa:invoke_iiiifiiii
vmj:_UTF7Decoder_GetChars_m2790530452
CCc:__ZN9rapidjson8internal6u64toaEyPc
Tmk:_EventFunction_1_BeginInvoke_m3064802067_gshared
Ldi:__ZL67IndexOutOfRangeException_t3527622107_CustomAttributesCacheGeneratorP21CustomAttributesCache
Lrd:__ZNK5physx2Sc9ClothCore16getRestPositionsEPNS_6PxVec4E
xQd:__ZN5physx20PxcSweepConvexConvexERKNS_11PxsCCDShapeES2_PKNS_12PxsRigidBodyES5_RKNS_11PxTransformES8_S8_S8_fRNS_6PxVec3ESA_RNS_10PxcNpCacheERNS_18PxcNpThreadContextEf
XEg:_Directory_GetFiles_m4036267478
TCf:_Enum_System_IConvertible_ToType_m2669300536
Sud:__ZN5physx15PxsParticleDataD0Ev
MHa:__ZL19BlitFramebufferImplRN4gles23BlitFramebufferDrawQuadER9GfxDevice9TextureIDRK8Vector4f
jPb:__Z18Transfer_BlittableI17RemapPPtrTransferLb0EhEvRK29SerializationCommandArgumentsR31RuntimeSerializationCommandInfo
q9d:__ZN5physx6shdfnd5ArrayIPvNS0_19ReflectionAllocatorIN17PxcPoolMallocData9PoolData8EEEE15growAndPushBackERKS2_
ILi:__Z44RuntimeInvoker_Byte_t3683104436_Il2CppObjectPK10MethodInfoPvPS2_
P4f:_ReadOnlyCollection_1_System_Collections_IList_Add_m2333231354_gshared
mci:__ZL78Convert_t2607082565_CustomAttributesCacheGenerator_Convert_ToSByte_m2470292806P21CustomAttributesCache
ame:_UNITY_FT_List_Add
nFh:_OpCodes__cctor_m939885911
c7b:__ZN14Texture2DArray11InitTextureEiii13TextureFormatb
C1g:_PKCS1_RSASP1_m1748738009
bsh:_ObjectReader_ReadPrimitiveTypeValue_m3808038676
yce:__ZN5physx15PxGeometryQuery14getWorldBoundsERKNS_10PxGeometryERKNS_11PxTransformEf
z9g:_RSASslSignatureDeformatter_SetHashAlgorithm_m4048969080
_sd:__ZN5physx2Sc9ClothCore18setSolverFrequencyEf
K9j:_UriParser_InitializeAndValidate_m251943319
$Ne:_SymmetricAlgorithm_set_Padding_m3081984460
vEb:__ZN9InputAxis8TransferI18StreamedBinaryReadILb0EEEEvRT_
M7d:__ZN5physx2Gu11HeightField8requiresERNS_23PxProcessPxBaseCallbackE
Rth:_StreamingContext_t1417235061_marshal_pinvoke_back
tQc:__ZN5physx2Gu16buildPartialHullERKNS0_13PolygonalDataEPNS0_12SupportLocalERNS0_14SeparatingAxesERKNS_6shdfnd3aos5Vec3VESC_
Ykf:_ArrayList_RemoveAt_m2578928333
cVe:_String_ToString_m3226660001
V3f:_ReadOnlyCollection_1_System_Collections_IList_set_Item_m1233322304_gshared
Y9j:_GeneralNames_get_DNSNames_m2721668874
JCf:_Enum_System_IConvertible_ToByte_m38374586
D3f:_ReadOnlyCollection_1_System_Collections_Generic_IListU3CTU3E_RemoveAt_m1592158292_gshared
bvl:_emscripten_glFrustum__wrapper
Ybd:__ZNK5physx2Sc16ArticulationCore17releaseDriveCacheERNS_9PxcFsDataE
m9g:_ReceiveRecordAsyncResult_get_CompletedWithError_m2670396551
Uzf:_Decimal_Equals_m1798565377
Zmb:__ZN17GlobalGameManager8TransferI24GenerateTypeTreeTransferEEvRT_
t5k:_GC_push_all
i0c:__ZN5physx11NpAggregate7releaseEv
wsi:__ZL66InputField_t1631627530_CustomAttributesCacheGenerator_m_CaretColorP21CustomAttributesCache
YBh:_TypeBuilder_check_created_m2929267877
yw:__ZN19StreamedBinaryWriteILb0EE8TransferIKN4math7_float3EEEvRT_PKc17TransferMetaFlags
jJa:__ZN15TextureTFMethod20IsBoneCountSupportedEi
iyi:_GUISkin_set_horizontalScrollbarThumb_m2119687595
zoh:_ObjRef__ctor_m1486312270
kuf:_Convert_ToInt16_m416789348
Vwf:_DateTime_System_IConvertible_ToSByte_m2575078084_AdjustorThunk
xPb:__Z22TransferField_NonArrayI17RemapPPtrTransfer27Converter_SimpleNativeClassI8GUIStyleEEvRK23StaticTransferFieldInfoR31RuntimeSerializationCommandInfoRT0_
pxj:_AnimatorStateInfo_IsTag_m1529621725_AdjustorThunk
znd:__ZN5physx7NpShape12setMaterialsEPKPNS_10PxMaterialEt
B5b:__ZNK17AnimationCurveTplIfE20EvaluateWithoutCacheEfRf
B1k:__ZN6il2cpp2os6Thread12QueueUserAPCEPFvPvES2_
afd:__ZNK5physx18NpArticulationLink13isSubordinateEv
E0e:_Array_InternalArray__IEnumerable_GetEnumerator_TisDictionaryEntry_t3048875398_m3498834924_gshared
ZAi:_GUIStyleState__ctor_m3611888666
UYf:_Collection_1_IsValidItem_m1304951912_gshared
ecc:__ZN4Mesh10SetNormalsEPK8Vector3fj
VIh:_PropertyInfo__ctor_m1808219471
jNc:__Z66Register_UnityEngine_Physics2D_INTERNAL_CALL_GetRayIntersectionAllv
etf:_Convert_ToDateTime_m4161927553
CYi:__Z76RuntimeInvoker_Void_t1841601450_RegexOptionsU26_t3063574985_SByte_t454417549PK10MethodInfoPvPS2_
cCh:_TypeBuilder_GetConstructors_m774120094
rt:__ZN17AnimationCurveTplIfE8TransferI14SafeBinaryReadEEvRT_
anl:__ZNKSt3__28numpunctIcE16do_thousands_sepEv
_7j:_RegularExpression_set_GroupCount_m2991393456
_Zc:__ZN5physx2Gu9RadixSortD2Ev
sEf:_Calendar_get_EraNames_m452820602
Zub:__ZNSt3__26vectorIN15QualitySettings14QualitySettingENS_9allocatorIS2_EEE6assignIPS2_EENS_9enable_ifIXaasr21__is_forward_iteratorIT_EE5valuesr16is_constructibleIS2_NS_15iterator_traitsIS9_E9referenceEEE5valueEvE4typeES9_S9_
fNd:__ZN5physx6shdfnd8PoolBaseINS_2Sc10NPhaseCore16ClothListElementENS0_19ReflectionAllocatorIS4_EEE15disposeElementsEv
XXc:__Z15raycast_capsuleRKN5physx10PxGeometryERKNS_11PxTransformERKNS_6PxVec3ES8_fNS_7PxFlagsINS_9PxHitFlag4EnumEtEEjPNS_12PxRaycastHitEbPFbRSD_PvESG_
$Xa:__ZNK19ShaderPropertySheet11HasPropertyERKN9ShaderLab16FastPropertyNameE
$Ja:__ZN14DrawBufferGLESI12VertexBuffer27VertexBufferUsageMapperGLESE8EndWriteEj
Gwf:_DateTime_System_IConvertible_ToByte_m2670443498_AdjustorThunk
Jtd:__ZNK5physx15NpActorTemplateINS_15PxParticleFluidEE14getOwnerClientEv
vri:__ZL58FontData_t2614388407_CustomAttributesCacheGenerator_m_FontP21CustomAttributesCache
cHk:_il2cpp_class_get_image
raa:__Z16AsyncReadRequestP16AsyncReadCommand
cgi:__ZL81BigInteger_t925946153_CustomAttributesCacheGenerator_BigInteger__ctor_m4013661868P21CustomAttributesCache
A2d:__ZNK5physx34PxsSolverConstraintPostProcessTask7getNameEv
p$g:_BigInteger_op_Addition_m1734797151
c3i:__Z110RuntimeInvoker_Boolean_t3825574718_Vector2_t2243707579_Vector2_t2243707579_Single_t2076509932_SByte_t454417549PK10MethodInfoPvPS2_
DRc:__ZN5physx2Gu23distancePointBoxSquaredERKNS_6PxVec3ES3_S3_RKNS_7PxMat33EPS1_
rge:__ZN5physx9NpPhysics20MeshDeletionListener28onGuMeshFactoryBufferReleaseEPKNS_6PxBaseEtb
QXf:_Collection_1_System_Collections_IList_set_Item_m3488446830_gshared
ACh:_EnumBuilder_CreateNotSupportedException_m62763134
uih:_X509Chain_CheckRevocation_m2480313486
BKe:_RijndaelManagedTransform_TransformBlock_m2558865851
mYf:_Collection_1_System_Collections_Generic_ICollectionU3CTU3E_get_IsReadOnly_m4096071066_gshared
lEb:__ZN9InputAxis8TransferI14SafeBinaryReadEEvRT_
x7:__ZNK21ExecutionOrderManager30GetCustomAwakeFromLoadQueueForEPKN5Unity4TypeE
VEd:__ZNK5physx7NpScene9getActorsENS_7PxFlagsINS_15PxActorTypeFlag4EnumEtEEPPNS_7PxActorEjj
gIe:__Z27RegisterModule_UnityConnectv
WIf:_Enumerator_Dispose_m3717265706_AdjustorThunk
Hwd:__ZN5physx15PxParticleFluidD0Ev
MMd:__ZN5physx11NodeManagerD0Ev
NNh:_Enumerator__ctor_m908409898_gshared
Yyj:_Bounds_get_size_m1728027642_AdjustorThunk
oph:_RealProxy__ctor_m3041043303
Iwg:_NumberFormatter_Init_m2654758994
M0c:__ZNK5physx2Sc8BodyCore6getSimEv
nol:__ZNSt3__214__split_bufferIPNS_6locale5facetERNS_15__sso_allocatorIS3_Lj28EEEEC2EjjS6_
fhe:__ZNK5physx2Gu15HeightFieldUtil18getVertexFaceIndexEjjj
TYk:__ZN15dense_hashtableINSt3__24pairIK10KeyWrapperIP12Il2CppObjectEN6il2cpp2gc9CachedCCWEEES5_NS7_5utils11PointerHashIS3_EEN14dense_hash_mapIS5_S9_SD_NS0_8equal_toIS5_EENS0_9allocatorISA_EEE9SelectKeyESG_SI_E8min_sizeEjj
OQ:__ZN10ObjectPoolIN4FMOD12ChannelGroupENS0_13ChannelGroupIEE7SetSizeEi
uSg:_PrimalityTest_BeginInvoke_m966469054
u7f:_ReadOnlyCollection_1_System_Collections_Generic_ICollectionU3CTU3E_Clear_m1785953911_gshared
_Gc:__ZNSt3__26__sortIR26ColliderIdentityComparitorPP10Collider2DEEvT0_S6_T_
iuj:_UInt64_System_IConvertible_ToInt16_m2797150165_AdjustorThunk
DTh:_DefaultComparer__ctor_m2036092614_gshared
ecf:_Array_InternalArray__get_Item_TisLabelData_t3712112744_m863115768_gshared
SBg:_Int32_Parse_m753946802
Pv:__ZN18StreamedBinaryReadILb0EE21TransferSTLStyleArrayI22OffsetPtrArrayTransferIN7mecanim9animation10ValueDeltaEEEEvRT_17TransferMetaFlags
yJj:_GUIContent_t4210063000_marshal_pinvoke
p$:__Z22ValidateTlsfAllocationPvjiS_
ria:__ZN18StreamedBinaryReadILb1EE21TransferSTLStyleArrayINSt3__212basic_stringIcNS2_11char_traitsIcEE13stl_allocatorIcL18MemLabelIdentifier1ELi16EEEEEEvRT_17TransferMetaFlags
Fmd:__ZN5physx2Cm12RefCountable14onRefCountZeroEv
BG:__ZN15SerializeTraitsINSt3__24pairI8StateKey10StateRangeEEE8TransferI14SafeBinaryReadEEvRS4_RT_
SFh:_UnmanagedMarshal_ToMarshalAsAttribute_m3695569337
Vpd:__ZNK5physx7NpCloth25getMotionConstraintConfigEv
TNb:__Z14resize_trimmedINSt3__26vectorI17AnimationCurveTplIfE13stl_allocatorIS3_L18MemLabelIdentifier1ELi16EEEEEvRT_j
Evk:__ZL25UnresolvedVirtualCall_210P12Il2CppObject38CustomAttributeNamedArgument_t94157543PK10MethodInfo
uib:__Z12GUIDToStringRK9UnityGUID
Xug:_LayoutElement_get_minHeight_m2070403283
t_k:__ZN6il2cpp6icalls8mscorlib6System4Enum12get_hashcodeEP12Il2CppObject
XM:__ZN11SoundHandleC2ERKS_
Zcj:_Mask_OnEnable_m501850981
Iyc:__ZN8JSONRead21TransferSTLStyleArrayI13dynamic_arrayI10ColorRGBAfLj4EEEEvRT_18MemLabelIdentifier17TransferMetaFlags
dAj:_Canvas_get_targetDisplay_m316548313
bG:__ZN18AnimatorController23VirtualRedirectTransferER18StreamedBinaryReadILb0EE
fEd:__ZThn8_N5physx2Sc24ElementInteractionMarker7destroyEv
m2b:__ZN12ScriptMapper23VirtualRedirectTransferER18StreamedBinaryReadILb1EE
Wu:__ZN11Quaternionf8TransferI18StreamedBinaryReadILb1EEEEvRT_
Sab:__Z29StdTemplateConversionFunctionItxEbPvR14SafeBinaryRead
U$j:_FormatterData__ctor_m3974986124
p2h:__ZL64FileNotFoundException_t4200667904_CustomAttributesCacheGeneratorP21CustomAttributesCache
FHj:_CustomAnimationPlayable_SetInputs_m1393448423
zKe:_RijndaelManagedTransform_get_CanReuseTransform_m3735256596
NZc:__ZN5physx3Cct26CharacterControllerManager24setOverlapRecoveryModuleEb
bof:_Comparer__cctor_m1327316974
SEg:_MonoIO_ExistsFile_m1421941572
dyf:_DateTime_op_GreaterThanOrEqual_m3818963848
wxa:__ZNSt3__26__treeINS_12__value_typeI18VertexChannelsInfoP17VertexDeclarationEENS_19__map_value_compareIS2_S5_NS_4lessIS2_EELb1EEE13stl_allocatorIS5_L18MemLabelIdentifier14ELi16EEE12__find_equalIS2_EERPNS_16__tree_node_baseIPvEENS_21__tree_const_iteratorIS5_PNS_11__tree_nodeIS5_SG_EEiEESJ_RKT_
oL:__ZNSt3__212basic_stringIcNS_11char_traitsIcEE13stl_allocatorIcL18MemLabelIdentifier66ELi16EEE6resizeEjc
Llg:_DefaultControls_SetDefaultTextValues_m1707718380
Jhg:_TouchInputModule_UseFakeInput_m2112019004
Ddg:_EventSystem_get_baseEventDataCache_m4294741599
Aql:___cxa_guard_release
hob:__ZN14RenderSettings18TransferDeprecatedI14SafeBinaryReadEEvRT_
rTc:__ZN24ConvexVsHeightfieldSweepD0Ev
gZg:__ZN6il2cpp2vm13ComObjectBaseI34__Il2CppComDelegate_t3311706788CCW18Il2CppIInspectableNS0_7details6ComNilES5_S5_S5_S5_S5_S5_ED2Ev
V1:__ZN12TLSAllocatorI14StackAllocatorE8AllocateEji
A8:__ZN16ScriptingManager18GetMonoScriptCacheEi
KAi:_GUIStyle_get_stretchHeight_m3396762700
yOa:__ZN20ArchiveStorageHeader13GetDataOffsetERKNS_6HeaderE
IAk:__ZN13dynamic_arrayIPK10Il2CppTypeLj4EEC2ERKS3_
LCi:_Material_INTERNAL_CALL_SetColor_m1364511001
_pg:_GridLayoutGroup_CalculateLayoutInputHorizontal_m2355123124
Qgi:__ZL84Locale_t4255929017_CustomAttributesCacheGenerator_Locale_GetText_m512920887____args1P21CustomAttributesCache
eNb:__Z18Transfer_BlittableI14SafeBinaryReadLb1EyEvRK29SerializationCommandArgumentsR31RuntimeSerializationCommandInfo
Pwc:__ZN8JSONRead8TransferIfEEvRT_PKc17TransferMetaFlagsb
_ji:__ZL105Physics_t634932869_CustomAttributesCacheGenerator_Physics_Raycast_m3475924638____queryTriggerInteraction4P21CustomAttributesCache
sI:__ZN25RuntimeAnimatorController8TransferI17RemapPPtrTransferEEvRT_
Os:__ZN14SafeBinaryRead21TransferSTLStyleArrayI19StaticArrayTransferIiLi155EEEEvRT_17TransferMetaFlags
VGd:__ZNK5physx2Sc10NPhaseCore39getDefaultContactReportStreamBufferSizeEv
m8f:_ReadOnlyCollection_1_System_Collections_ICollection_get_IsSynchronized_m4063596282_gshared
$ol:__ZNSt3__212basic_stringIcNS_11char_traitsIcEENS_9allocatorIcEEE6appendEPKcj
h3h:__ZL54TypeBuilder_t3308873219_CustomAttributesCacheGeneratorP21CustomAttributesCache
Gqd:__ZN5physx7NpCloth25setSelfCollisionStiffnessEf
dQd:__ZZN5physx28PxcSweepEstimateAnyShapeMeshERKNS_11PxsCCDShapeES2_PKNS_12PxsRigidBodyES5_RKNS_11PxTransformES8_fEN2CBD0Ev
IZf:_Collection_1_CheckWritable_m691269733_gshared
cDh:_GenericTypeParameterBuilder_GetAttributeFlagsImpl_m3338182267
XV:__ZN13Simd4iFactoryIN6detail9FourTupleEEC2Eiiii
pJg:_SynchronizedReader__ctor_m1408327515
cdk:_X509Store_LoadCrl_m1146720614
p2:__ZL41FileEntryInfoListToFolderContentsAbsoluteRK13dynamic_arrayI13FileEntryInfoLj8EERNSt3__23setINS4_12basic_stringIcNS4_11char_traitsIcEENS4_9allocatorIcEEEENS4_4lessISB_EENS9_ISB_EEEE
dbj:__Z54RuntimeInvoker_KeyValuePair_2_t3716250094_Il2CppObjectPK10MethodInfoPvPS2_
m9f:_ReadOnlyCollection_1_System_Collections_IList_Clear_m1858417639_gshared
RHc:__ZN10Collider2D14FinalizeCreateERK10Matrix4x4fR12b2FixtureDefP6b2BodyPK13dynamic_arrayIP7b2ShapeLj4EE
SRa:__ZZ23InitPlayerLoopCallbacksvEN38PostLateUpdateShaderHandleErrorsstruct7ForwardEv
gsb:__ZN15SerializeTraitsI33EnlightenTerrainChunksInformationE8TransferI14SafeBinaryReadEEvRS0_RT_
oz:__ZN7mecanim9animation16MotionOutputCopyEPNS0_12MotionOutputEPKS1_bbRKNS_6bitsetILj66EEE
vkd:__ZN5physx2Sc14ConstraintCoreD2Ev
MKc:__ZN6b2Body12SetTransformERK6b2Vec2f
P7b:__ZNK32RendererMaterialAnimationBinding9BindValueER6ObjectRKN11UnityEngine9Animation14GenericBindingERNS3_10BoundCurveE
VQi:__Z112RuntimeInvoker_Int32_t2071877448_Il2CppObject_Int32_t2071877448_Int32_t2071877448_Il2CppObject_Int32_t2071877448PK10MethodInfoPvPS2_
thd:__ZN5physx15NpActorTemplateINS_18PxArticulationLinkEE13setActorFlagsENS_7PxFlagsINS_11PxActorFlag4EnumEtEE
G8a:__Z13GetIAnimationv
cua:__ZL18stbir__support_onef
_8d:__ZN5physx6shdfnd8internal8HashBaseIPNS_11PxAggregateES4_NS0_4HashIS4_EENS1_11HashSetBaseIS4_S6_NS0_9AllocatorELb0EE6GetKeyES8_Lb0EE15reserveInternalEj
uMf:_List_1_System_Collections_IList_Remove_m2040310137_gshared
M3j:_Match_get_Regex_m3526002767
B2h:__ZL49Stream_t3255436806_CustomAttributesCacheGeneratorP21CustomAttributesCache
jzc:__Z26Transfer_UnityEngineObjectI9JSONWriteLb0EEvRK29SerializationCommandArgumentsR31RuntimeSerializationCommandInfo
zXe:_EncoderReplacementFallback_CreateFallbackBuffer_m3579126537
ptj:_UInt32_System_IConvertible_ToInt16_m2251335934_AdjustorThunk
iAe:__ZNSt3__27__sort5IRNS_6__lessIN2UI14DepthSortEntryES3_EEPS3_EEjT0_S7_S7_S7_S7_T_
wLi:__Z31RuntimeInvoker_Void_t1841601450PK10MethodInfoPvPS2_
sgf:_Boolean_System_IConvertible_ToType_m3990189691
BKk:__ZN24dense_hashtable_iteratorINSt3__24pairIK10KeyWrapperINS1_IPK10MethodInfoP11Il2CppClassEEEjEES9_17ReflectionMapHashIS8_EN14dense_hash_mapIS9_jSD_19ReflectionMapEqualsIS8_ENS0_9allocatorISB_EEE9SelectKeyESG_SI_E30advance_past_empty_and_deletedEv
fLk:__ZNSt3__218uninitialized_copyIPNS_4pairIK10KeyWrapperINS1_IPK11Il2CppImageP11Il2CppClassEEEjEESC_EET0_T_SE_SD_
Fa:invoke_vdd
go:FUNCTION_TABLE_fiii
VRj:_InternalEnumerator_1_Dispose_m3838127340_AdjustorThunk
R1i:__Z36RuntimeInvoker_FontStyle_t2764949590PK10MethodInfoPvPS2_
kCf:_Double_System_IConvertible_ToUInt32_m624993430
ko:FUNCTION_TABLE_fiif
ppi:__ZL89PointerEventData_t1599784723_CustomAttributesCacheGenerator_U3CdraggingU3Ek__BackingFieldP21CustomAttributesCache
n6b:__ZNK30SpriteRendererAnimationBinding12GetPPtrValueERKN11UnityEngine9Animation10BoundCurveE
jjl:__ZNKSt3__220__time_get_c_storageIcE7__am_pmEv
Moj:_Scheduler_Add_m376749205
hNi:__Z98RuntimeInvoker_Void_t1841601450_Int32_t2071877448_Il2CppObject_Int32_t2071877448_Int32_t2071877448PK10MethodInfoPvPS2_
jal:__ZN6il2cpp6icalls8mscorlib4Mono8Security12Cryptography18KeyPairPersistence19_IsMachineProtectedEP12Il2CppString
Chl:__ZNSt3__215__num_get_floatIeEET_PKcS3_Rj
KCj:_ContactPoint2D_t3659330976_marshal_pinvoke_cleanup
S6b:__Z14RandomRotationP9Texture2DPhiiii
DOg:_OutOfMemoryException__ctor_m1932883273
xQj:_InternalEnumerator_1_MoveNext_m1594563423_AdjustorThunk
bfe:__ZThn132_N5physx7profile8ZoneImplINS_28PxProfileNameProviderForwardEED1Ev
BPb:__Z65EmitSerializationCommandsForLinearCollectionOfManagedObjectsFieldI17RemapPPtrTransferEvRK23TransferArrayField_InfoR20SerializationCommandR32SerializationCommandQueueBuilderRP20AllowNameConversions
a6i:__Z76RuntimeInvoker_Boolean_t3825574718_DirectionU26_t743901654_Int32_t2071877448PK10MethodInfoPvPS2_
nsh:__ZN16VirtFuncInvoker0ItE6InvokeEjPv
ERi:__Z35RuntimeInvoker_TimeSpan_t3430258949PK10MethodInfoPvPS2_
lAk:__ZN15dense_hashtableI10KeyWrapperIPK19Il2CppGenericMethodES4_N6il2cpp8metadata23Il2CppGenericMethodHashEN14dense_hash_setIS4_S7_NS6_26Il2CppGenericMethodCompareENSt3__29allocatorIS4_EEE8IdentityES9_SC_E8min_sizeEjj
eRf:_List_1_System_Collections_IList_Insert_m2036969360_gshared
xtg:_InputField_GetUnclampedCharacterLineFromPosition_m1912794077
EKi:_SpaceAttribute__ctor_m1444406696
sFd:__ZN5physx7NpScene27setCCDContactModifyCallbackEPNS_26PxCCDContactModifyCallbackE
qGg:_ReadDelegate__ctor_m885671467
bae:__ZNK5physx17ConvexHullBuilder17ComputeGeomCenterERNS_6PxVec3E
Cyf:_DateTimeOffset_ToString_m2121173678_AdjustorThunk
zgi:__ZL50X509Crl_t1699034837_CustomAttributesCacheGeneratorP21CustomAttributesCache
qUd:__ZN3MBPD0Ev
g_:__ZNK13EmscriptenWWW14GetPartialDataEv
eBl:_glDeleteProgram__wrapper
Cic:__Z50Register_UnityEngine_Camera_INTERNAL_get_pixelRectv
vqa:__ZN19RuntimeSceneManager14LoadSceneAsyncERK8UnityStrS2_S2_RK9UnityGUIDiNS_11LoadingModeEbRP10UnityScene
_5i:__Z53RuntimeInvoker_UIVertex_t1204258818_Int32_t2071877448PK10MethodInfoPvPS2_
HBj:_Color_GetHashCode_m3182525367
Noa:__ZN6prcoreL18BlitFloatToIntegerERK14ImageReferenceRS0_
I9i:__Z57RuntimeInvoker_KeyValuePair_2_t38854645_Int32_t2071877448PK10MethodInfoPvPS2_
ZXg:_X509CertificateCollection_get_Item_m410866272
AHi:_Rect_get_yMax_m2915146103
zId:__ZNK5physx10PxsContext18getBounceThresholdEv
Zll:__ZNSt3__217__widen_from_utf8ILj32EED0Ev
cLc:__ZN7b2Timer5ResetEv
JY:__ZN11UnityEngine15CloudWebService14RestDownloader17OnCompleteContentEv
sqg:_LayoutGroup_SetChildAlongAxis_m1615929339
F3k:__GLOBAL__sub_I_Assembly_cpp_40081
BDd:__ZN5physx6shdfnd5ArrayIPvNS0_15InlineAllocatorILj256ENS0_19ReflectionAllocatorINS_2Gu31SpherePersistentContactManifoldEEEEEE15growAndPushBackERKS2_
I4d:__ZN5physx2Cm18DelegateFanoutTaskINS_2Sc5SceneEXadL_ZNS3_17finalizationPhaseEPNS_10PxBaseTaskEEEE11runInternalEv
u2k:__ZNK15dense_hashtableINSt3__24pairIK10KeyWrapperIPK19Il2CppGenericMethodEP10MethodInfoEES6_N6il2cpp8metadata23Il2CppGenericMethodHashEN14dense_hash_mapIS6_S9_SD_NSC_26Il2CppGenericMethodCompareENS0_9allocatorISA_EEE9SelectKeyESF_SH_E13find_positionERS7_
$Tf:_List_1_System_Collections_ICollection_get_SyncRoot_m1429670979_gshared
Za:invoke_vifff
zLj:_InternalEnumerator_1__ctor_m2111763266_gshared
gif:_Byte_System_IConvertible_ToInt16_m1575115635_AdjustorThunk
Gud:__ZN5physx15NpParticleFluid15exportExtraDataERNS_22PxSerializationContextE
Lzl:_glGetVertexAttribiv__wrapper
ngd:__ZN5physx6shdfnd15atomicDecrementEPVi
nf:_emscripten_request_fullscreen
C4d:__ZN5physx2Cm12DelegateTaskINS_2Sc5SceneEXadL_ZNS3_11postCCDPassEPNS_10PxBaseTaskEEEED0Ev
vHi:_Rect_get_xMin_m1161102488
a1:__ZN20LocalFileSystemWebGL6DeleteER13FileEntryDatab
Gzf:_Decimal_System_IConvertible_ToUInt16_m1621568250
pf:_emscripten_glDisableVertexAttribArray
Bji:__ZL79Object_t1021602117_CustomAttributesCacheGenerator_Object_Instantiate_m938141395P21CustomAttributesCache
ao:FUNCTION_TABLE_iiiifiiii
Hpj:_TimeSpan_get_TotalMinutes_m1645177229_AdjustorThunk
sc:invoke_fifffi
CP:__ZN4FMOD5Sound15getNumSubSoundsEPi
RDa:__ZN4gles23ClearCurrentFramebufferEP7ApiGLESbbbRK10ColorRGBAffi
mA:__ZN7mecanim12statemachine20CreateStateWorkspaceEjjjRNS_6memory9AllocatorE
gDe:__Z64Register_UnityEngine_CanvasRenderer_SplitIndiciesStreamsInternalv
f_i:__Z34RuntimeInvoker_Vector3_t2243707580PK10MethodInfoPvPS2_
J9d:__ZN5physx2Gu11HeightField13releaseMemoryEb
Af:_emscripten_glDeleteObjectARB
vg:_IMG_Load
hKg:_UnexceptionalStreamReader_Read_m3839775235
cqa:__ZN6prcoreL27StretchGenericFloatBilinearI18TexFormatARGBFloatEEvPKNS_9InnerInfoE
XMa:__ZN10FileSystem25MountDataFolderFileSystemERKNSt3__212basic_stringIcNS0_11char_traitsIcEENS0_9allocatorIcEEEES8_
ppc:__Z53Register_UnityEngine_RenderTexture_Internal_GetHeightv
Dph:_RealProxy_SetTargetDomain_m3940877656
Opa:__ZN6prcoreL17RemapGenericFloatI17TexFormatRGBAHalf18TexFormatARGBFloatEEvPKNS_9InnerInfoE
PCf:_Enum_System_IConvertible_ToInt32_m2459904362
vsc:__ZNK8GUIStyle21DrawWithTextSelectionER8GUIStateRK5RectTIfER10GUIContentbbbbbiiRK10ColorRGBAfSA_
afc:__ZN10systeminfo21SupportsAccelerometerEv
Jsc:__Z14GetBuiltinSkini
gXe:_DecoderReplacementFallbackBuffer_Reset_m2576819665
bHj:_CustomAnimationPlayable_GetOutput_m2109551724
opf:_Enumerator__cctor_m298562758
Aqk:_Enumerator_System_Collections_IEnumerator_Reset_m2573763156_gshared
qMg:_MonoType_GetConstructors_internal_m2709619723
nRe:_WindowsIdentity_Dispose_m2649088337
Gvb:__ZN2UI13RectTransform23VirtualRedirectTransferER14SafeBinaryRead
Mpj:_TimeSpan_CompareTo_m2891128664
bGd:__ZN5physx7NpScene17flushQueryUpdatesEv
Qba:__ZNSt3__26__treeINS_12__value_typeINS_12basic_stringIcNS_11char_traitsIcEENS_9allocatorIcEEEES7_EENS_19__map_value_compareIS7_S8_NS_4lessIS7_EELb1EEE13stl_allocatorIS8_L18MemLabelIdentifier12ELi16EEE7destroyEPNS_11__tree_nodeIS8_PvEE
FXf:_Collection_1_System_Collections_IList_Contains_m323652826_gshared
IJf:_List_1_System_Collections_ICollection_get_SyncRoot_m3733894943_gshared
TOf:_List_1_Reverse_m302978607_gshared
DU:__ZZL31InitializeAudioManagerCallbacksvEN33FixedUpdateAudioFixedUpdatestruct7ForwardEv
Q$b:__ZN24GenerateTypeTreeTransfer8TransferINSt3__23mapI8UnityStriNS1_4lessIS3_EENS1_9allocatorINS1_4pairIKS3_iEEEEEEEEvRT_PKc17TransferMetaFlags
__b:__ZNSt3__26vectorIN9ShaderLab20SerializedSubProgramENS_9allocatorIS2_EEE6assignIPS2_EENS_9enable_ifIXaasr21__is_forward_iteratorIT_EE5valuesr16is_constructibleIS2_NS_15iterator_traitsIS9_E9referenceEEE5valueEvE4typeES9_S9_
zwc:__Z18Transfer_BlittableI8JSONReadLb0E8BitFieldEvRK29SerializationCommandArgumentsR31RuntimeSerializationCommandInfo
Eqh:_SoapServices_RegisterInteropXmlType_m2949236705
NPf:_List_1_Remove_m1211693753_gshared
U9a:__ZN17PersistentManagerC2Eii
MVb:__ZL17Transfer_GUIStyleI18StreamedBinaryReadILb1EELb0EEvRK29SerializationCommandArgumentsR31RuntimeSerializationCommandInfo
WVe:_String_CharCopy_m2550399897
t3b:__ZN11TypeManager20RegisterNonClassTypeEiP4RTTIPKcS3_
tGd:__ZN5physx7NpScene10unlockReadEv
qZb:__ZN9ShaderLab14SerializedPass8TransferI14SafeBinaryReadEEvRT_
Btc:__Z71Register_UnityEngine_GUILayoutUtility_INTERNAL_CALL_Internal_MoveWindowv
vU:__ZN12AudioManager16SetListenerPauseEb
rkl:__ZNKSt3__28time_putIwNS_19ostreambuf_iteratorIwNS_11char_traitsIwEEEEE6do_putES4_RNS_8ios_baseEwPK2tmcc
gYf:_Collection_1_IsValidItem_m2254106115_gshared
mCh:_TypeBuilder_GetEvent_m3876348075
Ojj:_Slider_OnMove_m641164662
ca:invoke_viiiiiiiiiii
ocl:___syscall_ret
Poj:_Scheduler__ctor_m3716265742
_Ug:_MACAlgorithm_Final_m4076939925
pPk:__ZNSt3__212basic_stringIcNS_11char_traitsIcEENS_9allocatorIcEEE6assignINS_11__wrap_iterIPKcEEEENS_9enable_ifIXaasr21__is_forward_iteratorIT_EE5valuesr38__libcpp_string_gets_noexcept_iteratorISC_EE5valueERS5_E4typeESC_SC_
m8g:_TlsServerKeyExchange_ProcessAsSsl3_m462106368
TAb:__ZN11ChannelInfo8TransferI19StreamedBinaryWriteILb0EEEEvRT_
eMj:_InternalEnumerator_1_System_Collections_IEnumerator_get_Current_m3583252352_gshared
DTk:__ZN6il2cpp2vm14PlatformInvoke21SetFindPluginCallbackEPFPKcS3_E
bJb:__ZN23ArchiveStorageConverter24ReadHeaderFromMemoryFileEv
OBh:_EnumBuilder_get_FullName_m2818393911
Xrd:__ZN5physx2Sc9ClothCore22setFrictionCoefficientEf
Mxc:__Z18Transfer_BlittableI8JSONReadLb1E10ColorRGBAfEvRK29SerializationCommandArgumentsR31RuntimeSerializationCommandInfo
Vld:__ZNK5physx9NpPhysics17getNbConvexMeshesEv
oIg:_StreamAsyncResult_get_Done_m2858832609
QFd:__ZNK5physx7NpScene29getContactCorrelationDistanceEv
Ekc:__Z34Register_UnityEngine_Gradient_Initv
o3j:_DictionaryEnumerator_get_Entry_m1597857786
JJa:__Z26TransformVerticesInnerLoopILb1ELb1ELb0EEvPhRK10Matrix4x4fRK10Matrix3x3fjPKhiiiS8_ii25GfxTransformVerticesFlags
jok:_ObjectPool_1_set_countAll_m1742773675_gshared
qth:_SerializationEntry_get_Value_m1628109884_AdjustorThunk
adg:_BaseInputModule_GetAxisEventData_m3903709281
tcf:_Array_InternalArray__get_Item_TisUriScheme_t1876590943_m1821482697_gshared
r9e:_Array_Sort_TisIl2CppObject_m1954851512_gshared
r_g:_BigInteger__ctor_m3239748086
v0:__ZN13ScreenManager23SetIsOrientationEnabledE18EnabledOrientationb
Nsk:__ZL24UnresolvedVirtualCall_57P12Il2CppObjectiPK10MethodInfo
Dci:__ZL79Convert_t2607082565_CustomAttributesCacheGenerator_Convert_ToUInt16_m1043031438P21CustomAttributesCache
wEb:__ZN9InputAxis8TransferI19StreamedBinaryWriteILb0EEEEvRT_
pDd:__ZN5physx16PxsIslandManager16clearEdgeRigidCMERKNS_20PxsIslandManagerHookIjLj4294967295EEE
svc:__Z45Register_UnityEngine_GUIStyle_GetFontInternalv
r$c:__ZN5physx6shdfnd8SyncImpl4waitEj
f0f:_Collection_1_System_Collections_IList_get_IsFixedSize_m3946690039_gshared
WSh:_DefaultComparer_GetHashCode_m2506382068_gshared
zCj:_Component_SendMessageUpwards_m19741277
LWh:_EqualityComparer_1_System_Collections_IEqualityComparer_GetHashCode_m1012273405_gshared
U4e:_Array_InternalArray__ICollection_Add_TisHitInfo_t1761367055_m2956071622_gshared
rqh:__ZN16VirtFuncInvoker1IP30MarshalByRefObject_t1285298191P6Type_tE6InvokeEjPvS3_
pSj:_InternalEnumerator_1_MoveNext_m470170271_AdjustorThunk
c7a:__ZN10GameObject23VirtualRedirectTransferER18StreamedBinaryReadILb0EE
M0k:__ZN6il2cpp2gc16GarbageCollector13AllocateFixedEjPv
lVj:_InternalEnumerator_1_Dispose_m2270401482_AdjustorThunk
Wqh:_ArrayFixupRecord_FixupImpl_m2377725358
Sg:_glFrontFace
Ssh:_ObjectRecord_get_IsUnsolvedObjectReference_m2202692850
Xkh:_FactoryCache_Cleanup_m4130035987
Iae:__ZNK5physx20BigConvexDataBuilder4SaveERNS_14PxOutputStreamEbjPKNS_16HullTriangleDataE
mFb:__ZN13BuildSettings8TransferI18StreamedBinaryReadILb1EEEEvRT_
IHd:__ZN5physx13NpVolumeCache17getNbCachedShapesEv
O1a:__ZNSt3__26vectorI16ShadowCasterData13stl_allocatorIS1_L18MemLabelIdentifier2ELi16EEE21__push_back_slow_pathIKS1_EEvRT_
kFk:__ZN6il2cpp6icalls8mscorlib6SystemL16GetFieldFromTypeINS_5utils10functional6FilterINSt3__212basic_stringIcNS7_11char_traitsIcEENS7_9allocatorIcEEEENS4_11StringUtils23CaseInsensitiveComparerEEEEEP21Il2CppReflectionFieldP11Il2CppClassSK_iRKT_
mUh:_DefaultComparer_GetHashCode_m918846970_gshared
Gjk:_Vector3_get_forward_m1201659139
CUf:_List_1_Sort_m269561757_gshared
Cye:__Z51Register_UnityEngine_TextGenerator_GetLinesInternalv
U6f:_ReadOnlyCollection_1_System_Collections_Generic_ICollectionU3CTU3E_Remove_m2970185170_gshared
Vqk:_HashSet_1_Init_m1258286688_gshared
mva:__ZN17PersistentManager12UnloadStreamERKNSt3__212basic_stringIcNS0_11char_traitsIcEENS0_9allocatorIcEEEEb
Vbb:__Z24CreateDirectoryRecursiveRKNSt3__212basic_stringIcNS_11char_traitsIcEENS_9allocatorIcEEEE
V4f:_ReadOnlyCollection_1_System_Collections_IList_RemoveAt_m525136953_gshared
ih:_strftime_l
jB:__ZN26AnimatorControllerPlayable27SetupStateMachineBehavioursEP6Object
vBj:_Collision2D_get_gameObject_m4234358314
dpa:__ZN6prcoreL17RemapGenericFloatI17TexFormatRGBFloat18TexFormatRGBAFloatEEvPKNS_9InnerInfoE
tC:__Z16AppendPathToHashRKN7mecanim5crc32EPKc
uAc:__ZN6HelperI9JSONWrite23TransferArrayField_InfoE24SerializationFunctionForERKS1_R23StaticTransferFieldInfoPb
kJd:__ZN5physx2Sc5Scene15getRenderBufferEv
Ytj:_UInt64_System_IConvertible_ToBoolean_m3012279573_AdjustorThunk
pTi:__Z48RuntimeInvoker_Il2CppObject_StringU26_t638738783PK10MethodInfoPvPS2_
bBl:_glClearStencil__wrapper
Mrj:_Type_get_IsGenericTypeDefinition_m2147901038
mNa:__ZN12HandlerChain10ToAbsoluteEPKc
g$i:__Z36RuntimeInvoker_Matrix4x4_t2933234003PK10MethodInfoPvPS2_
ewg:_GregorianCalendar__ctor_m3794576475
Otj:_UInt32_TryParse_m4283512434
qKb:__ZN13MonoBehaviour23VirtualRedirectTransferER19StreamedBinaryWriteILb0EE
LM:__ZN9AudioClip11CreateSoundEv
iCb:__ZN8Material14DisableKeywordERKNSt3__212basic_stringIcNS0_11char_traitsIcEENS0_9allocatorIcEEEE
gMh:_ShimEnumerator_MoveNext_m3313047792_gshared
VYf:_Collection_1_ConvertItem_m2185647560_gshared
mqj:_TimeSpan_op_Inequality_m257547441
znj:_ExecutionContext_GetObjectData_m1456913356
hYk:__ZN14dense_hash_setI10KeyWrapperIP18Il2CppGenericClassEN6il2cpp8metadata22Il2CppGenericClassHashENS5_25Il2CppGenericClassCompareENSt3__29allocatorIS3_EEE6insertERKS3_
ZEi:_Object_set_hideFlags_m2204253440
P0k:__ZN6il2cpp2gc16GarbageCollector21CallWithAllocLockHeldEPFPvS2_ES2_
GBh:_EnumBuilder_get_Assembly_m4285228003
_Aa:__ZN13GfxDeviceGLES20CreateComputeProgramEPKhj
Zxg:_DateTimeFormatInfo_get_RoundtripPattern_m562440017
JHe:__ZN11UnityEngine7Connect16PersistentValues13RestoreValuesER8JSONRead
Kbi:__ZL76Convert_t2607082565_CustomAttributesCacheGenerator_Convert_ToByte_m791636053P21CustomAttributesCache
VTh:_DefaultComparer__ctor_m3947565964_gshared
RBf:_Double_System_IConvertible_ToByte_m3004284950_AdjustorThunk
Jqh:_TypeEntry_get_AssemblyName_m1762285107
V$d:__ZNK5physx2Gu11HeightField17getHeightInternalEff
Y$k:__ZN6il2cpp2vmL11GetIdentityEP14Il2CppIUnknown
r5k:_GC_push_gc_structures
iFd:__ZNK5physx7NpScene22getClientBehaviorFlagsEh
Amd:__ZN5physx9NpFactory14createMaterialEfff
Nzk:__ZN15dense_hashtableINSt3__24pairIK10KeyWrapperINS0_12basic_stringIcNS0_11char_traitsIcEENS0_9allocatorIcEEEEEP11Il2CppClassEES9_N6il2cpp5utils11StringUtils12StringHasherIS8_EEN14dense_hash_mapIS9_SC_SI_NS0_8equal_toIS9_EENS6_ISD_EEE9SelectKeyESL_SM_E8min_sizeEjj
INc:__ZNK5physx3Cct13BoxController8getStatsERNS_17PxControllerStatsE
Lqf:_Enumerator_get_Current_m1271212567
_V:__ZN5physx5cloth11PhaseConfigC2Et
AKa:__Z22GetShaderCachePathGLESv
Bie:__ZN13PhysicsModule21OverlapBoxUserCollectERK8Vector3fS2_RK11Quaternionfi23QueryTriggerInteractionRN8IPhysics12IUserCollectE
KNc:__ZN5physx3Cct13BoxControllerD2Ev
UBi:_Input_set_compositionCursorPos_m1615567306
ama:__ZN18StreamedBinaryReadILb1EE19TransferSTLStyleMapINSt3__23mapIN9ShaderLab16FastPropertyNameEN18UnityPropertySheet11UnityTexEnvENS2_4lessIS5_EENS2_9allocatorINS2_4pairIKS5_S7_EEEEEEEEvRT_17TransferMetaFlags
nIj:_Playable_GetInputWeightInternal_m381407588
Feh:_IPAddress_ParseIPV6_m2209709575
UDd:__ZThn8_N5physx2Sc19ShapeInstancePairLLD0Ev
yZ:__ZN19CloudServiceHandler18SaveFileFromServerERK8UnityStrS2_PN11UnityEngine15CloudWebService16WWWRestHeaderMapE
VWd:__ZN5physx19PxcContactSphereBoxERKNS_2Gu13GeometryUnionES3_RKNS_11PxTransformES6_RKfRNS_10PxcNpCacheERNS0_13ContactBufferE
hlj:_Toggle_set_group_m3833595685
Qvg:_LayoutRebuilder_ForceRebuildLayoutImmediate_m566681977
wFd:__ZNK5physx7NpScene21getBroadPhaseCallbackEh
V4c:__ZN5physx6shdfnd5ArrayIPNS_12PxConstraintENS0_19ReflectionAllocatorIS3_EEE15growAndPushBackERKS3_
pok:_Buff__ctor_m3826057975
acd:__ZNK5physx2Sc15ArticulationSim11checkResizeEv
$4e:_Array_InternalArray__ICollection_Add_TisVector4_t2243707581_m698578249_gshared
r5:__ZN8keywords6CreateEPKc
_Rc:__ZN5physx2Gu11gjkRelativeINS0_8CapsuleVENS0_11ConvexHullVEEEjRKT_RKT0_RKNS_6shdfnd3aos15PsMatTransformVERNSB_5Vec3VESG_SG_RNSB_6FloatVE
INi:__Z89RuntimeInvoker_Il2CppObject_Il2CppObject_Int32_t2071877448_Int32_t2071877448_Il2CppObjectPK10MethodInfoPvPS2_
LRb:__ZN24GenerateTypeTreeTransfer8TransferINSt3__26vectorI17AnimationCurveTplIfE13stl_allocatorIS4_L18MemLabelIdentifier1ELi16EEEEEEvRT_PKc17TransferMetaFlags
R:Math_imul
Zyi:_GUIStyle_set_active_m2896743432
dCb:__ZN14SpriteRenderer15SetupPropertiesEv
sSe:_SecurityFrame_t1002202659_marshal_pinvoke_back
DFi:_Physics_Raycast_m2036777053
kye:__Z45TextGenerator_CUSTOM_INTERNAL_get_rectExtentsP12Il2CppObjectP5RectTIfE
Q2g:_CertificateValidationCallback_Invoke_m2500463874
c0e:_SetPropertyUtility_SetStruct_TisChar_t3454481338_m2333420724_gshared
yZf:__ZN23InterfaceActionInvoker2Ii18Color32_t874517518E6InvokeEjP11Il2CppClassPviS0_
jYf:_Collection_1_IsSynchronized_m2601980439_gshared
epf:_Hashtable_ContainsKey_m2716576664
eNk:__ZN15dense_hashtableINSt3__24pairIK10KeyWrapperIPK10Il2CppTypeEjEES6_N6il2cpp8metadata14Il2CppTypeHashEN14dense_hash_mapIS6_jSB_NSA_17Il2CppTypeCompareENS0_9allocatorIS8_EEE9SelectKeyESD_SF_EC2EjRKSB_RKSD_RKSH_
n4j:_PatternCompiler_EmitCategory_m1696942454
Rzf:_Decimal_decimalFloorAndTrunc_m3655683429
s5e:_Array_InternalArray__ICollection_CopyTo_TisInt32_t2071877448_m984622488_gshared
qCe:__Z39CanvasGroup_Get_Custom_PropInteractableP12Il2CppObject
GIc:__ZN16CircleCollider2D23VirtualRedirectTransferER18StreamedBinaryReadILb0EE
Qwl:_emscripten_glStencilOpSeparate__wrapper
Yue:_cf2_getLanguageGroup
S4a:__ZN13ProbeRenderer8ConvolveEbijjb
cEa:__ZN17GenericDynamicVBOC2ER9GfxDevice13GfxBufferModejj
s0j:_Context_get_HasDynamicSinks_m1998518649
CKc:__Z28GetPhysics2DScriptingClassesv
zBd:__ZNK5physx2Sc5Scene7isValidEv
t6b:__ZN12ScriptMapper7PRODUCEE18MemLabelIdentifier18ObjectCreationMode
IX:__ZN11UnityEngine15CloudWebService17SessionEventQueue10PurgeItemsEj
zHd:__ZN5physx2Sq17SceneQueryManager29setDynamicTreeRebuildRateHintEj
oPh:_ValueCollection_System_Collections_Generic_ICollectionU3CTValueU3E_get_IsReadOnly_m1530798787_gshared
ecg:_AbstractEventData_get_used_m4208553917
Hdf:_Array_System_Collections_IList_get_Item_m2088124007
$df:_Array_GetLength_m2083296647
E9h:__ZL58SecurityElement_t2325568386_CustomAttributesCacheGeneratorP21CustomAttributesCache
Vib:__ZN16LevelGameManager23VirtualRedirectTransferER24GenerateTypeTreeTransfer
Rmf:_SynchronizedArrayListWrapper_ToArray_m1522185111
tXi:__Z55RuntimeInvoker_TimeSpan_t3430258949_DateTime_t693205669PK10MethodInfoPvPS2_
OWb:__Z18Transfer_BlittableI18StreamedBinaryReadILb1EELb1EtEvRK29SerializationCommandArgumentsR31RuntimeSerializationCommandInfo
sRe:_SecurityContext_get_FlowSuppressed_m420202521
qza:__ZN9GfxDevice20DeallocRenderSurfaceEP17RenderSurfaceBase
Rad:__ZN5physx6shdfnd5ArrayIPvNS0_19ReflectionAllocatorINS_18NpArticulationLinkEEEE4copyINS0_15InlineAllocatorILj256ES5_EEEEvRKNS1_IS2_T_EE
Jvj:_ValueType_ToString_m3796301715
fOc:__ZNK5physx3Cct10Controller12getKineShapeEv
XUi:__Z62RuntimeInvoker_Int64_t909078037_Il2CppObject_Int32_t2071877448PK10MethodInfoPvPS2_
Ilc:__Z53Register_UnityEngine_Quaternion_INTERNAL_CALL_Inversev
w8e:_Array_qsort_TisUICharInfo_t3056636800_m2607408901_gshared
j3c:__ZN5physx6shdfnd4sortIPvNS0_4LessIS2_EENS0_19ReflectionAllocatorINS_2Sc18TriggerInteractionEEEEEvPT_jRKT0_RKT1_j
QJj:_GUILayoutGroup__ctor_m992523271
Kkb:__ZN12BaseRenderer23RendererBecameInvisibleEv
Kzd:__ZNK5physx2Sc8BodyCore14getMaxAngVelSqEv
pke:__ZN20TextRenderingPrivate8FontImpl13CharacterInfo8TransferI18StreamedBinaryReadILb0EEEEvRT_
zRb:__Z29Transfer_Blittable_ArrayFieldI24GenerateTypeTreeTransferfEvRT_R9ArrayInfoRK23StaticTransferFieldInfo
NVi:__Z51RuntimeInvoker_Single_t2076509932_Int16_t4041245914PK10MethodInfoPvPS2_
qub:__ZN8Gradient8TransferI14SafeBinaryReadEEvRT_
rSi:__Z41RuntimeInvoker_StackBehaviour_t1390406961PK10MethodInfoPvPS2_
Hmk:_UnityEvent_1_Invoke_m1533100983_gshared
F$k:__ZNK15dense_hashtableINSt3__24pairIK10KeyWrapperIP14Il2CppIUnknownEjEES5_N6il2cpp5utils11PointerHashIS3_EEN14dense_hash_mapIS5_jSB_NS0_8equal_toIS5_EENS0_9allocatorIS7_EEE9SelectKeyESE_SG_E5beginEv
Udh:_FileWebRequest__ctor_m4003648606
pui:__ZL71SpriteState_t1353336012_CustomAttributesCacheGenerator_m_DisabledSpriteP21CustomAttributesCache
Owa:__ZN16MeshVertexFormat23CreateVertexDeclarationEjPKS_
Gaj:__Z34RuntimeInvoker_HitInfo_t1761367055PK10MethodInfoPvPS2_
RCf:_Enum_System_IConvertible_ToSByte_m3488526280
DLa:__ZN9GfxDevice9SkinOnGPUERK18VertexStreamSourceP9GfxBufferP17GPUSkinPoseBufferS4_iijb
IFh:_TypeBuilder_ToString_m1952363535
x1j:_Identity_set_Disposed_m628843469
FEi:_MonoBehaviour_StopAllCoroutines_m1675795839
Rua:__ZN18IDCollectorFunctorD0Ev
UXd:__ZN5physx2Gu32PCMConvexVsMeshContactGeneration15processTriangleEPKNS_6PxVec3EjhPKj
R6a:__ZN23ManagedAttributeManager21GetRequiredComponentsEP11Il2CppClass
wji:__ZL82Object_t1021602117_CustomAttributesCacheGenerator_Object_DestroyObject_m2343493981P21CustomAttributesCache
JNg:_NumberFormatter_Init_m1022036773
l4k:_GC_new_free_list_inner
ISh:_DefaultComparer_Equals_m85211180_gshared
D6b:__ZN14RenderSettings7PRODUCEE18MemLabelIdentifier18ObjectCreationMode
a0f:_Collection_1_System_Collections_IList_IndexOf_m1950953062_gshared
sMg:_MonoType_InternalGetEvent_m532443236
f_f:_Collection_1_IndexOf_m2700825189_gshared
w$d:__ZN5physx6shdfnd5ArrayINS_2Cm8Matrix34ENS0_19ReflectionAllocatorIS3_EEE15growAndPushBackERKS3_
PWj:_Comparer_1_get_Default_m2605397692_gshared
$Xd:__ZN5physx2Gu32PCMConvexVsMeshContactGeneration31generatePolyDataContactManifoldERNS0_9TriangleVEjjhPNS0_21MeshPersistentContactERjRKNS_6shdfnd3aos6FloatVERNS8_5Vec3VE
Ebe:__ZN5physx10SubSortSAH5splitEPjj
qG:__ZN25RuntimeAnimatorController8TransferI14SafeBinaryReadEEvRT_
_wc:__ZN8JSONRead8TransferI10RectOffsetEEvRT_PKc17TransferMetaFlagsb
eG:__ZN18AnimatorController23VirtualRedirectTransferER18StreamedBinaryReadILb1EE
Fjl:__ZNSt3__28time_getIwNS_19istreambuf_iteratorIwNS_11char_traitsIwEEEEED2Ev
IWe:_Decoder__ctor_m2623573910
RVa:__Z21ClearFenceWithoutSyncR8JobFence
ATc:__ZN5physx2Gu3EPA8addFacetEjjjRKNS_6shdfnd3aos6FloatVES6_
HP:__ZN12SoundManager20RegisterModifiedClipEP10SampleClip
r8:__Z21FormatScriptTypeError14MonoScriptTypeRKNSt3__212basic_stringIcNS0_11char_traitsIcEENS0_9allocatorIcEEEE
rPi:__Z108RuntimeInvoker_Void_t1841601450_Il2CppObject_Int64_t909078037_Il2CppObject_Int64_t909078037_Int64_t909078037PK10MethodInfoPvPS2_
gS:__ZN11AudioSource4PlayEd
XKb:__Z26scripting_class_get_fieldsP11Il2CppClassRNSt3__26vectorIP9FieldInfo13stl_allocatorIS4_L18MemLabelIdentifier1ELi16EEEE
lXk:__ZN6il2cpp2vm6Object16GetVirtualMethodEP12Il2CppObjectPK10MethodInfo
vK:__ZZN8Animator15InitializeClassEvEN31FunctorImpl_388kDidModifyMotion4CallEPviR11MessageData
i$c:__ZN5physx3Cct9CCTParamsC2Ev
wpd:__ZN5physx7NpCloth21setStiffnessFrequencyEf
U0:__ZNK20LocalFileSystemPosix8IsHiddenERK13FileEntryData
wQd:__ZN5physx17PxcSweepBoxConvexERKNS_11PxsCCDShapeES2_PKNS_12PxsRigidBodyES5_RKNS_11PxTransformES8_S8_S8_fRNS_6PxVec3ESA_RNS_10PxcNpCacheERNS_18PxcNpThreadContextEf
Q7d:__ZThn8_N5physx2Gu11HeightField14onRefCountZeroEv
qbk:_X501__cctor_m2610532554
ytb:__ZThn28_NK8Renderer8GetLayerEv
D2c:__ZN5physx2Sc5Actor9setActiveEbj
PRc:__ZN12_GLOBAL__N_127SphereMeshContactGeneration15processTriangleEjRKN5physx6PxVec3ES4_S4_PKj
XPk:__ZNSt3__214__split_bufferINS_12basic_stringIcNS_11char_traitsIcEENS_9allocatorIcEEEERNS4_IS6_EEED2Ev
ATf:_List_1_CheckCollection_m2220107869_gshared
uqb:__ZN7Cubemap23VirtualRedirectTransferER18StreamedBinaryReadILb0EE
e5g:_RecordProtocol_EncodeRecord_m3884270352
XMe:_SHA256_Create_m896954069
Fwe:_Read_CVT
_ff:__ZN16VirtFuncInvoker0IP12MemberInfo_tE6InvokeEjPv
Rvf:_Convert_ToUInt32_m776714429
eSc:__ZN5physx2Gu22barycentricCoordinatesERKNS_6shdfnd3aos5Vec3VES5_S5_RNS2_6FloatVE
oOa:__ZN12FileAccessor4SeekEx10FileOrigin
BQb:__ZL26Transfer_SimpleNativeClassI24GenerateTypeTreeTransfer17AnimationCurveTplIfELb0EEvRK29SerializationCommandArgumentsR31RuntimeSerializationCommandInfo
_od:__ZN5physx15NpActorTemplateINS_7PxClothEE12setActorFlagENS_11PxActorFlag4EnumEb
Umg:__ZN16VirtFuncInvoker1IP22GameObject_t1756533147S1_E6InvokeEjPvS1_
A_i:__Z77RuntimeInvoker_Vector3_t2243707580_Quaternion_t4030073918_Vector3_t2243707580PK10MethodInfoPvPS2_
Y9d:__ZL18TestUnifiedNormalsjPKN5physx6PxVec3EjPNS_2Gu9TriangleTIjEEb
r2i:__Z54RuntimeInvoker_Boolean_t3825574718_Vector2_t2243707579PK10MethodInfoPvPS2_
bDj:_Coroutine_t2299508840_marshal_pinvoke
zca:__ZN16LightmapSettings20DidChangeActiveSceneEP10UnitySceneS1_
ZNk:__ZN15dense_hashtableINSt3__24pairIK10KeyWrapperINS1_IPK14Il2CppAssemblyP11Il2CppClassEEEjEES9_17ReflectionMapHashIS8_EN14dense_hash_mapIS9_jSD_19ReflectionMapEqualsIS8_ENS0_9allocatorISB_EEE9SelectKeyESG_SI_E13set_empty_keyERKSB_
qwi:__ZL59g_AssemblyU2DCSharp_Assembly_CustomAttributesCacheGeneratorP21CustomAttributesCache
_Q:__ZN10AudioMixer11SetupGroupsEv
iji:__ZL91Resources_t339470017_CustomAttributesCacheGenerator_Resources_GetBuiltinResource_m582410469P21CustomAttributesCache
ntc:__Z35Register_UnityEngine_Event_get_typev
yVg:_PrivateKeyInfo_DecodeRSA_m1427048948
z$g:_BigInteger_op_GreaterThanOrEqual_m2643115413
fyh:_Assembly_FillName_m1934025015
oTa:_UNITY_png_free
HDg:_IntPtr_op_Explicit_m1073656736
Xul:_emscripten_glDepthRange__wrapper
FUe:_String_IndexOf_m2126171214
fDg:_Int64_ToString_m1544341651_AdjustorThunk
z6d:__ZNK5physx13GuMeshFactory17getNbConvexMeshesEv
uzg:_Guid_CheckNull_m2903986431
Gei:__ZL62CrossContextDelegate_t754146990_CustomAttributesCacheGeneratorP21CustomAttributesCache
Nyj:_Bounds__ctor_m1202659404
m7:__Z63ThreadAndSerializationSafeCheckGetMonoBehaviourBeingTransferredv
X6k:_GC_enable
c7g:_TlsClientCertificateVerify_ProcessAsSsl3_m3377063356
JPi:__Z97RuntimeInvoker_Il2CppObject_Il2CppObject_Int32_t2071877448_Il2CppObject_Il2CppObject_Il2CppObjectPK10MethodInfoPvPS2_
K5b:__ZN14LineParametersD2Ev
Zgg:_StandaloneInputModule_set_repeatDelay_m2820945738
jFg:_EndOfStreamException__ctor_m4268387737
Ysj:_UInt16_ToString_m4213290405
mlc:__Z37Register_UnityEngine_Input_GetAxisRawv
oVf:_List_1_GetIndex_m433539411_gshared
Q7h:__ZL59StreamingContext_t1417235061_CustomAttributesCacheGeneratorP21CustomAttributesCache
m3f:_Collection_1_Remove_m3355928137_gshared
YCf:_Enum_GetName_m1226611481
xTi:__Z113RuntimeInvoker_Il2CppObject_Byte_t3683104436_Il2CppObject_SByte_t454417549_Il2CppObject_Il2CppObject_Il2CppObjectPK10MethodInfoPvPS2_
WR:__ZN11AudioSource5ResetEv
gw:__ZN13AnimationClip12Vector3Curve8TransferI19StreamedBinaryWriteILb0EEEEvRT_
pxb:__ZN14Texture2DArray23VirtualRedirectTransferER18StreamedBinaryReadILb0EE
Lxb:__ZN13TrailRenderer5ResetEv
wvb:__ZN2UI13RectTransform13AwakeFromLoadE17AwakeFromLoadMode
TXa:__ZL27GetDestRenderTargetSurfacesP13RenderTextureR12ObjectHandleI17RenderSurface_TagP17RenderSurfaceBaseES6_
g1d:__ZN5physx23PxsSolverSetupSolveTaskD2Ev
bNb:__Z18Transfer_BlittableI14SafeBinaryReadLb1EiEvRK29SerializationCommandArgumentsR31RuntimeSerializationCommandInfo
UYj:_DefaultDependencyAttribute__ctor_m107693037
f1b:__ZNSt3__26vectorINS_4pairINS_12basic_stringIcNS_11char_traitsIcEENS_9allocatorIcEEEES7_EENS5_IS8_EEE21__push_back_slow_pathIKS8_EEvRT_
i6f:_ReadOnlyCollection_1_GetEnumerator_m713393110_gshared
vph:_ProxyAttribute_GetPropertiesForNewContext_m3587421540
_ef:_Array_LastIndexOf_m4096535198
Mkf:_ArrayList_Add_m1719188324
Ejd:__ZN18MultiQueryCallbackIN5physx12PxOverlapHitEE6invokeERfPKNS0_2Sq13PrunerPayloadEj
fCf:_Double_System_IConvertible_ToSByte_m1653690240_AdjustorThunk
sdl:_opendir
OVc:__ZN5physx2Gu18gjkRelativeRayCastINS0_4BoxVES2_NS0_10ShrunkBoxVES3_EEbRT_RT0_RKNS_6shdfnd3aos15PsMatTransformVERKNS9_6FloatVERKNS9_5Vec3VESI_RSD_RSG_SK_fb
al:_glGetStringi
cBi:_GUIStyleState_t3801000545_marshal_pinvoke
dud:__ZN5physx22NpParticleBaseTemplateINS_15PxParticleFluidENS_15NpParticleFluidEE14setRestitutionEf
nyb:__ZN18StreamedBinaryReadILb0EE21TransferSTLStyleArrayI13dynamic_arrayI8Vector4fLj4EEEEvRT_17TransferMetaFlags
f7d:__ZThn8_N5physx2Gu10ConvexMeshD0Ev
Uih:_X509Chain_get_CertificateCollection_m324631835
gAk:__ZN15dense_hashtableI10KeyWrapperIPK19Il2CppGenericMethodES4_N6il2cpp8metadata23Il2CppGenericMethodHashEN14dense_hash_setIS4_S7_NS6_26Il2CppGenericMethodCompareENSt3__29allocatorIS4_EEE8IdentityES9_SC_EC2ERKSF_j
SVh:_EqualityComparer_1__cctor_m1011898363_gshared
ENd:__ZNK5physx2Sq12BucketPruner7raycastERKNS_6PxVec3ES4_RfRNS0_14PrunerCallbackE
N2e:_Array_InternalArray__IndexOf_TisClientCertificateType_t4001384466_m1168139450_gshared
t7i:__Z49RuntimeInvoker_Int32_t2071877448_Link_t2723257478PK10MethodInfoPvPS2_
RCh:_FieldBuilder_get_Name_m2243491233
zMc:__ZN15dense_hashtableINSt3__24pairIKNS1_IPK10Collider2DS4_EE11Collision2DEES5_NS2_23ColliderPairHashFunctorEN14dense_hash_mapIS5_S7_S9_NS0_8equal_toIS5_EE13stl_allocatorIS8_L18MemLabelIdentifier65ELi16EEE9SelectKeyESC_SF_E14squash_deletedEv
XQe:_StringBuilder_Append_m3618697540
WKf:_List_1_GetEnumerator_m3294992758_gshared
g0:__ZN13ScreenManager16SetScreenTimeoutEi
rPb:__Z18Transfer_BlittableI17RemapPPtrTransferLb0EdEvRK29SerializationCommandArgumentsR31RuntimeSerializationCommandInfo
UNe:_SymmetricAlgorithm_set_IV_m4262655606
hkj:_StencilMaterial__cctor_m2963056855
AXh:_EqualityComparer_1_System_Collections_IEqualityComparer_Equals_m315020809_gshared
yRf:_List_1_Find_m3680710386_gshared
Ozh:_CustomAttributeNamedArgument_GetHashCode_m3715408876_AdjustorThunk
rye:__Z38Register_UnityEngine_Font_HasCharacterv
Zhh:_X509Certificate2_AppendBuffer_m3517242299
eXa:__Z35IntersectSpherePlaneBoundsOptimizedRKN4math7_float4EPS1_i
LFf:_CultureInfo_get_IsNeutralCulture_m3874876470
GAf:_Delegate_CreateDelegate_m3813023227
Ail:__ZNKSt3__27num_putIcNS_19ostreambuf_iteratorIcNS_11char_traitsIcEEEEE6do_putES4_RNS_8ios_baseEcx
sTi:__Z46RuntimeInvoker_WellKnownObjectMode_t2630225581PK10MethodInfoPvPS2_
V0c:__ZN5physx2Sc8ShapeSim20createLowLevelVolumeEjRKNS_9PxBounds3EjNS_9AABBMgrIdE
h9j:_Uri_get_AbsoluteUri_m2120317928
zil:__ZNKSt3__27num_putIcNS_19ostreambuf_iteratorIcNS_11char_traitsIcEEEEE6do_putES4_RNS_8ios_baseEcl
Bil:__ZNKSt3__27num_putIcNS_19ostreambuf_iteratorIcNS_11char_traitsIcEEEEE6do_putES4_RNS_8ios_baseEcm
L_k:__ZN6il2cpp2os5posix15PosixWaitObject13InterruptWaitEv
Bpd:__ZNK5physx7NpCloth22getAngularInertiaScaleEv
Rw:__ZN7mecanim6memory16ChainedAllocator10DeallocateEPv
hdg:_BaseInputModule_IsModuleSupported_m4272494372
BXc:__ZN26IntersectAnyVsMeshCallbackILi1ELb1EE10processHitERKN5physx12PxRaycastHitERKNS1_6PxVec3ES7_S7_RfPKj
Eil:__ZNKSt3__27num_putIcNS_19ostreambuf_iteratorIcNS_11char_traitsIcEEEEE6do_putES4_RNS_8ios_baseEce
yil:__ZNKSt3__27num_putIcNS_19ostreambuf_iteratorIcNS_11char_traitsIcEEEEE6do_putES4_RNS_8ios_baseEcb
n6c:__ZN5physx2Sc13ConstraintSim15needsProjectionEv
gca:__Z22CleanupLODGroupManagerPv
V4e:_Array_InternalArray__ICollection_Add_TisContentType_t1028629049_m2984242302_gshared
UId:__ZN5physx6shdfnd5ArrayINS_2Sc5Scene14SimpleBodyPairENS0_19ReflectionAllocatorIS4_EEE8recreateEj
Ll:_glUniform3fv
AGb:__ZNSt3__218__insertion_sort_3IRN15ResourceManager10Dependency6SorterEPS2_EEvT0_S6_T_
cJf:_Enumerator_System_Collections_IEnumerator_Reset_m3796537546_AdjustorThunk
Qxe:_UNITY_FT_Init_Class_tt_service_gx_multi_masters
RRj:_InternalEnumerator_1_System_Collections_IEnumerator_Reset_m3249248421_AdjustorThunk
$Lg:_IntComparer_Compare_m3057931085
N$a:__ZNK16LightmapSettings31GetRealtimeLightmapDecodeValuesEv
vR:__ZN5audio5mixer12SetSuspendedERNS0_16AudioMixerMemoryEb
Lra:__ZN17PersistentManager21UnloadNonDirtyStreamsEv
Phi:__ZL85Component_t3819376471_CustomAttributesCacheGenerator_Component_SendMessage_m913946877P21CustomAttributesCache
nOi:__Z78RuntimeInvoker_Int32_t2071877448_DecimalU26_t1613489971_DecimalU26_t1613489971PK10MethodInfoPvPS2_
JTk:__ZN6il2cpp2vm13LivenessStateC2EP11Il2CppClassjPFvPP12Il2CppObjectiPvES7_PFvvESB_
h3i:__Z41RuntimeInvoker_ColorTweenMode_t1328781136PK10MethodInfoPvPS2_
Kri:__ZL61Graphic_t2426225576_CustomAttributesCacheGenerator_m_MaterialP21CustomAttributesCache
mgh:_Oid__ctor_m1936781897
jge:__ZN5physx6shdfnd8PoolBaseINS_24NpPtrTableStorageManager8PtrBlockILi4EEENS0_19ReflectionAllocatorIS4_EEE12allocateSlabEv
OEi:_Object_INTERNAL_CALL_Internal_InstantiateSingleWithParent_m1401308849
BYj:_ResourceSet__ctor_m1222864106
g4d:__ZN5physx2Sc5Scene13ccdBroadPhaseEPNS_10PxBaseTaskE
qWf:_Collection_1_System_Collections_IList_get_Item_m3376056117_gshared
NNb:__ZN12NativeBufferI27Converter_SimpleNativeClassI8GradientEE19ProcessAfterReadingER9ArrayInfoP11Il2CppClass
fm:_emscripten_glDepthMask
WXd:__ZN5physx2Gu24PCMMeshContactGeneration15processContactsEhb
HYh:__ZL76UInt16_t986882611_CustomAttributesCacheGenerator_UInt16_TryParse_m1818885113P21CustomAttributesCache
bJf:_Enumerator_VerifyState_m3639069574_gshared
dFa:__ZN4crnd25static_huffman_data_model22prepare_decoder_tablesEv
yrb:__ZN9Texture2D23VirtualRedirectTransferER17RemapPPtrTransfer
aee:__ZN5physx7profile8ZoneImplINS_28PxProfileNameProviderForwardEE9doAddNameEPKctb
k9e:_Array_Sort_TisIl2CppObject_TisIl2CppObject_m1915706600_gshared
X_g:_ModulusRing_Difference_m662924064
sRj:_InternalEnumerator_1_MoveNext_m1869236997_gshared
Hjg:_CanvasUpdateRegistry_ObjectValidForUpdate_m855695984
Bsg:_InputField_set_onValueChanged_m2406388125
Nki:__ZL95Physics2D_t2540166467_CustomAttributesCacheGenerator_Physics2D_Raycast_m2303387255____maxDepth5P21CustomAttributesCache
R3f:_ReadOnlyCollection_1_System_Collections_ICollection_get_SyncRoot_m2702046016_gshared
c3:__ZL22CleanupUnityWebStreamsPv
L3j:_Regex_get_RightToLeft_m529734879
VTb:__Z18Transfer_BlittableI18StreamedBinaryReadILb0EELb0E10ColorRGBAfEvRK29SerializationCommandArgumentsR31RuntimeSerializationCommandInfo
Kch:_ListDictionary_Add_m4276262662
Eol:__Znaj
cLe:_RIPEMD160Managed_GGG_m1639995340
EBl:_emscripten_glEnableClientState__wrapper
DNh:_Enumerator_System_Collections_IEnumerator_get_Current_m1648049763_gshared
hal:__ZN6il2cpp6icalls8mscorlib4Mono8Security12Cryptography18KeyPairPersistence15_ProtectMachineEP12Il2CppString
NQi:__Z57RuntimeInvoker_DSAParameters_t1872138834_SByte_t454417549PK10MethodInfoPvPS2_
Cwf:_DateTime__cctor_m2173182045
Ekb:__ZN11GameManager15ThreadedCleanupEv
URf:_List_1__ctor_m1337392449_gshared
jSd:__ZN5physxL26solveFriction4_StaticBlockEPKNS_23PxcSolverConstraintDescERNS_16PxcSolverContextE
Udf:_Array_System_Collections_IList_Remove_m2438892375
SIg:_TextWriter__ctor_m2225796097
qxi:_ScriptableObject_Internal_CreateScriptableObject_m1778903390
PWd:__ZN5physx30PxcGetMaterialShapeHeightFieldEPKNS_12PxsShapeCoreES2_RNS_18PxcNpThreadContextEPNS_15PxsMaterialInfoE
pja:__ZNK6Camera16GetStereoEnabledEv
b3f:__ZN21InterfaceFuncInvoker1I19Vector4_t2243707581iE6InvokeEjP11Il2CppClassPvi
nt:__ZN13AnimationClip9PPtrCurveaSERKS0_
t7b:__ZN12LightManager15InitializeClassEv
R4d:__ZN5physx6shdfnd8PoolBaseINS_2Sc19ParticlePacketShapeENS0_19ReflectionAllocatorIS3_EEE12allocateSlabEv
yzi:_GUIStyle_GetFontInternal_m3509743324
vac:__ZN18ScriptingArgumentsC2Ev
vqj:_TimeZone_IsDaylightSavingTime_m875882154
LNk:__ZN13Il2CppHashMapINSt3__24pairIPK9FieldInfoP11Il2CppClassEEj17ReflectionMapHashIS7_E19ReflectionMapEqualsIS7_ENS0_9allocatorINS1_IK10KeyWrapperIS7_EjEEEEEC2EjRKS9_RKSB_
lLj:_ArrayReadOnlyList_1_Insert_m503707439_gshared
Owl:_emscripten_glBlendFuncSeparate__wrapper
EOi:__Z52RuntimeInvoker_Single_t2076509932_Decimal_t724701077PK10MethodInfoPvPS2_
R3g:_CipherSuiteCollection_System_Collections_IList_set_Item_m750275607
CMe:_SHA1CryptoServiceProvider__ctor_m3127563759
Kq:__ZN8Vector3f8TransferI14SafeBinaryReadEEvRT_
ewi:__ZL103BaseVertexEffect_t2504093552_CustomAttributesCacheGenerator_BaseVertexEffect_ModifyVertices_m3446986347P21CustomAttributesCache
pp:FUNCTION_TABLE_ii
pOh:_Enumerator_MoveNext_m335649778_AdjustorThunk
wkb:__ZN10TagManager8TransferI18StreamedBinaryReadILb0EEEEvRT_
tzc:__Z18Transfer_BlittableI9JSONWriteLb0E8BitFieldEvRK29SerializationCommandArgumentsR31RuntimeSerializationCommandInfo
Stj:_UInt32_ToString_m3894907091_AdjustorThunk
Efc:__Z35scripting_class_get_field_from_nameP11Il2CppClassPKc
fvl:b44
Eb:invoke_diiii
iHc:__ZNK13BoxCollider2D26GetTypeInfoVirtualInternalEv
GWc:__ZL17sweepVolumeVsMeshPKN5physx3Cct9SweepTestEPKNS0_11TouchedMeshERNS0_12SweptContactERKNS_6PxVec3ERKNS_10PxGeometryERKNS_11PxTransformEjPKNS_10PxTriangleEj
pMh:_ShimEnumerator_get_Key_m616785465_gshared
pUg:_SmallXmlParser_Error_m1832158746
Tlh:_RepeatContext_get_IsLazy_m1620488045
Qid:__ZNK5physx12NpBatchQuery19getFilterShaderDataEv
i$d:__ZN5physx2Gu31checkOverlapOBB_heightFieldGeomERKNS_10PxGeometryERKNS_11PxTransformERKNS0_3BoxE
cvl:b41
p0b:__ZN9ShaderLab20SerializedSubProgram8TransferI18StreamedBinaryReadILb0EEEEvRT_
sIg:_StreamAsyncResult_get_AsyncWaitHandle_m4218169359
mCi:_LayerMask_op_Implicit_m2135076047
avl:b40
wPc:__ZN5physx2Gu23findRotationMatrixFromZERKNS_6PxVec3E
rVa:__Z9EndJobSetR8JobFence11JobPriority
wcf:_Array_InternalArray__get_Item_TisContactPoint2D_t3659330976_m825151777_gshared
Wye:__ZN2UI13CanvasManager9AddCanvasEPNS_6CanvasE
o1a:__ZN14qsort_internal6_QSortIP21ForwardRenderPassDataiN23ForwardShaderRenderLoop18RenderObjectSorterILb0EEEEEvT_S6_T0_T1_
VUa:__ZNK6Camera22CalculateRenderingPathEv
hAc:__ZN9JSONWrite8TransferI5RectTIfEEEvRT_PKc17TransferMetaFlags
GHd:__ZN5physx13NpVolumeCache10invalidateEv
v2g:_ContentInfo_get_Content_m1802070908
Xs:__ZN15SerializeTraitsIKN4math7_float4EE8TransferI14SafeBinaryReadEEvRS2_RT_
OOb:__ZL12InvokeMethodI17RemapPPtrTransferEvRK29SerializationCommandArgumentsR31RuntimeSerializationCommandInfo
QXg:_X509Certificate_get_PublicKey_m714501701
Jug:_U3CMouseDragOutsideRectU3Ec__Iterator1_System_Collections_IEnumerator_get_Current_m561728752
hqe:_tt_sbit_decoder_load_image
Tha:__Z14IsHalfRTFormat19RenderTextureFormat
TUe:_String_LastIndexOf_m290475879
gEc:__ZN15b2DistanceJointD0Ev
Erg:_Image_get_layoutPriority_m2151045813
Bs:__ZNSt3__26vectorI14AnimationEvent13stl_allocatorIS1_L18MemLabelIdentifier25ELi16EEE8__appendEj
E5i:__Z71RuntimeInvoker_Void_t1841601450_CornerU26_t4129226442_Int32_t2071877448PK10MethodInfoPvPS2_
KJg:_TextReader_Read_m975794707
Wrc:__ZNSt3__24listIN10GUIManager12SortedScriptE11memory_poolIS2_EE6__sortI13OldSortScriptEENS_15__list_iteratorIS2_PvEESA_SA_jRT_
u1c:__ZN5physx6shdfnd5ArrayIPvNS0_19ReflectionAllocatorINS_2Sc10NPhaseCore16ClothListElementEEEE15growAndPushBackERKS2_
auj:_UInt64_System_IConvertible_ToChar_m1930853313_AdjustorThunk
Z6g:_TlsClientCertificate_SendCertificates_m1096074091
Zhg:_UIBehaviour_OnCanvasHierarchyChanged_m762109874
Spf:_SyncHashtable_get_Item_m408601391
k8h:__ZL45DSA_t903174880_CustomAttributesCacheGeneratorP21CustomAttributesCache
T6d:__ZN5physx2Gu10ConvexMeshD0Ev
VVf:_Stack_1_System_Collections_ICollection_CopyTo_m2104527616_gshared
b6k:_GC_add_map_entry
SYe:_StringBuilder_AppendFormat_m1666670800
w2a:__ZN18DeferredRenderLoop13RenderGBufferEP13RenderTexturePS1_b8JobFencePK25DeferredRenderLoopScratchRi
Bgl:__ZNSt3__219__iostream_categoryD0Ev
P$i:__Z67RuntimeInvoker_Double_t4078015681_Playable_t3667545548_Il2CppObjectPK10MethodInfoPvPS2_
Av:__ZN13AnimationClip8TransferI17RemapPPtrTransferEEvRT_
PPb:__Z18Transfer_BlittableI17RemapPPtrTransferLb1E8BitFieldEvRK29SerializationCommandArgumentsR31RuntimeSerializationCommandInfo
lSk:__ZN6il2cpp6icalls8mscorlib6System9ThreadingL11ThreadStartEPv
Qal:__ZN6il2cpp2vm9LastError31InitializeLastErrorThreadStaticEv
xLa:__ZN9GfxDevice12DeleteBufferEP9GfxBuffer
k8f:_ReadOnlyCollection_1_System_Collections_IList_Remove_m3878418841_gshared
Gsg:_InputField_EnforceContentType_m1902926812
I_a:__ZN14qsort_internal31_FindAndMovePivotToLastPositionIP15RODataDepthPassi17ROSorterDepthPassEEvT_S4_T0_T1_
Anc:__Z97Register_UnityEngine_Experimental_Director_Playable_INTERNAL_CALL_SetInputWeightFromIndexInternalv
oia:__ZN12CachedReader10Align4ReadEv
UIc:__ZN15b2WorldManifold10InitializeEPK10b2ManifoldRK11b2TransformfS5_f
h3f:_Collection_1_CopyTo_m42272870_gshared
B0i:__Z154RuntimeInvoker_RaycastHit2D_t4063908774_Vector2_t2243707579_Vector2_t2243707579_Single_t2076509932_Int32_t2071877448_Single_t2076509932_Single_t2076509932PK10MethodInfoPvPS2_
zVk:__ZN6il2cpp2vm9Exception28GetMarshalDirectiveExceptionEPKc
lNg:_MulticastDelegate_GetObjectData_m3187757658
gjg:_CanvasScaler_set_referencePixelsPerUnit_m1188599784
U8f:_ReadOnlyCollection_1_System_Collections_IList_get_Item_m887129009_gshared
kkd:__ZN5physx2Sc14ConstraintCore13setBreakForceEff
E8:__Z26scripting_class_is_genericP11Il2CppClass
I4b:__ZNK28MonoBehaviourPropertyBinding12SetPPtrValueERKN11UnityEngine9Animation10BoundCurveEi
Bje:__ZN20TextRenderingPrivate8FontImpl8TransferI14SafeBinaryReadEEvRT_
Muk:__ZL25UnresolvedVirtualCall_164P12Il2CppObject20UIVertex_t1204258818PK10MethodInfo
b5i:__Z59RuntimeInvoker_Boolean_t3825574718_KeyValuePair_2_t38854645PK10MethodInfoPvPS2_
sLb:__ZN9Scripting35ErrorMessageForUnsupportedEnumFieldEP9FieldInfo
SEd:__ZN5physx7NpScene15removeAggregateERNS_11PxAggregateEb
Gzi:_GUIStyle_Draw_m4006459684
kzf:_Decimal_System_IConvertible_ToType_m3828527724_AdjustorThunk
iAa:__ZN9GfxDevice17ImmediateTexCoordEifff
k5j:_Parser_ParseRegularExpression_m2390577313
Nre:_ft_black_new
pkl:__ZNSt3__28time_putIwNS_19ostreambuf_iteratorIwNS_11char_traitsIwEEEEED2Ev
vOg:_OperatingSystem_Clone_m1943707477
u6j:_Alternation_AddAlternative_m623421443
ujh:_X509CertificateEnumerator_System_Collections_IEnumerator_Reset_m327358896
Fbj:__Z36RuntimeInvoker_Enumerator_t402048720PK10MethodInfoPvPS2_
i5e:_Array_InternalArray__ICollection_CopyTo_TisKeyValuePair_2_t1174980068_m1818152223_gshared
IQe:_Hash__ctor_m2554411450
MNe:_SHAConstants__cctor_m2781430679
Bhb:__ZN17FileSystemHandler4CopyER13FileEntryDataS1_
HSe:_Single_System_IConvertible_ToDateTime_m2510003459_AdjustorThunk
$Af:_Delegate_RemoveImpl_m3666700529
Nul:_emscripten_glUniform4f__wrapper
ddh:_NameObjectCollectionBase_OnDeserialization_m3478980442
crg:_Image_get_mainTexture_m1027716278
ssg:_InputField_set_caretColor_m2252440840
j2d:__ZN5physx6shdfnd5ArrayINS_25PxcThresholdStreamElementENS0_19ReflectionAllocatorIS2_EEE8recreateEj
GF:__ZN8Animator8TransferI19StreamedBinaryWriteILb0EEEEvRT_
tWa:__ZNK6Camera16GetProjectionFarEv
O5a:__Z24InverseTransformRotationRK23TransformAccessReadOnlyRKN4math7_float4E
cS:__ZN11AudioSource6UpdateEv
Ojf:_Char_GetHashCode_m2343577184
jLi:_StateMachineBehaviour_OnStateExit_m1490844990
Xza:__ZN9GfxDevice21ResetDynamicResourcesEv
Eal:__ZN6il2cpp2os9FastMutex4LockEv
Cqd:__ZN5physx7NpCloth21setCollisionMassScaleEf
x$d:__ZN5physx6shdfnd5ArrayINS_7PxPlaneENS0_19ReflectionAllocatorIS2_EEE8recreateEj
wbg:_Comparison_1_EndInvoke_m4174686984_gshared
Mth:_StreamingContext__ctor_m3063421596_AdjustorThunk
Fie:__ZN13PhysicsModule17GetRigidBodyStateERK9RigidbodyPN8IPhysics14RigidBodyStateE
PGe:__ZN20UnityConnectSettings23VirtualRedirectTransferER18StreamedBinaryReadILb1EE
Z7f:_ReadOnlyCollection_1_System_Collections_Generic_IListU3CTU3E_Insert_m3054305464_gshared
HZh:__ZL70IntPtr_t_CustomAttributesCacheGenerator_IntPtr_op_Explicit_m3896766622P21CustomAttributesCache
cuk:__ZL25UnresolvedVirtualCall_128P12Il2CppObject17Color_t2020392075PK10MethodInfo
uF:__ZN8Animator8TransferI14SafeBinaryReadEEvRT_
ejb:__ZN17GlobalGameManager23VirtualRedirectTransferER18StreamedBinaryReadILb0EE
o3e:_Array_InternalArray__IndexOf_TisTypeTag_t141209596_m2882894956_gshared
sjj:_Slider_get_value_m4182660424
ZCc:__ZNK14b2CapsuleShape5CloneEP16b2BlockAllocator
Xx:__ZN17AnimationPlayable34CollectAnimatorControllerPlayablesER13dynamic_arrayIP26AnimatorControllerPlayableLj4EE
cV:__ZN16BaseVideoTexture19UpdateVideoTexturesEv
A0i:__Z79RuntimeInvoker_RaycastHit2D_t4063908774_Vector2_t2243707579_Vector2_t2243707579PK10MethodInfoPvPS2_
nta:__ZNK16LightmapSettings23HasLightProbeTetrahedraEv
i6g:_Context_get_WriteSequenceNumber_m243492531
Ewb:__ZN6Sprite23VirtualRedirectTransferER19StreamedBinaryWriteILb0EE
GWh:_EqualityComparer_1_System_Collections_IEqualityComparer_GetHashCode_m3761319178_gshared
LUe:_String_LastIndexOfAny_m1473637802
Bpc:__Z38Transform_CUSTOM_INTERNAL_set_positionP12Il2CppObjectRK8Vector3f
Zvj:_Version_CompareTo_m596235198
lNf:_List_1_System_Collections_ICollection_CopyTo_m3062449209_gshared
Fka:__ZNK9ShaderLab7Program19HasMatchingVariantsERK13dynamic_arrayI16ShaderKeywordSetLj4EE
YD:__ZN15SerializeTraitsIN4math4trsXEE8TransferI8BlobSizeEEvRS1_RT_
Ge:_emscripten_glVertexPointer
GMa:__ZNSt3__26__treeI20DeviceDepthStateGLES11memcmp_lessIS1_S1_ENS_9allocatorIS1_EEE7destroyEPNS_11__tree_nodeIS1_PvEE
iog:_Graphic__ctor_m821539719
vMf:_List_1_System_Collections_Generic_ICollectionU3CTU3E_get_IsReadOnly_m1614481629_gshared
KEk:__ZN6il2cpp2vm7Runtime47RaiseExecutionEngineExceptionIfMethodIsNotFoundEPK10MethodInfo
R1a:__Z17GetFrustumPortionPK8Vector3fffPS_
i4c:__ZNK5physx2Gu22SupportMapRelativeImplINS0_4BoxVEE18doWarmStartSupportEiRNS_6shdfnd3aos5Vec3VE
pvj:_UnauthorizedAccessException__ctor_m259001183
rMe:__ZN18VirtActionInvoker1IP30AsymmetricAlgorithm_t784058677E6InvokeEjPvS1_
ijk:_TouchScreenKeyboard_set_text_m3456054179
$lg:_DefaultControls_CreateDropdown_m1384069408
uwk:__ZNK15dense_hashtableINSt3__24pairIK10KeyWrapperIPK22Il2CppGenericParameterEP11Il2CppClassEES6_N6il2cpp5utils11PointerHashIS4_EEN14dense_hash_mapIS6_S9_SE_NS0_8equal_toIS6_EENS0_9allocatorISA_EEE9SelectKeyESH_SJ_E5beginEv
tol:__ZNSt3__26locale5__imp11make_globalEv
Ofg:_PointerEventData_get_clickCount_m4064532478
S5f:_ReadOnlyCollection_1_System_Collections_Generic_ICollectionU3CTU3E_get_IsReadOnly_m3508872969_gshared
Eob:__ZN14DirectorPlayerD0Ev
fOg:_NumberFormatter_NumberToString_m3855209845
smk:_UnityEvent_1_GetDelegate_m4062537313_gshared
edk:_X509Stores_Open_m2057354563
xEf:_CCGregorianCalendar_is_leap_year_m567513478
qIk:__ZNK19ReflectionMapEqualsINSt3__24pairIPK14Il2CppAssemblyP11Il2CppClassEEEclERK10KeyWrapperIS7_ESC_
Tgh:_Oid_get_Value_m2271181078
Yff:_Attribute_IsDefined_m2118467641
weg:_ExecuteEvents_Execute_m898902863
oMj:_InternalEnumerator_1_System_Collections_IEnumerator_get_Current_m3125080595_gshared
K0f:_Collection_1_System_Collections_IList_Add_m2091889616_gshared
Hac:__ZN16StreamedResource8TransferI24GenerateTypeTreeTransferEEvRT_
yEc:__ZN11b2GearJoint4DumpEv
Ang:_DropdownItem_OnPointerEnter_m761897861
_Gb:__ZN19StreamedBinaryWriteILb0EE8TransferINSt3__24pairI8UnityStr4PPtrI6ObjectEEEEEvRT_PKc17TransferMetaFlags
TZc:__ZN5physx3Cct10Controller13onOriginShiftERKNS_6PxVec3E
FJa:__ZN10Matrix3x3f15InvertTransposeEv
b$e:_Array_InternalArray__ICollection_Remove_TisKeyValuePair_2_t1174980068_m2768765894_gshared
y0e:_Enumerable_Where_TisIl2CppObject_m4266917885_gshared
yxc:__ZN6HelperI8JSONRead23TransferArrayField_InfoE24SerializationFunctionForERKS1_R23StaticTransferFieldInfoPb
zSa:__Z11IsBatchmodev
CKk:__ZNK15dense_hashtableINSt3__24pairIK10KeyWrapperINS1_IPK10MethodInfoP11Il2CppClassEEEjEES9_17ReflectionMapHashIS8_EN14dense_hash_mapIS9_jSD_19ReflectionMapEqualsIS8_ENS0_9allocatorISB_EEE9SelectKeyESG_SI_E10test_emptyERK24dense_hashtable_iteratorISB_S9_SD_SK_SG_SI_E
hbk:_PKCS12_CertificateSafeBag_m3272197807
EZf:_Collection_1_set_Item_m2199807215_gshared
TQd:__ZN5physx2Gu19_gjkRelativeRayCastINS0_9TriangleVENS0_11ConvexHullVEEEbRT_RT0_RKNS_6shdfnd3aos15PsMatTransformVERKNS9_6FloatVERKNS9_5Vec3VESI_RSD_RSG_SK_f
pOb:__Z29Transfer_Blittable_ArrayFieldI14SafeBinaryRead8Vector3fEvRT_R9ArrayInfoRK23StaticTransferFieldInfo
ctj:_UInt32_System_IConvertible_ToBoolean_m91295134
Hnj:_Monitor_Monitor_test_synchronised_m1542589500
Xmi:__ZL68RuntimePlatform_t1869584967_CustomAttributesCacheGenerator_WP8PlayerP21CustomAttributesCache
Eke:__ZN20TextRenderingPrivate8FontImpl18ResetCachedTextureEv
aZh:__ZL75String_t_CustomAttributesCacheGenerator_String_Concat_m626692867____values0P21CustomAttributesCache
oii:__ZL98GameObject_t1756533147_CustomAttributesCacheGenerator_GameObject_SendMessage_m71956653____options2P21CustomAttributesCache
lWg:_SymmetricTransform_TransformFinalBlock_m4192185386
hzg:_TextInfo__ctor_m1263401274
eWd:__ZNK5physx19ActorAABBUpdateTask7getNameEv
Qnk:_ListPool_1_Release_m3047738410_gshared
gjk:_TouchScreenKeyboard_Open_m913506328
V4k:_GC_print_finalization_stats
Y5g:_Context_get_SecurityProtocolFlags_m3295551796
UOh:_ValueCollection__ctor_m927733289_gshared
Pmk:_UnityEvent_4_FindMethod_Impl_m4079512420_gshared
TFc:__ZNK12b2WheelJoint10GetAnchorBEv
_Rj:_InternalEnumerator_1__ctor_m2981879621_AdjustorThunk
eic:__Z53Register_UnityEngine_Behaviour_get_isActiveAndEnabledv
yhi:__ZL87Component_t3819376471_CustomAttributesCacheGenerator_Component_GetComponent_m4225719715P21CustomAttributesCache
mKb:__ZNK13MonoBehaviour26GetTypeInfoVirtualInternalEv
gXh:_EqualityComparer_1__ctor_m3971803374_gshared
lkb:__ZNSt3__26vectorIN4core12basic_stringIcNS1_20StringStorageDefaultIcEEEENS_9allocatorIS5_EEE8__appendEj
Zkl:__ZNKSt3__210moneypunctIwLb0EE13do_pos_formatEv
pHk:_il2cpp_gc_collect
_Fb:__ZN26PlayerSettingsSplashScreen8TransferI17RemapPPtrTransferEEvRT_
mke:__ZN20TextRenderingPrivate8FontImpl8TransferI17RemapPPtrTransferEEvRT_
RPj:_InternalEnumerator_1_get_Current_m3922357178_gshared
sFk:__ZN6il2cpp6icalls8mscorlib6SystemL17CollectTypeFieldsINS_5utils10functional10TrueFilterEEEvP11Il2CppClassPKS7_iRNSt3__26vectorIP9FieldInfoNSB_9allocatorISE_EEEERKT_
Uqi:__ZL72ColorBlock_t2652774230_CustomAttributesCacheGenerator_m_HighlightedColorP21CustomAttributesCache
K4c:__ZN5physx3Scb5Scene20addArticulationJointERNS0_17ArticulationJointE
Qzb:__ZN7SubMesh8TransferI18StreamedBinaryReadILb1EEEEvRT_
Nqj:_Type_get_IsValueType_m1733572463
CFd:__ZN5physx7NpScene14resetFilteringERNS_12PxRigidActorEPKPNS_7PxShapeEj
jub:__Z13GetTagManagerv
dNj:_InternalEnumerator_1_Dispose_m1748410190_AdjustorThunk
ORi:__Z127RuntimeInvoker_Void_t1841601450_IntPtr_t_Int32_t2071877448_SByte_t454417549_Int32_t2071877448_SByte_t454417549_SByte_t454417549PK10MethodInfoPvPS2_
D$e:_Array_InternalArray__ICollection_Remove_TisUInt16_t986882611_m65494986_gshared
j6f:_ReadOnlyCollection_1_IndexOf_m3054637117_gshared
CE:__ZN11UnityEngine9Animation37HasGenericRootTransformPropertyValuesERKNS0_30AnimatorGenericBindingConstantEb
hW:__ZN11UnityEngine15CloudWebService17CloudJobSchedulerD0Ev
DTe:_String_System_IConvertible_ToBoolean_m2696751322
Vra:__ZN18LoadSceneOperation7PerformEv
Tje:__ZNSt3__26vectorI8UnityStr13stl_allocatorIS1_L18MemLabelIdentifier34ELi16EEE8__appendEj
YPj:_InternalEnumerator_1__ctor_m3228997263_AdjustorThunk
CJj:_GUILayer_INTERNAL_CALL_HitTest_m693512502
ZOc:__ZL30GeomMTDCallback_CapsuleCapsuleRN5physx6PxVec3ERfRKNS_10PxGeometryERKNS_11PxTransformES5_S8_
Dy:__ZN7mecanim9animation17DestroyClipOutputEPNS0_10ClipOutputERNS_6memory9AllocatorE
khg:__ZN16VirtFuncInvoker1IfP8String_tE6InvokeEjPvS1_
pM:__ZL16FMOD_ErrorString11FMOD_RESULT_464
szj:_Camera_get_pixelRect_m2084185953
Nvk:__ZL25UnresolvedVirtualCall_219P12Il2CppObjecti20Playable_t3667545548PK10MethodInfo
oXc:__ZL18intersectAnyVsMeshILi0EEbPKN5physx2Gu6SphereEPKNS1_7CapsuleEPKNS1_3BoxERKNS1_13RTreeMidphaseERKNS0_11PxTransformERKNS0_11PxMeshScaleEP14LimitedResults
opj:_TimeSpan__ctor_m1888018443_AdjustorThunk
uba:__ZL23AddConflictingClassIMPL11ClassIDTypeS_
rw:__ZN19StreamedBinaryWriteILb0EE21TransferSTLStyleArrayI22OffsetPtrArrayTransferIN7mecanim9animation10ValueDeltaEEEEvRT_17TransferMetaFlags
Npf:_SyncHashtable_get_Count_m3694444082
Abd:__ZN5physx14NpArticulation6wakeUpEv
MPk:__ZNSt3__26vectorINS_12basic_stringIcNS_11char_traitsIcEENS_9allocatorIcEEEENS4_IS6_EEE8allocateEj
z2i:__Z131RuntimeInvoker_Void_t1841601450_Il2CppObject_AnimatorStateInfo_t2577870592_Int32_t2071877448_AnimatorControllerPlayable_t4078305555PK10MethodInfoPvPS2_
cLa:__ZN22VertexDeclarationCache5ClearEv
nAl:_emscripten_glUniform2i__wrapper
Ztf:_Double_Parse_m2344589511
WUa:__ZN6Camera24PrepareCullingParametersERK23CameraCullingParameters13RenderingPathR11CullResults
KZi:__Z54RuntimeInvoker_Vector3_t2243707580_Vector3_t2243707580PK10MethodInfoPvPS2_
b1i:__Z54RuntimeInvoker_Vector2_t2243707579_Vector2_t2243707579PK10MethodInfoPvPS2_
m9h:__ZL84Evidence_t1407710183_CustomAttributesCacheGenerator_Evidence_GetHashCode_m1260371757P21CustomAttributesCache
TYa:__ZN13MonoBehaviour30InvokeMethodOrCoroutineCheckedE21ScriptingMethodIl2CppP12Il2CppObjectPP15Il2CppException
a6f:_ReadOnlyCollection_1_System_Collections_ICollection_get_IsSynchronized_m2344337514_gshared
VOb:__Z26Transfer_UnityEngineObjectI17RemapPPtrTransferLb0EEvRK29SerializationCommandArgumentsR31RuntimeSerializationCommandInfo
VUe:_String_IsNullOrEmpty_m2802126737
Lif:_Byte_Parse_m1442736478
BBa:__ZN13GfxDeviceGLES15OnDeviceCreatedEb
PCg:_Int64_Parse_m3258022240
GUe:_String_IndexOfOrdinal_m3591623977
a7a:__ZN10GameObject12SetHideFlagsEi
Pvh:_CryptoConfig_EncodeLongNumber_m2352037787
srj:_Type_GetMethod_m475234662
nTe:_Single_GetHashCode_m3102305584
sGf:_KeyValuePair_2__ctor_m1877755778_AdjustorThunk
k_j:_ActivationServices_get_ConstructionActivator_m1726426854
PRb:__Z29Transfer_Blittable_ArrayFieldI24GenerateTypeTreeTransfer4AABBEvRT_R9ArrayInfoRK23StaticTransferFieldInfo
Obi:__ZL76Convert_t2607082565_CustomAttributesCacheGenerator_Convert_ToChar_m245844937P21CustomAttributesCache
hbi:__ZL52Activator_t1850728717_CustomAttributesCacheGeneratorP21CustomAttributesCache
X5k:_GC_adj_bytes_allocd
ekj:_SpriteState_t1353336012_marshal_pinvoke_cleanup
R4e:_Array_InternalArray__ICollection_Add_TisKeyframe_t1449471340_m887263954_gshared
e8d:__ZN5physx20InternalTriangleMesh16allocateVerticesEj
ikk:_UIVertex__cctor_m803910084
q6e:_Array_InternalArray__Insert_TisDateTime_t693205669_m1484996356_gshared
rNf:_List_1_System_Collections_IList_Remove_m3933652540_gshared
WTh:_DefaultComparer_GetHashCode_m926674183_gshared
FHg:_MonoIO_get_ConsoleInput_m2976499023
jFh:_OpCode_get_Size_m481593949_AdjustorThunk
jnf:_BitArrayEnumerator_checkVersion_m3839504595
nef:_Array_GetUpperBound_m1352329707
ZRa:__ZZ23InitPlayerLoopCallbacksvEN36UpdateScriptRunBehaviourUpdatestruct7ForwardEv
mUd:__ZN5physx6shdfnd5ArrayINS_17PxcBroadPhasePairENS0_19ReflectionAllocatorIS2_EEE8recreateEj
pbf:_Mesh_SetListForChannel_TisIl2CppObject_m2261448912_gshared
uZi:__Z61RuntimeInvoker_Void_t1841601450_Byte_t3683104436_Il2CppObjectPK10MethodInfoPvPS2_
D4g:_RecordProtocol__ctor_m168945279
tyf:_DateTimeOffset_Equals_m3728302791_AdjustorThunk
AVc:__ZThn4_N16RayRTreeCallbackILi1ELb0EED1Ev
Vae:__ZN5physx17ConvexMeshBuilder22computeInternalObjectsEv
dBi:_GUIStyleState_t3801000545_marshal_pinvoke_back
C1a:__ZN20SphericalHarmonicsL219AddDirectionalLightERKN4math7_float3ERKNS0_7_float4E
O6d:__ZN5physx13BigConvexDataD2Ev
lqj:_TimeSpan_op_GreaterThanOrEqual_m3997050520
Fci:__ZL77Convert_t2607082565_CustomAttributesCacheGenerator_Convert_ToUInt16_m36213644P21CustomAttributesCache
T3:__Z26ScheduleJobForEachInternalR8JobFencePFvPvjES1_iPFvS1_E11JobPriority
chh:_OidEnumerator_MoveNext_m1889267785
Iec:__ZN9Scripting18RaiseMonoExceptionEPKcz
gki:__ZL76Physics_t634932869_CustomAttributesCacheGenerator_Physics_Raycast_m780162053P21CustomAttributesCache
nrb:__ZN9Texture2D8TransferI19StreamedBinaryWriteILb0EEEEvRT_
nJb:__ZN24RingBufferMemoryFileData6UnlockEPv
Mxi:_GUISkin_set_box_m877476512
Dng:_OptionData__ctor_m3070653720
Fnk:_TweenRunner_1_StartTween_m3792842064_gshared
Q7b:__ZN9ShaderLab16FastPropertyName15InitBy28BitHashEj
PSe:_Single_System_IConvertible_ToInt32_m3269519527_AdjustorThunk
Kxk:__ZN6il2cpp2vm5Class7GetNameEP11Il2CppClass
EXb:__ZN13MonoBehaviour18TransferEngineDataI18StreamedBinaryReadILb0EEEE4PPtrI10MonoScriptERT_
IMe:_SHA1Internal_ProcessBlock_m4070037334
s7k:__ZN6il2cpp6icalls8mscorlib6System10Reflection14MonoMethodInfo15get_method_infoE12Il2CppIntPtrP16Il2CppMethodInfo
wZe:_UTF32Encoding_GetDecoder_m2714144074
Roh:_ObjRef_GetObjectData_m3081609242
pWd:__ZN5physx20updateBodyShapeAABBsEPKjjS1_PKNS_17PxcAABBDataStaticEPNS_11IntegerAABBEj
ezb:__ZN17PackedFloatVector12UnpackFloatsEPfiiii
U9h:__ZL113EncoderReplacementFallback_t4228544112_CustomAttributesCacheGenerator_EncoderReplacementFallback__ctor_m517300448P21CustomAttributesCache
a4f:_ReadOnlyCollection_1__ctor_m3671019970_gshared
mPf:_List_1_System_Collections_Generic_ICollectionU3CTU3E_get_IsReadOnly_m3511020562_gshared
$Aa:__ZN13GfxDeviceGLES21DestroyComputeProgramER12ObjectHandleI18ComputeProgram_TagPvE
wtf:_Convert_ToDecimal_m2007036836
jca:__ZN17UniqueIDGenerator16DestroyPureIndexEj
IZb:__ZN14SafeBinaryRead21TransferSTLStyleArrayINSt3__26vectorIN9ShaderLab20SerializedSubProgram12UAVParameterENS1_9allocatorIS5_EEEEEEvRT_17TransferMetaFlags
r0j:_Context_NotifyDynamicSinks_m1367144344
b$:__ZNK13BaseAllocator10IsAssignedEv
AY:__ZN24TextDOMTransferWriteBaseI9JSONWriteE12PushMetaFlagEi
hXg:__ZN16VirtFuncInvoker1I25DSAParameters_t1872138834bE6InvokeEjPvb
dQh:_Dictionary_2_TryGetValue_m3108198470_gshared
hqd:__ZN5physx7NpCloth22removeCollisionCapsuleEj
E6g:_Context_get_Current_m2717045324
NLi:__Z45RuntimeInvoker_Int16_t4041245914_Il2CppObjectPK10MethodInfoPvPS2_
Sbk:_X509Certificate_GetSubjectName_m1189079906
lng:_Dropdown_DestroyItem_m234623804
J4g:_TlsClientCertificateVerify__ctor_m110646389
gqa:__ZN6prcoreL26RemapGenericIntegerToFloatI17TexFormatARGB888815TexFormatRFloatEEvPKNS_9InnerInfoE
K_:__ZN5Mutex6UnlockEv
qEk:__ZN6il2cpp2vm10ThreadPool10InitializeEv
A0j:_Context_GetServerContextSinkChain_m390126977
APk:__ZN6il2cpp2vm17TypeNameParseInfoD2Ev
NKk:__ZNK15dense_hashtableINSt3__24pairIK10KeyWrapperINS1_IPK11Il2CppImageP11Il2CppClassEEEjEES9_17ReflectionMapHashIS8_EN14dense_hash_mapIS9_jSD_19ReflectionMapEqualsIS8_ENS0_9allocatorISB_EEE9SelectKeyESG_SI_E13find_positionERSA_
q2d:__ZN5physx18PxsSolverStartTask16articulationTaskEv
q9e:_Array_Sort_TisIl2CppObject_m143182644_gshared
lJg:_StringReader_Read_m513112775
ptb:__ZNK8Renderer8GetLayerEv
U5c:__ZN5physx6shdfnd4sortIPvNS0_4LessIS2_EENS0_19ReflectionAllocatorINS_2Cm5BlockIS2_Lj16EEEEEEEvPT_jRKT0_RKT1_j
SYc:__ZN5physx3Cct17CapsuleController18setNonWalkableModeENS_27PxControllerNonWalkableMode4EnumE
e6c:__ZN5physx2Sc11InteractionD2Ev
RXf:_Collection_1_Add_m2613548553_gshared
yA:__ZN7mecanim9animation22DestroyBlendTreeOutputEPNS0_15BlendTreeOutputERNS_6memory9AllocatorE
Z1a:__ZNK6Camera20GetReplacementShaderEv
Jjd:__ZN18MultiQueryCallbackIN5physx12PxRaycastHitEE6invokeERfPKNS0_2Sq13PrunerPayloadEj
dzf:_Decimal__ctor_m569480123_AdjustorThunk
neh:_HttpWebRequest__cctor_m3013631978
LPc:__ZN5physx2Gu9ContainerC2Ev
RZb:__ZNSt3__26vectorIN9ShaderLab20SerializedSubProgram14ConstantBufferENS_9allocatorIS3_EEE7reserveEj
Uta:__ZL23stbir__calculate_memoryP11stbir__info
Tig:_Button_OnPointerClick_m2524861687
kYi:__Z90RuntimeInvoker_Boolean_t3825574718_Int32_t2071877448_Int32U26_t455636984_Int32_t2071877448PK10MethodInfoPvPS2_
MTg:_KeyGeneratedEventHandler_EndInvoke_m1587195139
jBd:__ZN5physx15NpActorTemplateINS_13PxRigidStaticEE13setActorFlagsENS_7PxFlagsINS_11PxActorFlag4EnumEtEE
hgj:_Scrollbar_FindSelectableOnRight_m3219495255
tq:__ZN9Behaviour11FixedUpdateEv
dHb:__ZNK30RuntimeInitializeOnLoadManager26GetTypeInfoVirtualInternalEv
mze:__ZNSt3__227__insertion_sort_incompleteIRPFbPN2UI6CanvasES3_EPS3_EEbT0_S8_T_
mCc:__ZNK9rapidjson12GenericValueINS_4UTF8IcEE13JSONAllocatorE6AcceptINS_12PrettyWriterI16TempBufferWriterS2_S2_S3_EEEEbRT_
Byd:__ZN5physx19NpRigidBodyTemplateINS_14PxRigidDynamicEE11attachShapeERNS_7PxShapeE
a6e:_Array_InternalArray__ICollection_CopyTo_TisVector3_t2243707580_m509487340_gshared
Wpg:_GridLayoutGroup_get_constraint_m1351424857
Rxc:__ZL26Transfer_SimpleNativeClassI8JSONRead10RectOffsetLb1EEvRK29SerializationCommandArgumentsR31RuntimeSerializationCommandInfo
yCe:__Z44CanvasRenderer_CUSTOM_INTERNAL_CALL_SetColorP12Il2CppObjectRK10ColorRGBAf
w4k:_GC_should_collect
Tae:__ZN5physx2Gu27computeBoundsAroundVerticesERNS_9PxBounds3EjPKNS_6PxVec3E
y_j:_UrlAttribute_Equals_m1587451932
q2:__ZNSt3__26__treeINS_12basic_stringIcNS_11char_traitsIcEENS_9allocatorIcEEEENS_4lessIS6_EENS4_IS6_EEE12__find_equalIS6_EERPNS_16__tree_node_baseIPvEESG_RKT_
RAc:__Z18Transfer_BlittableI9JSONWriteLb1EsEvRK29SerializationCommandArgumentsR31RuntimeSerializationCommandInfo
IEd:__ZNK5physx7NpScene9getLimitsEv
eBg:_Int16_ToString_m4099416068_AdjustorThunk
Rwh:_DSAParameters_t1872138834_marshal_pinvoke_cleanup
yja:__ZN6ObjectD2Ev
sRa:__ZZ23InitPlayerLoopCallbacksvEN44EarlyUpdateResetFrameStatsAfterPresentstruct7ForwardEv
nRd:__ZNK5physx2Gu29EPASupportMapPairRelativeImplINS0_9TriangleVENS0_8CapsuleVEE9doSupportERKNS_6shdfnd3aos5Vec3VERS7_SA_SA_
ps:__ZN13AnimationClip16DecompressCurvesERNSt3__26vectorI24CompressedAnimationCurve13stl_allocatorIS2_L18MemLabelIdentifier25ELi16EEEE
fVd:__ZN3MBP12updateObjectEjRK5IAABB
psg:_InputField_get_placeholder_m1768315947
W8c:__ZN5physx6shdfnd5ArrayINS_6PxVec3ENS0_19ReflectionAllocatorIS2_EEE15growAndPushBackERKS2_
cAa:__ZN13GfxDeviceGLES22ReleaseThreadOwnershipEv
Z2j:_MethodCall_Init_m3987198685
HVk:__ZN6il2cpp2os19ReleaseSocketHandleEj
j9h:__ZL59ApplicationTrust_t3968282840_CustomAttributesCacheGeneratorP21CustomAttributesCache
v0h:__ZL128SafeHandleZeroOrMinusOneIsInvalid_t1177681199_CustomAttributesCacheGenerator_SafeHandleZeroOrMinusOneIsInvalid__ctor_m3340306667P21CustomAttributesCache
zFh:_TypeBuilder_GetPropertyImpl_m1854119335
jLb:__Z30GetOrCreateObjectStoredInFieldP9FieldInfoRK17GeneralMonoObjectb
GId:__ZN5physx2Sc5Scene20fireTriggerCallbacksEv
XAh:_TypeBuilder_get_next_table_index_m1415870184
Eql:___cxa_can_catch
K$g:_SequentialSearchPrimeGeneratorBase_GenerateNewPrime_m296245934
Qjf:_Char_GetUnicodeCategory_m4273361321
TYh:__ZL63String_t_CustomAttributesCacheGenerator_String_Split_m394273024P21CustomAttributesCache
MBk:__ZN15dense_hashtableINSt3__24pairIK10KeyWrapperIPK19Il2CppGenericMethodEPK26Il2CppGenericMethodIndicesEES6_N6il2cpp8metadata23Il2CppGenericMethodHashEN14dense_hash_mapIS6_SA_SE_NSD_26Il2CppGenericMethodCompareENS0_9allocatorISB_EEE9SelectKeyESG_SI_E12maybe_shrinkEv
wze:__ZN2UI11CanvasGroup23VirtualRedirectTransferER19StreamedBinaryWriteILb0EE
CQd:__ZN5physx2Gu18GJKRelativeRayCastERNS0_8CapsuleVERNS0_4BoxVERKNS_6shdfnd3aos15PsMatTransformVERKNS6_6FloatVERKNS6_5Vec3VESF_RSA_RSD_SH_fb
d5i:__Z68RuntimeInvoker_Boolean_t3825574718_Il2CppObject_ObjectU26_t597476745PK10MethodInfoPvPS2_
zU:__ZN10AudioMixer6UpdateEf
PHa:__ZNK13TranslateGLES23VertexArraySizeBitfieldEi
i0j:_Identity_get_ClientDynamicProperties_m767245959
mMj:_InternalEnumerator_1__ctor_m675130983_AdjustorThunk
ZPh:_Dictionary_2_Clear_m899854001_gshared
E_k:__ZN6il2cpp2os5posix15PosixWaitObjectC2ENS2_4TypeE
LZa:__ZN6Camera21PostMultiCustomRenderENS_10RenderFlagEb
kKa:__ZN14DrawBufferGLESI11IndexBuffer26IndexBufferUsageMapperGLESED0Ev
i7c:__ZN5physx15PxsArticulationD2Ev
qsk:__ZL24UnresolvedVirtualCall_34P12Il2CppObjectS0_PK10MethodInfo
Fwl:_emscripten_glVertexPointer__wrapper
Hwa:__ZN23ShaderVariantCollection13WarmupShadersEv
X5g:_Context_set_ProtocolNegotiated_m1177527245
gtj:_UInt32_System_IConvertible_ToChar_m1056040486
adf:_ScriptableObject_CreateInstance_TisIl2CppObject_m926060499_gshared
Obh:_TlsStream_get_Length_m1562309511
tsa:__Z27scripting_gc_collect_unsafei
NU:__ZN11AudioModule20SuspendVideoTexturesEv
mnf:_CaseInsensitiveComparer__ctor_m1125492797
o7b:__ZN12CubemapArrayC2E18MemLabelIdentifier18ObjectCreationMode
uAd:__ZN5physx13NpRigidStaticC2ERKNS_11PxTransformE
Xrf:_Convert_ToByte_m395020137
qQb:__Z26Transfer_UnityEngineObjectI24GenerateTypeTreeTransferLb0EEvRK29SerializationCommandArgumentsR31RuntimeSerializationCommandInfo
xLc:__ZN10Collider2D16RecreateColliderEbP11Rigidbody2D
bve:_UNITY_FT_GlyphLoader_CheckPoints
$Qf:_List_1_System_Collections_ICollection_CopyTo_m1995866425_gshared
vGc:__ZN16b2PolygonContact7DestroyEP9b2ContactP16b2BlockAllocator
Gpl:___cxa_get_globals_fast
OQd:__ZN5physxL20PxcSweepBoxTrianglesERKNS_11PxsCCDShapeES2_RKNS_11PxTransformES5_S5_S5_fRNS_6PxVec3ES7_RNS_10PxcNpCacheERNS_18PxcNpThreadContextERKNS_2Cm23FastVertex2ShapeScalingERNS_2Gu9TriangleVEf
aKg:_TextWriter_WriteLine_m1754475888
h_c:__ZN5physx3Cct15ObstacleContextD0Ev
cKk:__ZN15dense_hashtableINSt3__24pairIK10KeyWrapperINS1_IPK10MethodInfoP11Il2CppClassEEEjEES9_17ReflectionMapHashIS8_EN14dense_hash_mapIS9_jSD_19ReflectionMapEqualsIS8_ENS0_9allocatorISB_EEE9SelectKeyESG_SI_E6insertERKSB_
bta:__ZN10Matrix4x4fmLERKS_
Nfk:_InvokableCall_1_Invoke_m769918017_gshared
Oq:__ZN4PPtrI9TransformE8TransferI18StreamedBinaryReadILb0EEEEvRT_
Ybf:_Array_InternalArray__get_Item_TisDouble_t4078015681_m2215331088_gshared
s9h:__ZL57PrincipalPolicy_t289802916_CustomAttributesCacheGeneratorP21CustomAttributesCache
A$f:_Collection_1_ClearItems_m3446813399_gshared
pea:__ZN18AssetBundleManagerC2Ev
yQa:__ZN15ArchiveReadFileD0Ev
eWg:_SymmetricTransform_TransformBlock_m1524716432
kda:__ZN18ConcurrentFreeListI28FileTextureUploadInstructionE7CleanUpEv
iMk:__ZN15dense_hashtableINSt3__24pairIK10KeyWrapperINS1_IPK9EventInfoP11Il2CppClassEEEjEES9_17ReflectionMapHashIS8_EN14dense_hash_mapIS9_jSD_19ReflectionMapEqualsIS8_ENS0_9allocatorISB_EEE9SelectKeyESG_SI_E4swapERSL_
U1e:_Array_compare_TisColor32_t874517518_m3842009370_gshared
oFe:__ZN11UnityEngine15PlatformWrapper18GetOperatingSystemEv
fGa:__ZNSt3__26vectorIP14DataBufferGLESNS_9allocatorIS2_EEE21__push_back_slow_pathIKS2_EEvRT_
xJd:__ZN5physx3Scb9Aggregate9syncStateERNS0_5SceneE
Pgi:__ZL61ExtensionAttribute_t1840441203_CustomAttributesCacheGeneratorP21CustomAttributesCache
e9f:_ReadOnlyCollection_1_System_Collections_Generic_ICollectionU3CTU3E_Remove_m974176789_gshared
CAf:_Delegate_return_type_match_m4278947849
gug:_InputField_GenerateHightlight_m1346735465
zFk:__ZN6il2cpp6icalls8mscorlib6System8MonoType19GetGenericArgumentsEP20Il2CppReflectionType
pql:__ZNSt8bad_castD0Ev
orf:_GC_SuppressFinalize_m953228702
Zue:_FT_MSB
OFe:__ZNSt3__26__treeINS_12__value_typeI8UnityStr14CallbackArray2IRKS2_R8JSONReadEEENS_19__map_value_compareIS2_S9_NS_4lessIS2_EELb1EEE13stl_allocatorIS9_L18MemLabelIdentifier5ELi16EEE7destroyEPNS_11__tree_nodeIS9_PvEE
Gah:_InternalAsyncResult_get_ProceedAfterHandshake_m552962842
BAi:_GUIStyle_get_clipping_m2754700641
EVi:__Z50RuntimeInvoker_SByte_t454417549_Double_t4078015681PK10MethodInfoPvPS2_
Dqh:_SoapServices_PreLoad_m490411755
fal:__ZN6il2cpp6icalls8mscorlib4Mono8Security12Cryptography18KeyPairPersistence10_CanSecureEP12Il2CppString
cfd:__ZN5physx7NpActor17resolveReferencesERNS_24PxDeserializationContextE
$ij:_Slider__ctor_m3124136916
aWj:_DefaultComparer__ctor_m3180706193_gshared
USf:_List_1_System_Collections_Generic_IEnumerableU3CTU3E_GetEnumerator_m3625278020_gshared
Sxa:__ZN13GfxDeviceGLES14SetRasterStateEPK17DeviceRasterState
dLb:__Z26scripting_field_get_offsetP9FieldInfo
xMb:__Z30TransferField_LinearCollectionI14SafeBinaryReadEvRK29SerializationCommandArgumentsR31RuntimeSerializationCommandInfo
s1c:__ZN5physx6shdfnd8internal8HashBaseINS0_4PairIKPKNS_2Sc8ShapeSimENS4_10NPhaseCore16ClothListElementEEES7_NS0_4HashIS7_EENS1_11HashMapBaseIS7_SA_SD_NS0_9AllocatorEE6GetKeyESF_Lb1EE5eraseERS8_
Ysg:_InputField_set_caretPositionInternal_m231166704
SKb:__Z23TransferScriptingObjectI14SafeBinaryReadEvRT_P12Il2CppObjectP11Il2CppClassPK15MonoScriptCache
Z0c:__ZN5physx5Elems17setStaticAABBDataEjRKNS_17PxcAABBDataStaticE
r5g:_TlsServerHello__ctor_m3032108168
Xha:__ZN14SafeBinaryRead11EndTransferEv
_Mk:__ZN14dense_hash_mapI10KeyWrapperIPK10Il2CppTypeEjN6il2cpp8metadata14Il2CppTypeHashENS6_17Il2CppTypeCompareENSt3__29allocatorINS9_4pairIKS4_jEEEEEC2EjRKS7_RKS8_
Y2h:__ZL98ILGenerator_t99948092_CustomAttributesCacheGenerator_ILGenerator_Mono_GetCurrentOffset_m3553856682P21CustomAttributesCache
sYc:__ZN5physx11PxHitBufferINS_12PxRaycastHitEE14processTouchesEPKS1_j
B_:__ZNK3WWW12GetAudioClipEv
lMb:__ZN14SafeBinaryRead8TransferI8MonoPPtrEEvRT_PKc17TransferMetaFlags
dSh:_Dictionary_2_System_Collections_Generic_ICollectionU3CSystem_Collections_Generic_KeyValuePairU3CTKeyU2CTValueU3EU3E_Remove_m1705959559_gshared
cUj:_InternalEnumerator_1_System_Collections_IEnumerator_get_Current_m1533037706_gshared
nJa:__ZN21UniformBufferTFMethod13MapBoneBufferEj
q9g:_RecordProtocol_SendChangeCipherSpec_m3542001341
oKk:__ZN15dense_hashtableINSt3__24pairIK10KeyWrapperINS1_IPK10MethodInfoP11Il2CppClassEEEjEES9_17ReflectionMapHashIS8_EN14dense_hash_mapIS9_jSD_19ReflectionMapEqualsIS8_ENS0_9allocatorISB_EEE9SelectKeyESG_SI_E4swapERSL_
e8e:_Array_InternalArray__set_Item_TisVector3_t2243707580_m1390667454_gshared
FTf:_List_1_Sort_m3574220472_gshared
KSk:__ZNSt3__26vectorIcNS_9allocatorIcEEEC2Ej
r5b:__ZN13TrailRenderer21ReleaseGeometryJobMemEP25DynamicVBOGeometryJobData
$Tg:_KeyPairPersistence_CanSecure_m2251009700
yRa:__ZZ23InitPlayerLoopCallbacksvEN27FixedUpdateClearLinesstruct7ForwardEv
lzb:__ZN10VertexData6ResizeEjjjRK19VertexStreamsLayoutRK20VertexChannelsLayout
$9b:__ZN14DirectorPlayer8TransferI14SafeBinaryReadEEvRT_
Lnh:_ReturnMessage_get_Properties_m531965085
$Ch:_GenericTypeParameterBuilder_IsSubclassOf_m563999142
C9:__ZN14SerializedFileD2Ev
jle:__ZNSt3__26vectorIN20TextRenderingPrivate8FontImpl7IntRectE13stl_allocatorIS3_L18MemLabelIdentifier34ELi16EEE21__push_back_slow_pathIKS3_EEvRT_
U3:__Z21CompleteFenceInternalR8JobFence
dtc:__Z30Event_Get_Custom_PropModifiersP12Il2CppObject
f7c:__ZN5physx6shdfnd5ArrayIPvNS0_16AlignedAllocatorILj64ENS0_9AllocatorEEEE15growAndPushBackERKS2_
vSh:_Dictionary_2_ContainsValue_m2375979648_gshared
ly:__ZN7mecanim9animation16CreateClipOutputEPKNS0_4ClipERNS_6memory9AllocatorE
r6e:_Array_InternalArray__Insert_TisDecimal_t724701077_m1429254816_gshared
$nk:_ListPool_1_Get_m2998644518_gshared
_Ub:__ZN18StreamedBinaryReadILb0EE21TransferSTLStyleArrayI13dynamic_arrayIyLj8EEEEvRT_17TransferMetaFlags
PUi:__Z76RuntimeInvoker_IntPtr_t_SByte_t454417549_Il2CppObject_BooleanU26_t3168250738PK10MethodInfoPvPS2_
dIk:__ZN6il2cpp2vm10Reflection17GetAssemblyObjectEPK14Il2CppAssembly
hFa:__ZN18AsyncUploadManager17DoScaledPaddedJobEP28FileTextureUploadInstruction
wZc:__ZN5physx3Cct12SweptCapsuleC2Ev
QAe:__ZN2UIL31GenerateRenderableUIInstructionEPNS_28PreprocessUIInstructionsDataEj
MYb:__ZN6Shader21AwakeFromLoadThreadedEv
qJe:__ZN16VirtFuncInvoker0IiE6InvokeEjPv
Ull:__ZNSt3__28messagesIwED0Ev
hpa:__ZN6prcoreL17RemapGenericFloatI17TexFormatRGBFloat17TexFormatRGBAHalfEEvPKNS_9InnerInfoE
ssi:__ZL70InputField_t1631627530_CustomAttributesCacheGenerator_m_CharacterLimitP21CustomAttributesCache
JTf:_List_1_get_Capacity_m2443158653_gshared
Uyc:__ZN8JSONRead21TransferSTLStyleArrayI13dynamic_arrayI8Vector2fLj4EEEEvRT_18MemLabelIdentifier17TransferMetaFlags
Zge:__ZN5physx24PxcContactBoxHeightFieldERKNS_2Gu13GeometryUnionES3_RKNS_11PxTransformES6_RKfRNS_10PxcNpCacheERNS0_13ContactBufferE
dbl:__ZN6il2cpp2os9SemaphoreC2Eii
kMj:_InternalEnumerator_1_get_Current_m2960188445_AdjustorThunk
uOb:__ZNSt3__26vectorI8MonoPPtr13stl_allocatorIS1_L18MemLabelIdentifier1ELi16EEE8__appendEj
Ckj:_Text_set_alignByGeometry_m1514652028
fSi:__Z92RuntimeInvoker_Void_t1841601450_Il2CppObject_Il2CppObject_SByte_t454417549_Int32_t2071877448PK10MethodInfoPvPS2_
yJa:__ZN15UniformTFMethod20IsBoneCountSupportedEi
XVd:__ZNK5physx23AggregateAABBUpdateTask7getNameEv
t1a:__ZN14qsort_internal31_FindAndMovePivotToLastPositionIP21ForwardRenderPassDataiN23ForwardShaderRenderLoop18RenderObjectSorterILb1EEEEEvT_S6_T0_T1_
OOe:_X509Certificate_GetExpirationDateString_m2351894475
SHi:_Rect_Contains_m1334685291_AdjustorThunk
bGg:_FileStream_get_Position_m465478322
Hsl:dynCall_viidi
v6e:_Array_InternalArray__Insert_TisInt64_t909078037_m3039874636_gshared
_gf:_Convert_ToInt16_m1787678274
nlj:_ToggleGroup_NotifyToggleOn_m997426227
A9g:_RSASslSignatureDeformatter_SetKey_m1150106904
yli:__ZL74Event_t3028476042_CustomAttributesCacheGenerator_Event_Cleanup_m1195902101P21CustomAttributesCache
B6:__ZN24ScriptingMethodFiltering17FilterOnSignatureENS_18MethodSearchFilterE
nAh:_TypeBuilder_get_Module_m1668298460
S5d:__ZN5physx13NpClothFabric16scaleRestlengthsEf
c0:__ZN18ScreenManagerWebGL13SetLockCursorE14CursorLockMode
vue:_cf2_arrstack_finalize
yMg:_MonoType_GetMethodsByName_m1854415088
eBh:_DerivedType_GetMethods_m165266904
Nwk:__ZN15dense_hashtableINSt3__24pairIK10KeyWrapperIPK22Il2CppGenericParameterEP11Il2CppClassEES6_N6il2cpp5utils11PointerHashIS4_EEN14dense_hash_mapIS6_S9_SE_NS0_8equal_toIS6_EENS0_9allocatorISA_EEE9SelectKeyESH_SJ_E15insert_noresizeERKSA_
KVg:_RSAManaged_EncryptValue_m4089823119
B4b:__ZN13MonoBehaviour19HandleNotificationsEPviR11MessageData
t8e:_Array_qsort_TisPlayable_t3667545548_m1963915233_gshared
jTh:_DefaultComparer_GetHashCode_m926363525_gshared
fzi:_GUIStyle_set_focused_m1547304893
AAd:__ZNK5physx13NpRigidStatic7getTypeEv
Tgj:_ScrollRect_get_verticalScrollbar_m2455612493
m2i:__Z69RuntimeInvoker_Void_t1841601450_Int32_t2071877448_HitInfo_t1761367055PK10MethodInfoPvPS2_
Bja:__ZNK11NamedObject26GetTypeInfoVirtualInternalEv
SGg:_ReadDelegate_Invoke_m2091885836
pCh:_TypeBuilder_GetField_m2112455315
Bvl:b58
Cvl:b59
pPf:_List_1_System_Collections_IList_get_IsFixedSize_m3412144440_gshared
pvl:b52
qvl:b53
nvl:b50
y3i:__Z51RuntimeInvoker_Vector4_t2243707581_SByte_t454417549PK10MethodInfoPvPS2_
SZd:__ZN5physx9PxTaskMgrD0Ev
Avl:b57
rvl:b54
svl:b55
BRg:_Kernel_Multiply_m3585610531
O2g:_CertificateSelectionCallback_EndInvoke_m3525317639
J5b:__ZN13TrailRenderer11TrailPointsD0Ev
IR:__ZN4PPtrI15AudioMixerGroupE8TransferI18StreamedBinaryReadILb0EEEEvRT_
HNi:__Z67RuntimeInvoker_Void_t1841601450_Int32_t2071877448_Int16_t4041245914PK10MethodInfoPvPS2_
Def:_Array_CreateInstance_m3310016470
Dff:_SimpleEnumerator_Reset_m1341779532
VPk:__ZNSt3__214__split_bufferINS_12basic_stringIcNS_11char_traitsIcEENS_9allocatorIcEEEERNS4_IS6_EEEC2EjjS8_
ZUg:_MACAlgorithm_Core_m2390605245
OSj:_InternalEnumerator_1_System_Collections_IEnumerator_get_Current_m30488070_gshared
E3b:__ZN10GameObject12CleanupClassEv
FPj:_InternalEnumerator_1_System_Collections_IEnumerator_Reset_m2624612805_AdjustorThunk
R9c:__ZN5physx3Scb5Scene13addRigidNoSimINS0_11RigidStaticELb0ELb1EEEvRT_RNS0_13ObjectTrackerE
vya:__ZN9GfxDevice25SetShaderPropertiesSharedERK19ShaderPropertySheet
Zmk:_IndexedSet_1_GetEnumerator_m3646001838_gshared
sua:__ZN18StreamedBinaryReadILb1EE20TransferTypelessDataEjPvi
yJb:__ZN10MonoScript17MainThreadCleanupEv
rja:__ZN13RenderTexture9SetActiveEiP12ObjectHandleI17RenderSurface_TagP17RenderSurfaceBaseES4_PPS_i11CubemapFaceij
vEa:__ZN18AsyncUploadManager19AsyncResourceUploadER9GfxDeviceii9TextureID
mej:_VertexHelper_AddUIVertexTriangleStream_m4009409241
MWj:_Comparer_1__ctor_m844571340_gshared
p8b:__ZL25InitializeDefaultMaterialv
YCe:__Z53Register_UnityEngine_CanvasRenderer_get_materialCountv
Au:__ZN14AnimationEvent8TransferI18StreamedBinaryReadILb1EEEEvRT_
i5g:_TlsStream_Write_m2055734301
LOa:__ZN19FileAccessorHandlerD2Ev
yXj:_Comparer_1__ctor_m2941434245_gshared
Rlj:_VertexHelper_AddVert_m3290455716
X8h:__ZL56SHA256Managed_t2029745292_CustomAttributesCacheGeneratorP21CustomAttributesCache
U2h:__ZL126GenericTypeParameterBuilder_t1370236603_CustomAttributesCacheGenerator_GenericTypeParameterBuilder_MakeGenericType_m2955814622P21CustomAttributesCache
uki:__ZL95Physics_t634932869_CustomAttributesCacheGenerator_Physics_RaycastAll_m410413656____maxDistance1P21CustomAttributesCache
nJ:__ZN15SerializeTraitsI9OffsetPtrIN7mecanim9animation17BlendTreeConstantEEE8TransferI19StreamedBinaryWriteILb0EEEEvRS4_RT_
V$:__ZN13ScreenManager17RequestResolutionEiibi
uXc:__ZN26IntersectAnyVsMeshCallbackILi0ELb1EED2Ev
zHk:_il2cpp_unity_liveness_calculation_from_statics
Hoj:_Scheduler_get_Instance_m1989471839
Ipg:_GraphicRaycaster_get_eventCamera_m4031517334
su:__ZN17AnimationCurveTplI11QuaternionfE8TransferI18StreamedBinaryReadILb1EEEEvRT_
ggh:_WebRequest_System_Runtime_Serialization_ISerializable_GetObjectData_m3377822910
dub:__ZN8Renderer8TransferI17RemapPPtrTransferEEvRT_
c_f:_Collection_1_Contains_m1299140035_gshared
Adf:_ExecuteEvents_ExecuteHierarchy_TisIl2CppObject_m2541874163_gshared
W4e:_Array_InternalArray__ICollection_Add_TisUICharInfo_t3056636800_m968274080_gshared
hok:_ObjectPool_1__ctor_m1532275833_gshared
WRk:__ZNK15dense_hashtableINSt3__24pairIK10KeyWrapperINS1_IP11Il2CppClassjEEES4_EES6_N6il2cpp8metadata14ArrayClassHashEN14dense_hash_mapIS6_S4_SB_NSA_17ArrayClassCompareENS0_9allocatorIS8_EEE9SelectKeyESD_SF_E13find_positionERS7_
$sk:__ZL24UnresolvedVirtualCall_71P12Il2CppObjectS0_S0_iS0_S0_S0_PK10MethodInfo
AZh:__ZL64IntPtr_t_CustomAttributesCacheGenerator_IntPtr__ctor_m3803259710P21CustomAttributesCache
xSf:_List_1_GetIndex_m3262928832_gshared
prd:__ZNK5physx2Sc9ClothCore16getCollisionDataEPNS_22PxClothCollisionSphereEPjPNS_21PxClothCollisionPlaneES4_PNS_24PxClothCollisionTriangleE
XZj:_SafeHandle_DangerousRelease_m2167699172
w5a:__Z24LookRotationToQuaternionRK8Vector3fS1_P11Quaternionf
u5a:__ZN16ReflectionProbes9GetCameraEv
uvd:__ZNK5physx2Sc18ParticleSystemCore20getMaxMotionDistanceEv
$Zg:_ArgumentException__ctor_m2105824819
zBe:__ZN2UI6Canvas17SetSortingLayerIDEi
Hig:_BaseMeshEffect_get_graphic_m3358796463
CYk:__ZN6il2cpp2vm11MethodStack23CleanupForCurrentThreadEv
wek:_Predicate_1_Invoke_m695569038_gshared
dHf:_Enumerator_VerifyState_m825848279_AdjustorThunk
Z6f:_ReadOnlyCollection_1_System_Collections_ICollection_CopyTo_m3161309318_gshared
GTe:_String_System_IConvertible_ToDateTime_m1423627978
znc:__Z83Register_UnityEngine_Experimental_Director_Playable_INTERNAL_CALL_GetOutputInternalv
PVd:__ZN5physx10BPWorkTaskD0Ev
dOb:__ZN14SafeBinaryRead21TransferSTLStyleArrayI13dynamic_arrayI4AABBLj4EEEEvRT_17TransferMetaFlags
Ima:__ZN18UnityPropertySheet8TransferI19StreamedBinaryWriteILb0EEEEvRT_
J7g:_TlsServerCertificate_checkServerIdentity_m3836435780
yAc:__ZN9JSONWrite21TransferSTLStyleArrayI31ArrayOfManagedObjectsTransfererEEvRT_17TransferMetaFlags
NWg:_PKCS12_Decrypt_m2353135969
tFj:_PersistentCallGroup_Initialize_m3908067069
Bce:__ZN4PPtrI14PhysicMaterialE8TransferI18StreamedBinaryReadILb1EEEEvRT_
HHh:_MonoEvent_ToString_m386956596
Tmi:__ZL70RuntimePlatform_t1869584967_CustomAttributesCacheGenerator_FlashPlayerP21CustomAttributesCache
Xfg:_PointerEventData_get_pointerPress_m880101744
SKd:__ZN5physx20NpRigidActorTemplateINS_13PxRigidStaticEE14resetFilteringERNS_3Scb11RigidObjectEPKPNS_7PxShapeEj
NMh:_Transform_1_BeginInvoke_m1786442111_gshared
JAg:_Int32_GetFormatException_m1729046182
GWf:_Collection_1_get_Count_m3834276648_gshared
bRk:__ZN15dense_hashtableINSt3__24pairIK10KeyWrapperIP11Il2CppClassES4_EES5_N6il2cpp8metadata16SZArrayClassHashEN14dense_hash_mapIS5_S4_SA_NS9_19SZArrayClassCompareENS0_9allocatorIS7_EEE9SelectKeyESC_SE_EC2ERKSH_j
Rdb:__ZN21UnityDefaultAllocatorI17LowLevelAllocatorE10DeallocateEPv
z2:__GLOBAL__sub_I_runtime_camera2_lump_cpp
Tt:__ZN15PackedIntVector8TransferI14SafeBinaryReadEEvRT_
bGh:_FieldInfo_get_IsLiteral_m267898096
IFa:__ZN17SharedTextureDataD0Ev
hdd:__ZNK5physx19NpArticulationJoint20getTangentialDampingEv
Nah:_SslStreamBase_EndNegotiateHandshake_m1732321201
ZMh:_Transform_1_BeginInvoke_m1167293475_gshared
HN:__ZN13AudioListener8DoUpdateEv
jOc:__ZN5physx3Cct10Controller22setUpDirectionInternalERKNS_6PxVec3E
zYh:__ZL71SByte_t454417549_CustomAttributesCacheGenerator_SByte_Parse_m1620039654P21CustomAttributesCache
Srf:__Z13bankers_roundd
Lwb:__ZN14SafeBinaryRead8TransferI5RectTIfEEEvRT_PKc17TransferMetaFlags
om:_emscripten_glGenFramebuffers
Yof:_Hashtable_CopyTo_m2778915805
Qda:__ZN17BaseObjectManager16StaticInitializeEPv
tAh:_ConstructorBuilder_get_IsCompilerContext_m2796899803
Ehi:__ZL97Component_t3819376471_CustomAttributesCacheGenerator_Component_GetComponentsInChildren_m843288020P21CustomAttributesCache
cyb:__ZN13TrailRenderer18TransferDeprecatedI14SafeBinaryReadEEvRT_
Haj:__Z37RuntimeInvoker_UICharInfo_t3056636800PK10MethodInfoPvPS2_
H2e:_Array_IndexOf_TisUIVertex_t1204258818_m613887160_gshared
Clg:_FloatTween_GetDuration_m1757342579_AdjustorThunk
rsf:_DateTime_CoreParse_m2014268103
$Pf:_List_1__ctor_m3698273726_gshared
amb:__ZN9Behaviour23VirtualRedirectTransferER17RemapPPtrTransfer
Fzc:__Z18Transfer_BlittableI9JSONWriteLb0EyEvRK29SerializationCommandArgumentsR31RuntimeSerializationCommandInfo
Auj:_UInt64_Equals_m1243465002
Vpb:__ZN12CubemapArray23VirtualRedirectTransferER14SafeBinaryRead
bsd:__ZNK5physx2Sc9ClothCore23getNbCollisionTrianglesEv
Rvh:_CryptographicException__ctor_m1012314467
lod:__ZN5physx7NpShape16setFlagsInternalENS_7PxFlagsINS_11PxShapeFlag4EnumEhEE
S0h:__ZL54Collection_1_t686054069_CustomAttributesCacheGeneratorP21CustomAttributesCache
l9f:_ReadOnlyCollection_1_System_Collections_IList_Add_m616574295_gshared
KAg:_Int32_ProcessTrailingWhitespace_m2812079777
Bsa:__ZN18ProceduralMaterial9ReloadAllEbb
Rnc:__Z43RectTransform_CUSTOM_INTERNAL_set_sizeDeltaP12Il2CppObjectRK13Vector2fIcall
qWc:__ZN5physx2Gu30distanceSegmentTriangleSquaredERKNS_6shdfnd3aos5Vec3VES5_S5_S5_S5_RS3_S6_
Wfh:_WebProxy__ctor_m3679722173
DOj:_InternalEnumerator_1_Dispose_m2743309309_AdjustorThunk
Cia:__ZN24GenerateTypeTreeTransfer18BeginArrayTransferEPKcS1_Ri17TransferMetaFlags
nia:__ZN15TextureSettings8TransferI18StreamedBinaryReadILb1EEEEvRT_
CEa:__Z16DecompressCrunchPKhRjR13TextureFormatiiii18MemLabelIdentifier
kll:__ZNSt3__29money_getIcNS_19istreambuf_iteratorIcNS_11char_traitsIcEEEEED2Ev
LUf:_List_1__ctor_m2082969060_gshared
Lm:___syscall51
Pm:___syscall54
SWk:__ZNSt3__26__treeINS_12__value_typeIP24Il2CppReflectionAssemblyPvEENS_19__map_value_compareIS3_S5_NS_4lessIS3_EELb1EEENS_9allocatorIS5_EEE12__find_equalIS3_EERPNS_16__tree_node_baseIS4_EESH_RKT_
WLi:__Z107RuntimeInvoker_Boolean_t3825574718_SByte_t454417549_Il2CppObject_Int32_t2071877448_ExceptionU26_t1467204777PK10MethodInfoPvPS2_
SEc:__ZN12b2MouseJointD0Ev
Yok:_PlayerHandler__ctor_m3663227086
y2a:__Z29RenderForwardObjectsIntoDepthRK17RenderLoopContextP13RenderTextureP13dynamic_arrayI16RenderObjectDataLj4EE12ObjectHandleI17RenderSurface_TagP17RenderSurfaceBaseESC_iib
sF:__ZNK8Animator20IsAnyRendererVisibleEv
wIk:__ZN15dense_hashtableINSt3__24pairIK10KeyWrapperINS1_IPK14Il2CppAssemblyP11Il2CppClassEEEjEES9_17ReflectionMapHashIS8_EN14dense_hash_mapIS9_jSD_19ReflectionMapEqualsIS8_ENS0_9allocatorISB_EEE9SelectKeyESG_SI_ED2Ev
cve:_cff_builder_add_point1
aXk:__ZN6il2cpp2vm5Image21GetCachedResourceDataEPK11Il2CppImageRKNSt3__212basic_stringIcNS5_11char_traitsIcEENS5_9allocatorIcEEEE
Bqg:_HorizontalOrVerticalLayoutGroup_set_childControlWidth_m4209477792
J4e:_Array_InternalArray__ICollection_Add_TisUInt32_t2149682021_m2629016323_gshared
CLb:__Z18Transfer_BlittableI14SafeBinaryReadLb0E10ColorRGBAfEvRK29SerializationCommandArgumentsR31RuntimeSerializationCommandInfo
Hjl:__ZNKSt3__28time_getIwNS_19istreambuf_iteratorIwNS_11char_traitsIwEEEEE13do_date_orderEv
Y_h:__ZL65Il2CppArray_CustomAttributesCacheGenerator_Array_Sort_m3002148658P21CustomAttributesCache
Ca:invoke_iiiiiiiiii
MT:__ZNK7Texture10GetVRUsageEv
uJi:_Renderer_get_material_m2553789785
Wra:__ZN18LoadSceneOperation19IntegrateTimeSlicedEi
Soj:_Scheduler_SchedulerThread_m2209572785
MPg:_SortKeyBuffer_GetResultAndReset_m2516956577
RSd:__ZN5physx36solveContactPreBlock_WriteBackStaticEPKNS_23PxcSolverConstraintDescEjRNS_16PxcSolverContextEPNS_25PxcThresholdStreamElementEjPi
Uvl:_glBlendFuncSeparate__wrapper
iok:_ObjectPool_1_get_countAll_m4217365918_gshared
q9:__ZN16ScriptingManager24NotifyScriptCacheReleaseEi
$fi:__ZL85UriParser_t1012511323_CustomAttributesCacheGenerator_UriParser_OnRegister_m4010407891P21CustomAttributesCache
H2h:__ZL63UnmanagedMemoryStream_t822875729_CustomAttributesCacheGeneratorP21CustomAttributesCache
Xhc:__Z47Register_UnityEngine_Coroutine_ReleaseCoroutinev
P9c:__ZN10ScSceneFnsIN5physx3Scb11RigidStaticEE6insertERNS0_2Sc5SceneERS2_
vO:__ZN15AudioReverbZone13SetFMODValuesEv
bCj:_Component_GetComponentInChildren_m3925629424
J5:__ZL19StaticDestroyShaderPv
Be:_glRenderbufferStorageMultisample
uoh:_SoapTypeAttribute_get_XmlTypeName_m2546866572
Y4f:_ReadOnlyCollection_1_System_Collections_IList_get_IsFixedSize_m158012227_gshared
gck:_X509Chain__ctor_m1113875360
ULb:__Z35Transfer_Blittable_SingleValueFieldI14SafeBinaryReadfEvRT_R17GeneralMonoObjectRK23StaticTransferFieldInfo
f8g:_TlsServerHello_processProtocol_m1241336522
JWc:__ZN5physx2Gu20sweepCCTBoxTrianglesEjPKNS_10PxTriangleEbRKNS_13PxBoxGeometryERKNS_11PxTransformERKNS_6PxVec3EfRSA_SD_RfRjPKjfNS_7PxFlagsINS_9PxHitFlag4EnumEtEE
wtb:__ZThn28_N8Renderer21RendererBecameVisibleEv
gQc:__ZN5physx2Gu15OBBTriangleTestC2ERKNS0_3BoxE
Y0j:_ContextAttribute_IsContextOK_m3281216012
cIg:_PathTooLongException__ctor_m3212099251
jCl:_pthread_cond_broadcast__wrapper
Rva:__ZN17PersistentManager38InstanceIDToSerializedObjectIdentifierEiR26SerializedObjectIdentifier
rll:__ZNSt3__211__money_getIcE13__gather_infoEbRKNS_6localeERNS_10money_base7patternERcS8_RNS_12basic_stringIcNS_11char_traitsIcEENS_9allocatorIcEEEESF_SF_SF_Ri
bTj:_InternalEnumerator_1_MoveNext_m3299881374_AdjustorThunk
QRc:__ZN5physx2Gu21computeMTD_SphereMeshERNS_6PxVec3ERfRKNS0_6SphereERKNS_22PxTriangleMeshGeometryERKNS_11PxTransformE
aw:__ZN17PackedFloatVector8TransferI18StreamedBinaryReadILb0EEEEvRT_
wii:__ZL88Screen_t786852042_CustomAttributesCacheGenerator_Screen_t786852042____width_PropertyInfoP21CustomAttributesCache
vqb:__ZN7Cubemap23VirtualRedirectTransferER17RemapPPtrTransfer
gSg:_BigInteger_op_GreaterThanOrEqual_m1998498565
Abe:__ZN5physx12SubSortQuick5sort4EPjjRNS_6shdfnd5ArrayINS_11RTreeNodeNQENS2_19ReflectionAllocatorIS4_EEEERjRNS_10PxBounds3VEj
FTa:_longest_match_fast
f8c:__ZN5physx6shdfnd5ArrayIPNS_2Sc8BodyCoreENS0_19ReflectionAllocatorIS4_EEE15growAndPushBackERKS4_
nng:_DropdownItem_get_image_m2752143412
Qsk:__ZL24UnresolvedVirtualCall_60P12Il2CppObjectaPK10MethodInfo
Ebc:__ZN22BlockMemoryCacheWriter11GetPathNameEv
Qog:_Graphic_Rebuild_m2617722358
kUd:__ZN5physx16PxsBroadPhaseMBPC2ERNS_19PxcScratchAllocatorERNS_2Cm13EventProfilerERKNS_11PxSceneDescEPNS_14PxsAABBManagerE
s5c:__ZThn24_N5physx2Sc21ConstraintInteractionD1Ev
o5h:__ZL86SafeHandle_t2733794115_CustomAttributesCacheGenerator_SafeHandle_SetHandle_m1980208835P21CustomAttributesCache
Qce:__ZN14PhysicsManager23VirtualRedirectTransferER14SafeBinaryRead
_xf:_DateTime_ToString_m3108726445_AdjustorThunk
vW:__ZN19CloudServiceHandlerD2Ev
N7a:__ZN13dynamic_arrayIN23ReflectionProbesContext23ReflectionProbeCubeInfoELj4EE18resize_initializedEjRKS1_12ResizePolicy
Epl:__ZNSt3__212system_errorC2ENS_10error_codeEPKc
Ibf:_Array_InternalArray__get_Item_TisTableRange_t2011406615_m602485977_gshared
$tg:_InputField_Append_m2623574152
mhd:__ZN5physx7NpActor14onActorReleaseEPNS_7PxActorE
UZg:_ApplicationException__ctor_m1120437222
lIh:_MonoMethod__ctor_m4091684020
LZc:__ZN5physx3Cct26CharacterControllerManager19computeInteractionsEfPNS_26PxControllerFilterCallbackE
aq:stackAlloc
x6c:__ZN5physx6shdfnd8PoolBaseINS_2Cm5BlockIhLj256EEENS0_19ReflectionAllocatorIS4_EEE12allocateSlabEv
qic:__Z44Camera_CUSTOM_INTERNAL_CALL_ScreenPointToRayP12Il2CppObjectRK8Vector3fR3Ray
uPa:__ZN25SingleBlockMemoryFileData4LockEPPv
LNa:__ZN12HandlerChain5TouchER13FileEntryData
xEh:_MethodBuilder_GetHashCode_m1713271764
HZj:_Marshal__cctor_m802981325
OZe:_Array_get_swapper_TisUIVertex_t1204258818_m1078858558_gshared
WOg:_MSCompatUnicodeTable_GetResource_m3816716847
Ejc:__Z32RectOffset_Get_Custom_PropBottomP12Il2CppObject
TVi:__Z49RuntimeInvoker_UInt16_t986882611_Int64_t909078037PK10MethodInfoPvPS2_
Cef:_Array_CreateInstance_m15016505
njg:_CanvasScaler_get_matchWidthOrHeight_m1190816603
iel:_stat
KKe:_RijndaelTransform_Decrypt128_m1282993908
bSk:__ZN24dense_hashtable_iteratorINSt3__24pairIK10KeyWrapperINS1_IP11Il2CppClassjEEES4_EES6_N6il2cpp8metadata14ArrayClassHashEN14dense_hash_mapIS6_S4_SB_NSA_17ArrayClassCompareENS0_9allocatorIS8_EEE9SelectKeyESD_SF_E30advance_past_empty_and_deletedEv
K5e:_Array_InternalArray__ICollection_CopyTo_TisUInt16_t986882611_m3228377237_gshared
JKf:_List_1_Add_m4157722533_gshared
bti:__ZL68Navigation_t1571958496_CustomAttributesCacheGenerator_m_SelectOnDownP21CustomAttributesCache
gzj:_Bounds_op_Inequality_m2315096783
hEc:__ZN15b2DistanceJoint23InitVelocityConstraintsERK12b2SolverData
ESj:_InternalEnumerator_1_System_Collections_IEnumerator_get_Current_m3065287496_gshared
Xwa:__ZNSt3__218__insertion_sort_3IRNS_4lessIN22BuiltinResourceManager8ResourceEEEPS3_EEvT0_S7_T_
sXd:__ZN5physx2Gu21findUniqueConvexEdgesEjPNS0_10ConvexEdgeEjPKNS0_15HullPolygonDataEPKh
XFi:_Physics_RaycastAll_m3256436970
pKf:_List_1_get_Item_m4100789973_gshared
CH:__ZN18StreamedBinaryReadILb1EE21TransferSTLStyleArrayI22OffsetPtrArrayTransferI9OffsetPtrIN7mecanim12statemachine20StateMachineConstantEEEEEvRT_17TransferMetaFlags
$Je:_RC2_set_KeySize_m2015782960
na:invoke_iiiiiiiiiiii
dSd:__ZN5physx43solveContactCoulombPreBlock_WriteBackStaticEPKNS_23PxcSolverConstraintDescEjRNS_16PxcSolverContextEPNS_25PxcThresholdStreamElementEjPi
A0f:_Collection_1_SetItem_m3715941382_gshared
eMa:__ZN9GfxDevice20GetComputeBufferDataE15ComputeBufferIDPvj
xyg:_NumberFormatInfo_get_CurrencyGroupSeparator_m2480433019
Kde:__ZN10CastFilterD0Ev
BWg:_StrongName_get_PublicKey_m3777577320
WYj:_RuntimeCompatibilityAttribute__ctor_m1331212510
v6c:__ZN5physx2Sc5Scene23allocateConstraintBlockEj
zkc:__Z43Register_UnityEngine_GameObject_SendMessagev
gxk:__ZN6il2cpp2vm17SetupFieldsLockedEP11Il2CppClassRKNS_2os12FastAutoLockE
LHg:_MonoIOStat_t1621921065_marshal_pinvoke
SR:__ZN11AudioSourceD0Ev
FAj:_CanvasRenderer_set_hasPopInstruction_m1388844875
L7c:__ZN5physx2Sc5Actor15onElementDetachERNS0_7ElementE
oMf:_List_1_System_Collections_ICollection_CopyTo_m1530390632_gshared
e2f:_Collection_1_System_Collections_IEnumerable_GetEnumerator_m1452790461_gshared
pOj:_InternalEnumerator_1_System_Collections_IEnumerator_Reset_m3194282029_AdjustorThunk
vcb:__ZN16MemoryFileSystem4NameEv
odg:_BaseRaycaster_OnEnable_m3641767070
EUf:_List_1_ToArray_m2810936944_gshared
US:__ZN11AudioSource16UpdateParametersE12SoundChannel
Sce:__ZN14PhysicsManager9onContactERKN5physx19PxContactPairHeaderEPKNS0_13PxContactPairEj
E$g:_PrimeGeneratorBase_get_PrimalityTest_m308005118
j_h:__ZL71Enum_t2459695545_CustomAttributesCacheGenerator_Enum_Format_m2294492821P21CustomAttributesCache
Gsc:__ZNK8GUIStyle8CalcSizeER10GUIContent
WLf:_List_1_CheckIndex_m2328469916_gshared
PNc:__ZN5physx3Cct13BoxController13setHalfHeightEf
yJd:__ZN5physx3Scb13ObjectTracker5clearEv
hVf:_List_1_AddRange_m3345533268_gshared
cme:_UNITY_FT_New_Size
Ufc:__Z42ScriptingGetComponentsOfTypeFromGameObjectRK26ScriptingGetComponentsArgs
vZ:__ZN19CloudServiceHandler11FlushEventsEv
qhl:__ZNKSt3__26locale9use_facetERNS0_2idE
ePc:__ZL23GeomMTDCallback_BoxMeshRN5physx6PxVec3ERfRKNS_10PxGeometryERKNS_11PxTransformES5_S8_
GVf:_List_1_get_Item_m3157283227_gshared
ygk:_InvokableCall_4_Invoke_m1555001411_gshared
vvf:_Convert_ToString_m2915777777
iqd:__ZNK5physx7NpCloth22getNbCollisionCapsulesEv
jna:__ZNSt3__27__sort4IRPFbRKNS_4pairIN9ShaderLab16FastPropertyNameEN18UnityPropertySheet11UnityTexEnvEEES8_EPS6_EEjT0_SD_SD_SD_T_
xu:__Z21TransferBlobSerializeIN7mecanim9animation18ClipMuscleConstantE18StreamedBinaryReadILb1EEEvRPT_PKcRjS9_RT0_
FSk:__ZN6il2cpp6icalls8mscorlib6System10Reflection8Assembly18GetModulesInternalEP24Il2CppReflectionAssembly
fse:_Line_Up
kNg:_MonoType_GetGenericTypeDefinition_m2363776160
OOc:__ZL28GeomMTDCallback_SphereSphereRN5physx6PxVec3ERfRKNS_10PxGeometryERKNS_11PxTransformES5_S8_
n4h:__ZL62ParameterAttributes_t1266705348_CustomAttributesCacheGeneratorP21CustomAttributesCache
f6g:_Context_set_SentConnectionEnd_m2641458842
Ie:_emscripten_glBufferSubData
Ohf:_Buffer_BlockCopyInternal_m2627156229
$Pb:__Z18Transfer_BlittableI17RemapPPtrTransferLb1EyEvRK29SerializationCommandArgumentsR31RuntimeSerializationCommandInfo
Lqg:_Image_set_overrideSprite_m3362535904
Ycg:_ExecuteEvents_get_pointerExitHandler_m3250605428
abd:__ZN5physx6shdfnd5ArrayIPvNS0_15InlineAllocatorILj256ENS0_19ReflectionAllocatorINS_7NpShapeEEEEEE15growAndPushBackERKS2_
noa:__ZN6prcoreL12RemapGenericI15TexFormatRGB88817TexFormatARGB8888EEvPKNS_9InnerInfoE
_4a:__Z17CalculateGlobalRS23TransformAccessReadOnly
ttd:__ZN5physx22NpParticleBaseTemplateINS_15PxParticleFluidENS_15NpParticleFluidEE7releaseEv
R7k:__ZNSt3__210__list_impIPN6il2cpp5utils10MemoryPool6RegionENS_9allocatorIS5_EEE5clearEv
Czj:_Camera_ScreenPointToRay_m614889538
vRg:_Kernel_multiByteDivide_m735279869
hUc:__ZNK5physx2Gu29EPASupportMapPairRelativeImplINS0_11ConvexHullVES2_E6getDirEv
NRh:_Dictionary_2_ToTValue_m542772656_gshared
NHe:__ZN23UnityPurchasingSettings10InitializeER6Object
qoj:_Thread_GetNewManagedId_internal_m3211695465
OTa:_unity_z_deflateReset
b3c:__ZN5physx2Sc19ContactReportBuffer23reallocateNotThreadSafeEjRjjj
Fyi:_SkinChangedDelegate_Invoke_m2801964040
H5c:__ZN5physx2Sc5Actor19registerInteractionEPNS0_11InteractionE
p$b:__ZN9ShaderLab16SerializedShader8TransferI18StreamedBinaryReadILb1EEEEvRT_
zYb:__ZN22MemoryCacherReadBlocks14LockCacheBlockEjPPhS1_
Pgf:_Boolean_System_IConvertible_ToChar_m2637404801_AdjustorThunk
rRe:_SecurityContext_Capture_m2535194991
ysj:_UInt16_System_IConvertible_ToSByte_m3044765342_AdjustorThunk
jBh:_DerivedType_IsArrayImpl_m684825803
xYh:__ZL47Byte_t3683104436_CustomAttributesCacheGeneratorP21CustomAttributesCache
j3e:_Array_InternalArray__IndexOf_TisLabelFixup_t4090909514_m2939738943_gshared
h_k:__ZN4utf88internal15increase_safelyIPKcEENS0_9utf_errorERT_S5_
ale:__ZN20TextRenderingPrivate8FontImpl16CacheFontForTextEPtiifjPK13dynamic_arrayINS_16TextFormatChangeELj4EE
Qie:__ZN13PhysicsModule19CreateNxHeightFieldEPv
z8e:_Array_qsort_TisUIVertex_t1204258818_TisUIVertex_t1204258818_m512606409_gshared
VJe:__Z21ArrayElementTypeCheckP11Il2CppArrayPv
jzl:_emscripten_glTexSubImage2D__wrapper
ydh:_NameValueCollection_AsSingleString_m10599052
Zol:__ZNSt3__212basic_stringIcNS_11char_traitsIcEENS_9allocatorIcEEE6appendEjc
lOg:_Object_InternalGetHashCode_m1371384246
aej:_Navigation_get_defaultNavigation_m2185194207
mvi:__ZL73LayoutElement_t2808691390_CustomAttributesCacheGenerator_m_FlexibleHeightP21CustomAttributesCache
KEj:_ArgumentCache_get_stringArgument_m3051619173
xBg:_Int32_System_IConvertible_ToSByte_m1449623243_AdjustorThunk
lZg:_AccessViolationException__ctor_m1270251537
Jud:__ZN5physx15NpParticleFluid2isENS_11PxActorType4EnumE
Nxd:__ZN5physx22NpParticleBaseTemplateINS_16PxParticleSystemENS_16NpParticleSystemEE11setGridSizeEf
zck:_X509ExtensionCollection_IndexOf_m3972100651
sOb:__Z14resize_trimmedINSt3__26vectorI8MonoPPtr13stl_allocatorIS2_L18MemLabelIdentifier1ELi16EEEEEvRT_j
Jhb:__ZN39AssetBundleLoadFromStreamAsyncOperation11GetProgressEv
qf:_TTF_RenderText_Solid
stj:_UInt32_System_IConvertible_ToInt64_m3091851828
kLg:_MissingMethodException__ctor_m3898429715
h8b:__ZN4Mesh7PRODUCEE18MemLabelIdentifier18ObjectCreationMode
oLh:_Enumerator_System_Collections_IEnumerator_Reset_m3085583937_gshared
rIf:_Enumerator_MoveNext_m848781978_gshared
y7j:__ZN23InterfaceActionInvoker5IDsDsbbbE6InvokeEjP11Il2CppClassPvDsDsbbb
C9i:__Z66RuntimeInvoker_ClientCertificateType_t4001384466_Int32_t2071877448PK10MethodInfoPvPS2_
LVg:_RSAManaged_ExportParameters_m2873993187
A1e:_Array_InternalArray__IEnumerable_GetEnumerator_TisVector4_t2243707581_m829381058_gshared
Kib:__ZN7Hash1288TransferI18StreamedBinaryReadILb1EEEEvRT_
IVf:_Enumerator__ctor_m2816143215_AdjustorThunk
ZHe:__ZN11UnityEngine7Connect16PersistentValuesC2Ev
Pih:_X509Chain_FindParent_m404663796
iLg:_MissingMemberException__ctor_m2164043278
zrk:__ZL7log2_32j
tZf:_Collection_1_CopyTo_m2282972507_gshared
CIb:__ZN13EmscriptenWWW10OnProgressEPvjj
Nig:_BaseVertexEffect__ctor_m358261091
ulh:_Interpreter_GetGroupInfo_m312421921
gQb:__Z19TransferField_ArrayI17RemapPPtrTransfer27Converter_UnityEngineObjectEvRK23StaticTransferFieldInfoR31RuntimeSerializationCommandInfoRT0_
mEd:__ZNK5physx2Sc7BodySim13isConnectedToERKNS0_8RigidSimERb
v8h:__ZL53HMACSHA384_t3026079344_CustomAttributesCacheGeneratorP21CustomAttributesCache
t1i:__Z120RuntimeInvoker_Void_t1841601450_Single_t2076509932_Single_t2076509932_Single_t2076509932_Single_t2076509932_Il2CppObjectPK10MethodInfoPvPS2_
_Cg:_NumberFormatter_InitDecHexDigits_m1612588520
Nce:__ZN14PhysicsManager23VirtualRedirectTransferER17RemapPPtrTransfer
pDg:_IntPtr_System_Runtime_Serialization_ISerializable_GetObjectData_m21554269_AdjustorThunk
oTe:_Single_GetHashCode_m3102305584_AdjustorThunk
xaf:_Array_swap_TisVector3_t2243707580_m3036634038_gshared
mQ:__ZN4FMOD6System9createDSPEP20FMOD_DSP_DESCRIPTIONPPNS_3DSPE
RCi:_Material_HasProperty_m3175512802
tA:__ZN7mecanim9animation26DestroyControllerWorkspaceEPNS0_19ControllerWorkspaceERNS_6memory9AllocatorE
M9j:_UriParser_set_SchemeName_m3624672465
uM:__ZN4FMOD8ChannelI11EndCallbackEv
kOe:_ToBase64Transform_TransformBlock_m2201454137
usc:__ZN8GUIStyle14SetDefaultFontEPN13TextRendering4FontE
kFh:_OpCode_get_StackBehaviourPop_m3787015663_AdjustorThunk
k4j:_PatternCompiler_EmitCount_m3609178511
Sub:__ZN15QualitySettings23VirtualRedirectTransferER24GenerateTypeTreeTransfer
oyj:_AttributeHelperEngine__cctor_m1775592582
dAi:_GUIStyle_Internal_GetCursorStringIndex_m1491806746
gpi:__ZL89PointerEventData_t1599784723_CustomAttributesCacheGenerator_U3CpositionU3Ek__BackingFieldP21CustomAttributesCache
eYd:__ZN5physx2Gu32PCMConvexVsMeshContactGeneration35generateTriangleFullContactManifoldERNS0_9TriangleVEjPKjhRKNS0_13PolygonalDataEPNS0_16SupportLocalImplIS2_EEPNS0_12SupportLocalEPNS0_21MeshPersistentContactERjRKNS_6shdfnd3aos6FloatVERNSI_5Vec3VE
gOk:__ZN6il2cpp2os10FileHandleC2Ev
Jmc:__Z59Register_UnityEngine_MonoBehaviour_Internal_CancelInvokeAllv
Y9h:__ZL84Encoding_t663144255_CustomAttributesCacheGenerator_Encoding_GetByteCount_m4104502544P21CustomAttributesCache
VG:__ZN14SafeBinaryRead21TransferSTLStyleArrayI22OffsetPtrArrayTransferI9OffsetPtrIN7mecanim12statemachine17ConditionConstantEEEEEvRT_17TransferMetaFlags
Ooh:_ObjRef_set_TypeInfo_m1661789743
Lxi:_GUISkin_get_box_m533626169
WNd:__ZNK16OBBAABBTest_SIMDclERKN5physx2Sq9BucketBoxE
VCi:_Mathf_Cos_m238853451
sMc:__ZZN10Collider2D15InitializeClassEvEN33FunctorImpl_82kDidRemoveComponent4CallEPviR11MessageData
Gle:_UNITY_FT_Request_Metrics
Mia:__ZN7Texture8TransferI18StreamedBinaryReadILb0EEEEvRT_
pUk:__ZN6il2cpp6icalls8mscorlib6System10Reflection10MonoMethod29get_IsGenericMethodDefinitionEP22Il2CppReflectionMethod
XOk:__ZN6il2cpp2vm6Thread21AllocThreadStaticDataEi
tsf:_DateTime_YearMonthDayFormats_m4204607055
nkg:_ColorBlock_set_disabledColor_m3502887543_AdjustorThunk
$Vk:__ZNK15dense_hashtableINSt3__24pairIK10KeyWrapperINS1_IPKcS4_EEEiEES6_24NamespaceAndNamePairHashN14dense_hash_mapIS6_iS9_26NamespaceAndNamePairEqualsNS0_9allocatorIS8_EEE9SelectKeyESB_SD_E12test_deletedERK24dense_hashtable_iteratorIS8_S6_S9_SF_SB_SD_E
lU:__Z13RegisterClassI13AudioListenerEvv
Ofk:_InvokableCall_1_Find_m951110817_gshared
Gdk:_Aes__ctor_m4020215067
yz:__ZN22AnimationMixerPlayable11DerivesFromEP11Il2CppClass
kzc:__Z18Transfer_BlittableI9JSONWriteLb0E8Vector3fEvRK29SerializationCommandArgumentsR31RuntimeSerializationCommandInfo
slh:_Interpreter_Eval_m1448443064
pg:_emscripten_glUniform4i
C8h:__ZL46MD5_t1507972490_CustomAttributesCacheGeneratorP21CustomAttributesCache
uud:__ZNK5physx22NpParticleBaseTemplateINS_15PxParticleFluidENS_15NpParticleFluidEE11getGridSizeEv
Oog:_Graphic_OnDisable_m2360886868
iYc:__ZN16RayRTreeCallbackILi0ELb1EED2Ev
Bf:_emscripten_glUniform4f
uva:__ZN6Object22CheckInstanceIDsLoadedEPii
Vj:___unlock
X3k:_GC_default_oom_fn
v$i:__Z74RuntimeInvoker_Void_t1841601450_PlayableU26_t3233213460_Double_t4078015681PK10MethodInfoPvPS2_
VQj:_InternalEnumerator_1_System_Collections_IEnumerator_Reset_m1561424184_AdjustorThunk
ngl:__ZTv0_n12_NSt3__213basic_istreamIcNS_11char_traitsIcEEED1Ev
qnf:_Comparer_Compare_m4132969818
irh:_FormatterConverter__ctor_m3958982477
cT:__ZN20SoundChannelInstance19setReverbPropertiesEP29FMOD_REVERB_CHANNELPROPERTIES
gVj:_InternalEnumerator_1__ctor_m2808001655_AdjustorThunk
$Rj:_InternalEnumerator_1_System_Collections_IEnumerator_Reset_m2571770313_AdjustorThunk
jGh:_FieldInfo_get_UMarshal_m1934544188
MSi:__Z68RuntimeInvoker_Void_t1841601450_IntPtr_t_MonoMethodInfoU26_t16045984PK10MethodInfoPvPS2_
bVj:_InternalEnumerator_1_Dispose_m4229866913_AdjustorThunk
CTh:_DefaultComparer_Equals_m2171836276_gshared
tVk:__ZN6il2cpp2vm9Exception18GetFormatExceptionEPKc
k8i:__Z56RuntimeInvoker_Void_t1841601450_ResourceInfo_t3933049236PK10MethodInfoPvPS2_
y6h:__ZL55IMessageSink_t2189618969_CustomAttributesCacheGeneratorP21CustomAttributesCache
iqc:__Z40Register_UnityEngine_Transform_IsChildOfv
mZc:__ZN5physx3Cct17CapsuleController15setClimbingModeENS_21PxCapsuleClimbingMode4EnumE
XPd:__ZN5physx6shdfnd9atomicAddEPVii
glf:_ArrayList_Sort_m923359189
Xkj:_Text_CalculateLayoutInputVertical_m1732119136
u7b:__ZN16ReflectionProbes15InitializeClassEv
lCb:__ZNSt3__212basic_stringIcNS_11char_traitsIcEE13stl_allocatorIcL18MemLabelIdentifier66ELi16EEE7reserveEj
HKd:__ZN5physx6shdfnd5ArrayINS_3Scb13MaterialEventENS0_19ReflectionAllocatorIS3_EEE6resizeEjRKS3_
AMa:__ZN9GfxDevice31DrawIndexedNullGeometryIndirectE16GfxPrimitiveTypeP9GfxBuffer15ComputeBufferIDj
uNj:_InternalEnumerator_1_System_Collections_IEnumerator_get_Current_m3088751576_gshared
TVd:__ZNK5physx14SingleAABBTask25updateNumFastMovingShapesEv
OTi:__Z78RuntimeInvoker_Void_t1841601450_Int64_t909078037_Il2CppObject_Int64_t909078037PK10MethodInfoPvPS2_
Wyj:_Bounds_set_center_m2069004927_AdjustorThunk
WXg:_X509Certificate_GetSubjectName_m2120755276
Auc:__Z46GUIStyle_CUSTOM_Internal_DrawWithTextSelectionP12Il2CppObjectR43MonoInternal_DrawWithTextSelectionArguments
RBd:__ZNK5physx2Cm12DelegateTaskINS_7NpSceneEXadL_ZNS2_12executeSolveEPNS_10PxBaseTaskEEEE7getNameEv
gji:__ZL58ResourceRequest_t2560315377_CustomAttributesCacheGeneratorP21CustomAttributesCache
jAe:__ZNSt3__218__insertion_sort_3IRNS_6__lessIN2UI14DepthSortEntryES3_EEPS3_EEvT0_S7_T_
dIh:_MonoField_CheckGeneric_m1527550038
Uae:__ZN5physx17ConvexMeshBuilder16computeGaussMapsEv
ajl:__ZNKSt3__28time_getIcNS_19istreambuf_iteratorIcNS_11char_traitsIcEEEEE13do_date_orderEv
KUg:_AttrListImpl_Add_m130708252
a0g:_ASN1_get_Value_m2229768312
Hcg:_BaseInput_get_touchCount_m998724785
KEb:__ZN11TimeManager6UpdateEv
Awa:__ZN6Shader18LoadDefaultShadersEv
hck:_X509Chain_get_Status_m2726750609
Qbd:__ZNK5physx2Sc16ArticulationCore22computeImpulseResponseERNS0_8BodyCoreERNS_6PxVec3ES5_RKNS_9PxcFsDataERKS4_SA_
uug:_InputField_get_preferredWidth_m3185355225
uZd:__ZN5physx21PxsBodyTransformVaultC2Ev
zwi:_GUIUtility_get_pixelsPerPoint_m2667928361
f1f:_Collection_1_RemoveItem_m1406181352_gshared
ioj:_Thread_SetState_m3198426726
Blf:_ArrayListWrapper_Contains_m1158465965
uLa:__ZN9GfxDevice12UpdateBufferEP9GfxBuffer13GfxBufferMode14GfxBufferLabeljPKvj
iaf:_Array_swap_TisColor32_t874517518_m2203309732_gshared
pXd:__ZL6IsInYZffPPK10VertexInfo
y$g:_BigInteger_op_LessThan_m3825358479
Obe:__ZN5physx19TriangleMeshBuilderD0Ev
pel:_fflush
_sa:__ZN17LightProbeContext4InitERK16LightmapSettingsRK14RenderSettings
bhf:_Convert_ToInt32_m55151042
Epg:_GraphicRaycaster_Raycast_m1206612976
ecl:__GLOBAL__sub_I_Error_cpp
qKk:__ZN15dense_hashtableINSt3__24pairIK10KeyWrapperINS1_IPK10MethodInfoP11Il2CppClassEEEjEES9_17ReflectionMapHashIS8_EN14dense_hash_mapIS9_jSD_19ReflectionMapEqualsIS8_ENS0_9allocatorISB_EEE9SelectKeyESG_SI_E16reset_thresholdsEv
y6j:_Alternation_GetWidth_m4218808325
$_f:_Collection_1_set_Item_m2523116197_gshared
_9i:__Z59RuntimeInvoker_ContactPoint2D_t3659330976_Int32_t2071877448PK10MethodInfoPvPS2_
qta:__ZN9Texture3DD2Ev
F_h:__ZL80Il2CppArray_CustomAttributesCacheGenerator_Array_SetValue_m169741241____indices1P21CustomAttributesCache
Oma:__ZN10ColorRGBAf8TransferI19StreamedBinaryWriteILb0EEEEvRT_
Dug:_U3CCaretBlinkU3Ec__Iterator0_System_Collections_Generic_IEnumeratorU3CobjectU3E_get_Current_m3541562536
Fdh:_TypeConverterAttribute__ctor_m4061167050
god:__ZN5physx2CmlsERNS0_12RenderOutputERKNS0_10DebugArrowE
wIj:_Font_add_textureRebuilt_m1282639736
RG:__ZN14SafeBinaryRead21TransferSTLStyleArrayI22OffsetPtrArrayTransferI9OffsetPtrIN7mecanim12statemachine21SelectorStateConstantEEEEEvRT_17TransferMetaFlags
GRh:_Dictionary_2_ContainsValue_m2760581195_gshared
N8g:_RecordProtocol_ProcessChangeCipherSpec_m3233959862
nWa:__Z34ProcessIndexListIsNodeVisibleStep2RK22SceneCullingParametersPK9SceneNodePK4AABBR9IndexList
wJb:__ZN10MonoScriptD2Ev
E1:__ZL18AppendPathNameImplRKNSt3__212basic_stringIcNS_11char_traitsIcEENS_9allocatorIcEEEES7_cRS5_
Jjj:_Slider_OnRectTransformDimensionsChange_m4109401172
Sfh:_WebHeaderCollection_Get_m3391944907
_2:__GLOBAL__sub_I_half_cpp
blc:__Z39Input_CUSTOM_INTERNAL_get_mousePositionP8Vector3f
gre:_tt_cmap13_char_next
uqh:_ServerIdentity__ctor_m1576469955
qSa:__ZN9ShaderLab4Pass16SetupPassOptionsEv
Yoj:_TimerCallback_BeginInvoke_m2938818726
Slf:__ZN16VirtFuncInvoker0IP24ObjectU5BU5D_t3614634134E6InvokeEjPv
Omk:_UnityEvent_4__ctor_m3102731553_gshared
Qaj:__Z78RuntimeInvoker_Int32_t2071877448_UICharInfo_t3056636800_UICharInfo_t3056636800PK10MethodInfoPvPS2_
Gh:_JS_Sound_ReleaseInstance
oog:_Graphic_set_raycastTarget_m1229173591
Nmi:__ZL72IL2CPPStructAlignmentAttribute_t130316838_CustomAttributesCacheGeneratorP21CustomAttributesCache
DRf:_List_1_Shift_m439051997_gshared
s4d:__ZN5physx16PxsCCDBlockArrayINS_13PxsCCDOverlapELi128EE8pushBackEv
wJi:_Renderer_get_sortingLayerID_m2403577271
_6f:_ReadOnlyCollection_1_System_Collections_IEnumerable_GetEnumerator_m818487667_gshared
FZj:_InAttribute__ctor_m1401060713
vil:__ZNSt3__214__scan_keywordINS_19istreambuf_iteratorIwNS_11char_traitsIwEEEEPKNS_12basic_stringIwS3_NS_9allocatorIwEEEENS_5ctypeIwEEEET0_RT_SE_SD_SD_RKT1_Rjb
Pxl:_emscripten_glPixelStorei__wrapper
tzf:_Decimal_System_IConvertible_ToDecimal_m1541432424_AdjustorThunk
hVb:__Z29Transfer_Blittable_ArrayFieldI18StreamedBinaryReadILb0EEaEvRT_R9ArrayInfoRK23StaticTransferFieldInfo
doc:__Z21Resources_CUSTOM_LoadP12Il2CppStringP12Il2CppObject
bn:FUNCTION_TABLE_diddi
Heg:_ExecuteEvents_Execute_m2863348178
t8d:__ZN5physx2Gu12TriangleMesh7releaseEv
sAg:_Int16_System_IConvertible_ToSingle_m3277935657_AdjustorThunk
LFk:__ZNSt3__26vectorIPK10MethodInfoNS_9allocatorIS3_EEE21__push_back_slow_pathIRKS3_EEvOT_
lyj:_AttributeHelperEngine_CheckIsEditorScript_m2980171478
D8b:__ZN8GUILayerD2Ev
y1j:_InternalRemotingServices__cctor_m3821625125
Rjc:__Z42Register_UnityEngine_RectOffset_get_bottomv
TYe:_StringBuilder_Insert_m3322917127
LSh:_DefaultComparer_Equals_m724229128_gshared
ZQf:_List_1__cctor_m1337542316_gshared
_Md:__ZN5physx14PxsAABBManagerD2Ev
CKj:_ArrayReadOnlyList_1_Clear_m2539474626_gshared
tTh:_DefaultComparer_Equals_m3680378320_gshared
Tgk:_UnityAction_1_EndInvoke_m2603848420_gshared
Rik:_ThreadAndSerializationSafe__ctor_m84326599
Xtf:_Convert_ToDouble_m3520060872
hxl:_emscripten_glUniform1f__wrapper
Drl:dynCall_di
G9g:_SslCipherSuite_ComputeServerRecordMAC_m1876572367
KMd:__ZN5physx16PxsIslandManagerD2Ev
Ime:__ZN20TextRenderingPrivate19NativeTextGeneratorC2ERK11UTF16StringPNS_8FontImplE11ColorRGBA32ifRK8Vector2fbifiibffbbbP13dynamic_arrayIN2UI8UIVertexELj4EE
dCc:__Z28RegisterModule_JSONSerializev
Cnj:_Interlocked_CompareExchange_m3227034792
gxh:_HashAlgorithm_get_Hash_m931854461
MHk:_il2cpp_monitor_enter
jWj:_DefaultComparer_Compare_m3564013922_gshared
Mvb:__ZN2UI13RectTransform8TransferI14SafeBinaryReadEEvRT_
Vdc:__Z20IsHumanControllingUsv
Acc:__ZNK11ICallStringcvNSt3__212basic_stringIcNS0_11char_traitsIcEENS0_9allocatorIcEEEEEv
J$f:_Collection_1_RemoveAt_m3454169520_gshared
DXc:__ZN26IntersectAnyVsMeshCallbackILi1ELb1EED0Ev
ffi:__ZL63GlobalProxySelection_t2251180943_CustomAttributesCacheGeneratorP21CustomAttributesCache
cpd:__ZNK5physx15NpActorTemplateINS_7PxClothEE17getDominanceGroupEv
bt:__ZN7mecanim5human9HumanGoal8TransferI14SafeBinaryReadEEvRT_
ggb:__ZN10systeminfo21GetPersistentDataPathEv
Cmg:_Dropdown_set_value_m2945561009
Aya:__ZN13GfxDeviceGLES17DestroyGpuProgramEPK10GpuProgram
pyg:_GregorianCalendar_GetMonth_m523739832
yvc:__Z42Register_UnityEngine_GUIStyle_set_richTextv
y0a:__ZNSt3__218__insertion_sort_3IR23CompareReflectionProbesP31RuntimeReflectionProbeBlendInfoEEvT0_S5_T_
dQb:__ZN12NativeBufferI27Converter_SimpleNativeClassI8GradientEE15SetupForWritingER9ArrayInfo
y5f:_ReadOnlyCollection_1_System_Collections_ICollection_get_IsSynchronized_m2987885125_gshared
sPg:_SimpleCollator_GetNeutralCulture_m740567665
TIj:_GameObject_AddComponent_m3757565614
Iea:__ZN12_GLOBAL__N_113StaticDestroyEPv
O6i:__Z54RuntimeInvoker_Boolean_t3825574718_Vector4_t2243707581PK10MethodInfoPvPS2_
Tzg:_Guid_ToString_m51661589
krc:__ZNK8GUIStyle4DrawER8GUIStateRK5RectTIfER10GUIContentbbbb
cPf:_List_1__ctor_m2781632416_gshared
okj:_Text_set_font_m1095513810
dCl:_glUnmapBuffer__wrapper
hxf:_DateTime_System_IConvertible_ToUInt32_m1363211018_AdjustorThunk
Org:_InputField_get_cachedInputTextGenerator_m881618486
gAj:_Canvas_get_rootCanvas_m1790974328
Vlc:__Z32Mesh_CUSTOM_ExtractArrayFromListP12Il2CppObject
Yyh:_Binder_get_DefaultBinder_m965620943
LYc:__ZN5physx3Cct17CapsuleController11setPositionERKNS_14PxExtendedVec3E
Ayc:__ZN8JSONRead21TransferSTLStyleArrayINSt3__26vectorI8Gradient13stl_allocatorIS3_L18MemLabelIdentifier1ELi16EEEEEEvRT_17TransferMetaFlags
oZa:__Z20scripting_object_newP11Il2CppClass
iFb:__ZNSt3__218__insertion_sort_3IRNS_6__lessINS_4pairIPKN5Unity4TypeE7Hash128EES8_EEPS8_EEvT0_SC_T_
S4j:_PatternCompiler_EmitAlternationEnd_m889639343
QQb:__ZN10RectOffset8TransferI24GenerateTypeTreeTransferEEvRT_
Bff:_SimpleEnumerator_get_Current_m482975946
Yec:__Z18GetResourceManagerv
_el:_srand
kMg:_MonoTypeInfo__ctor_m1398838196
Wze:__ZN2UI13CanvasManager19RemoveDirtyRendererEPNS_6CanvasEPNS_14CanvasRendererE
xnd:__ZN5physx7NpShape18setQueryFilterDataERKNS_12PxFilterDataE
qHi:_Rect_get_position_m24550734
rlj:_Toggle_Rebuild_m929023818
ryj:_AudioClip_InvokePCMSetPositionCallback_Internal_m2304858844
Zhd:__ZN5physx2Sc8ShapeSim18onRestOffsetChangeEv
wOi:__Z51RuntimeInvoker_UInt16_t986882611_Decimal_t724701077PK10MethodInfoPvPS2_
Gtg:_InputField_KeyPressed_m3066588581
f$d:__ZN5physx20PxcNpCacheStreamPair5resetEv
Mij:_Selectable_DoStateTransition_m539253088
sNe:_SHA512_Create_m439875055
gc:invoke_vi
kNe:_SHA384Managed_update_m2629600295
Yui:__ZL68GridLayoutGroup_t1515633077_CustomAttributesCacheGenerator_m_SpacingP21CustomAttributesCache
RJj:_GUILayoutGroup_get_margin_m790729149
ec:invoke_vd
zb:invoke_vf
Mml:__ZNSt3__25ctypeIcED2Ev
aUj:_InternalEnumerator_1__ctor_m32322958_AdjustorThunk
Kaa:__ZNK10GameObject8IsActiveEv
Oic:__Z34Component_Get_Custom_PropTransformP12Il2CppObject
Vuh:_SByte_System_IConvertible_ToUInt32_m4256495110
kfg:_PointerEventData_set_eligibleForClick_m2036057844
jHa:__ZN18GfxFramebufferGLES23SetupDefaultFramebufferEPP17RenderSurfaceBaseS2_N2gl6HandleILNS3_10ObjectTypeE9EEE
xel:_mbsinit
Xzk:__ZN6il2cpp5utils11StringUtils4HashIcEEjPKT_j
YAk:__ZNK15dense_hashtableINSt3__24pairIK10KeyWrapperI13dynamic_arrayIPK10Il2CppTypeLj4EEEPFvvEEES8_N6il2cpp8metadata19Il2CppSignatureHashEN14dense_hash_mapIS8_SB_SF_NSE_22Il2CppSignatureCompareENS0_9allocatorISC_EEE9SelectKeyESH_SJ_E12test_deletedERK30dense_hashtable_const_iteratorISC_S8_SF_SL_SH_SJ_E
szi:_GUIStyle_get_Internal_clipOffset_m4237737448
s7c:__ZN5physx2Sq16computeWorldAABBERKNS_3Scb5ShapeERKNS1_5ActorE
soi:__ZL70EventSystem_t3466835263_CustomAttributesCacheGenerator_m_FirstSelectedP21CustomAttributesCache
Jwl:_emscripten_glDrawArraysInstanced__wrapper
s0:__ZN13ScreenManager18RequestOrientationE17ScreenOrientation
Hxk:__ZN6il2cpp2vm5Class12SetupMethodsEP11Il2CppClass
BVd:__ZN5physx14PxsAABBManager31updateAggregateBPOverlapRecordsEv
MXc:__ZN26IntersectAnyVsMeshCallbackILi2ELb1EED0Ev
v_:__ZN13EmscriptenWWW14BlockUntilDoneEv
Eyb:__ZN4Mesh39ShouldIgnoreInGarbageDependencyTrackingEv
osi:__ZL68InputField_t1631627530_CustomAttributesCacheGenerator_m_KeyboardTypeP21CustomAttributesCache
Vlj:_VerticalLayoutGroup_CalculateLayoutInputHorizontal_m497637066
dHj:_Playable_GetOutputInternal_m1788163321
Qig:_Button_get_onClick_m1595880935
Ink:_ListPool_1_Release_m3716853512_gshared
iJi:_RectTransformUtility_PixelAdjustPoint_m560908615
_1j:_MethodCall__ctor_m4106494862
R5j:_Parser_ParseOptions_m3112064571
b3b:__Z18GetApplicationInfov
Quc:__Z37Register_UnityEngine_GUIStyle_Cleanupv
Sa:invoke_iiifii
G8b:__ZN8GUILayer12AddToManagerEv
Gii:__ZL109TouchScreenKeyboard_t601950206_CustomAttributesCacheGenerator_TouchScreenKeyboard_Open_m3410222954____secure4P21CustomAttributesCache
cGk:__ZN6il2cpp6icalls8mscorlib6System8MonoType13IsPointerImplEP20Il2CppReflectionType
Htf:_Convert_ToDecimal_m2284596541
SFe:__ZN22BaseUnityConnectClient31DonePreparingOnMainThreadStaticEPv
mj:_emscripten_glFramebufferRenderbuffer
Fgi:__ZL64CipherSuiteCollection_t2431504453_CustomAttributesCacheGeneratorP21CustomAttributesCache
Dsl:dynCall_vid
fxb:__ZN22SharedSpriteRenderDataD0Ev
CPg:_SimpleCollator_FilterOptions_m4044781893
KGj:_AnimatorControllerPlayable_Equals_m2027287369_AdjustorThunk
LCg:_Int64_GetHashCode_m4047499913
j6a:__ZN9Transform30EnsureTransformHierarchyExistsEv
oKd:__ZN5physx2Sc14ConstraintCore15getPxConstraintEv
Cvj:_UnitySerializationHolder_GetRealObject_m286267090
$ff:_Attribute_IsDefined_m216577166
Qo:FUNCTION_TABLE_viiiiiiii
ekf:_Char_ToUpper_m109978609
xPj:_InternalEnumerator_1_get_Current_m1089848479_gshared
cCf:_Double_System_IConvertible_ToInt64_m3798425616
oKe:_Rijndael_Create_m113171669
bh:___cxa_find_matching_catch_4
QGj:_CustomAnimationPlayable_SetHandle_m1081373665
zmc:__ZN13MonoBehaviour13StopCoroutineEPKc
qph:_ProviderData_CopyFrom_m431414335
uYf:_Collection_1_System_Collections_IList_Insert_m3303840316_gshared
Wac:__ZN17TransformInternal36OnScaleChangedCalculateTransformTypeE15TransformAccess
eGh:__ZN18VirtActionInvoker5IP12Il2CppObjectS1_iP18Binder_t3404612058P23CultureInfo_t3500843524E6InvokeEjPvS1_S1_iS3_S5_
Gmf:_SynchronizedArrayListWrapper_InsertRange_m709359548
VPa:__ZN17ArchiveFileSystem10ToAbsoluteEPKc
fHe:__ZN22CrashReportingSettings8TransferI19StreamedBinaryWriteILb0EEEEvRT_
s$g:_BigInteger_op_Modulus_m13450242
yql:__ZNSt8bad_castC2Ev
enb:__ZN4PPtrI8MaterialE8TransferI18StreamedBinaryReadILb0EEEEvRT_
L7i:__Z56RuntimeInvoker_Int32_t2071877448_RaycastResult_t21186376PK10MethodInfoPvPS2_
mvf:_Convert_ToSingle_m915696580
xuf:_Convert_ToInt32_m2988544165
Q8e:_Array_Resize_TisColor32_t874517518_m2219502085_gshared
GC:__ZN7mecanim6CRCKeyENS_7eStringE
zbh:_SslStreamBase_get_CanWrite_m2069502593
U3i:__Z31RuntimeInvoker_Mode_t1081683921PK10MethodInfoPvPS2_
E4:__ZN19ShaderPropertySheet20ReservePropertyCountEj
QZk:__ZN6il2cpp5utils11StringUtils6PrintfEPKcz
L$c:__ZN16NovodexAllocatorD0Ev
lMh:_ShimEnumerator_Reset_m98005789_gshared
Drk:__ZN6il2cpp6icalls8mscorlib6System7Decimal13decimal2Int64EP19il2cpp_decimal_reprPx
MEi:_Object_INTERNAL_CALL_Internal_InstantiateSingle_m3932420250
z1g:_PKCS1_Compare_m552424558
lYj:_ResourceEnumerator__ctor_m1679839941
P7f:_ReadOnlyCollection_1_System_Collections_IList_set_Item_m1377990618_gshared
n4b:__ZN10MonoScript7PRODUCEE18MemLabelIdentifier18ObjectCreationMode
vTa:_UNITY_png_zstream_error
T6f:_ReadOnlyCollection_1_System_Collections_Generic_IListU3CTU3E_Insert_m4261553340_gshared
_fe:__ZN5physx6shdfnd8PoolBaseINS_24NpPtrTableStorageManager8PtrBlockILi16EEENS0_19ReflectionAllocatorIS4_EEED2Ev
lSh:_Dictionary_2_Init_m1045257495_gshared
sqh:_SingleCallIdentity__ctor_m1512303454
Cxk:__ZN6il2cpp2vm5Class12GetFinalizerEP11Il2CppClass
DH:__ZN7mecanim10ValueArray8TransferI18StreamedBinaryReadILb1EEEEvRT_
